	.file	"DSPF_sp_fircirc_vc.c"
.text;
.Ltext0:
	.cfi_sections	.debug_frame
	.section	.text.DSPF_sp_fircirc_vc,"ax",@progbits
	.align	2
	.global	DSPF_sp_fircirc_vc
	.type	DSPF_sp_fircirc_vc, @function
DSPF_sp_fircirc_vc:
.LFB3:
	.file 1 "../DSPF_sp_fircirc_vc.c"
	.loc 1 17 0
	.cfi_startproc
		SMOVIL		704, R6
		SMOVIL		0, R7
		SSUBA.L		R7:R6, AR7, AR7
		SNOP		2
		SMVAAGL.M1		AR14, R7:R6
		SNOP		1
		SMVAAGH.M1		AR14, R7:R6
		SNOP		1
		SSTDW		R7:R6, *AR15--[2]
.LCFI0:
	.cfi_def_cfa_offset 16
	.cfi_offset 14, 0
		SADDA.M1		16,AR15,AR14
.LCFI1:
	.cfi_def_cfa 14, 0
		SNOP		1
		SMOVIL		-304, R6
		SMOVIL		-1, R7
		SADDA.M1		R7:R6,AR15,AR15
		SNOP		1
		SSTDW		R63:R62, *+AR15[38]
		SSTDW		R41:R40, *+AR15[37]
		SSTDW		R39:R38, *+AR15[36]
		SSTDW		R37:R36, *+AR15[35]
		SSTDW		R35:R34, *+AR15[34]
		SSTDW		R33:R32, *+AR15[33]
		SSTDW		R31:R30, *+AR15[32]
	.cfi_offset 78, -16
	.cfi_offset 79, -12
	.cfi_offset 56, -24
	.cfi_offset 57, -20
	.cfi_offset 54, -32
	.cfi_offset 55, -28
	.cfi_offset 52, -40
	.cfi_offset 53, -36
	.cfi_offset 50, -48
	.cfi_offset 51, -44
	.cfi_offset 48, -56
	.cfi_offset 49, -52
	.cfi_offset 46, -64
	.cfi_offset 47, -60
		SMOVIL		-160, R42
		SMOVIL		-1, R43
		SADDA.M1		R43:R42,AR14,AR10
		SNOP		1
		SSTDW		R11:R10, *AR10
		SMOVIL		-168, R42
		SMOVIL		-1, R43
		SADDA.M1		R43:R42,AR14,AR10
		SNOP		1
		SSTDW		R13:R12, *AR10
		SMOVIL		-176, R42
		SMOVIL		-1, R43
		SADDA.M1		R43:R42,AR14,AR10
		SNOP		1
		SSTDW		R15:R14, *AR10
		SMOVIL		-116, R42
		SMOVIL		-1, R43
		SMOVIL		-64, R44
		SMOVIL		-1, R45
		SADDA.M1		R45:R44,AR14,OR11
		SNOP		1
		SADDA.M1		R43:R42,OR11,OR11
		SNOP		1
		SMVAAGL.M1		OR11, R43:R42
		SNOP		1
		SMVAAGH.M1		OR11, R43:R42
		SNOP		1
		SMVAGA36.M1		R43:R42, AR10
		SNOP		1
		SSTW		R16, *AR10
		SMOVIL		-120, R42
		SMOVIL		-1, R43
		SMOVIL		-64, R44
		SMOVIL		-1, R45
		SADDA.M1		R45:R44,AR14,OR11
		SNOP		1
		SADDA.M1		R43:R42,OR11,OR11
		SNOP		1
		SMVAAGL.M1		OR11, R43:R42
		SNOP		1
		SMVAAGH.M1		OR11, R43:R42
		SNOP		1
		SMVAGA36.M1		R43:R42, AR10
		SNOP		1
		SSTW		R18, *AR10
		SMOVIL		-124, R42
		SMOVIL		-1, R43
		SMOVIL		-64, R44
		SMOVIL		-1, R45
		SADDA.M1		R45:R44,AR14,OR11
		SNOP		1
		SADDA.M1		R43:R42,OR11,OR11
		SNOP		1
		SMVAAGL.M1		OR11, R43:R42
		SNOP		1
		SMVAAGH.M1		OR11, R43:R42
		SNOP		1
		SMVAGA36.M1		R43:R42, AR10
		SNOP		1
		SSTW		R20, *AR10
		SMOVIL		-128, R42
		SMOVIL		-1, R43
		SMOVIL		-64, R44
		SMOVIL		-1, R45
		SADDA.M1		R45:R44,AR14,OR11
		SNOP		1
		SADDA.M1		R43:R42,OR11,OR11
		SNOP		1
		SMVAAGL.M1		OR11, R43:R42
		SNOP		1
		SMVAAGH.M1		OR11, R43:R42
		SNOP		1
		SMVAGA36.M1		R43:R42, AR10
		SNOP		1
		SSTW		R22, *AR10
	.loc 1 18 0
		SMOVIL		-120, R42
		SMOVIL		-1, R43
		SMOVIL		-64, R44
		SMOVIL		-1, R45
		SADDA.M1		R45:R44,AR14,OR11
		SNOP		1
		SADDA.M1		R43:R42,OR11,OR11
		SNOP		1
		SMVAAGL.M1		OR11, R43:R42
		SNOP		1
		SMVAAGH.M1		OR11, R43:R42
		SNOP		1
		SMVAGA36.M1		R43:R42, AR10
		SNOP		1
		SLDW		*AR10, R42
		SNOP		5
		SADD.M1		-1,R42,R42
		SMOVIL		1, R43
		SSHFLL		R42, R43, R42
		SMOVIL		-100, R44
		SMOVIL		-1, R45
		SADDA.M1		R45:R44,AR14,AR10
		SNOP		1
		SSTW		R42, *AR10
	.loc 1 19 0
		SMOVIL		-160, R44
		SMOVIL		-1, R45
		SADDA.M1		R45:R44,AR14,AR10
		SNOP		1
		SLDDW		*AR10, R43:R42
		SNOP		5
		SSTDW		R43:R42, *-AR14[14]
	.loc 1 20 0
		SMOVIL		-116, R42
		SMOVIL		-1, R43
		SMOVIL		-64, R44
		SMOVIL		-1, R45
		SADDA.M1		R45:R44,AR14,OR11
		SNOP		1
		SADDA.M1		R43:R42,OR11,OR11
		SNOP		1
		SMVAAGL.M1		OR11, R43:R42
		SNOP		1
		SMVAAGH.M1		OR11, R43:R42
		SNOP		1
		SMVAGA36.M1		R43:R42, AR10
		SNOP		1
		SLDW		*AR10, R44
		SNOP		5
		SMVAGA36.M1		R43:R42, AR10
		SNOP		1
		SLDW		*AR10, R42
		SNOP		5
		SSHFAR		31, R42, R42
		SMOV.M1		R42, R45
		SADD.M1		R44,R44,R42
		SLTU		R42, R44, R48
		SADD.M1		R45,R45,R43
		SADD.M1		R43,R48,R44
		SMOV.M1		R44, R43
		SADD.M1		R42,R42,R44
		SLTU		R44, R42, R48
		SADD.M1		R43,R43,R45
		SADD.M1		R45,R48,R42
		SMOV.M1		R42, R45
		SMOV.M1		R44, R42
		SMOV.M1		R45, R43
	;no-op trunc di R43:R42 to pdi R43:R42
		SLDDW		*-AR14[14], R45:R44
		SNOP		5
		SMVAGA36.M1		R45:R44, OR11
		SNOP		1
		SADDA.M1		R43:R42,OR11,OR11
		SNOP		1
		SMVAAGL.M1		OR11, R43:R42
		SNOP		1
		SMVAAGH.M1		OR11, R43:R42
		SNOP		1
		SMVAGA36.M1		R43:R42, AR1
		SNOP		1
		VLDW.LS 		*AR1,VR3
		SNOP		7
		VSTW.LS 		VR3,*+AR7[160]
	.loc 1 21 0
		SMOVIL		-124, R42
		SMOVIL		-1, R43
		SMOVIL		-64, R46
		SMOVIL		-1, R47
		SADDA.M1		R47:R46,AR14,OR11
		SNOP		1
		SADDA.M1		R43:R42,OR11,OR11
		SNOP		1
		SMVAAGL.M1		OR11, R45:R44
		SNOP		1
		SMVAAGH.M1		OR11, R45:R44
		SNOP		1
		SMOVIL		-128, R42
		SMOVIL		-1, R43
		SMOVIL		-64, R46
		SMOVIL		-1, R47
		SADDA.M1		R47:R46,AR14,OR11
		SNOP		1
		SADDA.M1		R43:R42,OR11,OR11
		SNOP		1
		SMVAAGL.M1		OR11, R43:R42
		SNOP		1
		SMVAAGH.M1		OR11, R43:R42
		SNOP		1
		SMVAGA36.M1		R45:R44, AR10
		SNOP		1
		SLDW		*AR10, R44
		SNOP		5
		SMVAGA36.M1		R43:R42, AR10
		SNOP		1
		SLDW		*AR10, R42
		SNOP		5
		SADD.M1		R42,R44,R42
		SADD.M1		-1,R42,R42
		SMOVIL		-116, R44
		SMOVIL		-1, R45
		SADDA.M1		R45:R44,AR14,AR10
		SNOP		1
		SSTW		R42, *AR10
	.loc 1 22 0
		SMOVIL		-116, R44
		SMOVIL		-1, R45
		SADDA.M1		R45:R44,AR14,AR10
		SNOP		1
		SLDW		*AR10, R42
		SNOP		5
		SADD.M1		15,R42,R42
		SSHFAR		31, R42, R43
		SSHFLR		28, R43, R43
		SADD.M1		R42,R43,R42
		SSHFAR		4, R42, R42
		SADD.M1		1,R42,R42
		SMOVIL		-120, R44
		SMOVIL		-1, R45
		SADDA.M1		R45:R44,AR14,AR10
		SNOP		1
		SSTW		R42, *AR10
	.loc 1 25 0
		SMOVIL		-120, R44
		SMOVIL		-1, R45
		SADDA.M1		R45:R44,AR14,AR10
		SNOP		1
		SLDW		*AR10, R42
		SNOP		5
		SSHFLL		6, R42, R42
		SMOV.M1		R42, R46
		SSHFAR		31, R42, R42
		SMOV.M1		R42, R47
		SMOV.M1		R46, R10
		SMOV.M1		R47, R11
		SBR		vmalloc
		SMOVIL		.L19, R62
		SMOVIH		.L19, R62
		SMOVIH4.L		.L19, R63
		SNOP		4
.L19:
		SMOVIL		-128, R42
		SMOVIL		-1, R43
		SADDA.M1		R43:R42,AR14,AR10
		SNOP		1
		SSTDW		R11:R10, *AR10
	.loc 1 28 0
		SMOVIL		-128, R44
		SMOVIL		-1, R45
		SADDA.M1		R45:R44,AR14,AR10
		SNOP		1
		SLDDW		*AR10, R43:R42
		SNOP		5
		SMOVIL		-136, R44
		SMOVIL		-1, R45
		SADDA.M1		R45:R44,AR14,AR10
		SNOP		1
		SSTDW		R43:R42, *AR10
	.loc 1 29 0
		SMOVIL		-136, R44
		SMOVIL		-1, R45
		SADDA.M1		R45:R44,AR14,AR10
		SNOP		1
		SLDDW		*AR10, R43:R42
		SNOP		5
		SSTDW		R43:R42, *-AR14[10]
	.loc 1 32 0
		SMOVIL		-100, R44
		SMOVIL		-1, R45
		SADDA.M1		R45:R44,AR14,AR10
		SNOP		1
		SLDW		*AR10, R42
		SNOP		5
		SMOVIL		15, R0
		SLT		R0, R42, R42
		SMOV.M1		R42, R0
	[R0]	SBR		.L2
		SNOP		6
.LBB2:
	.loc 1 33 0
		SMOVIL		-76, R42
		SMOVIL		-1, R43
		SMOVIL		-64, R44
		SMOVIL		-1, R45
		SADDA.M1		R45:R44,AR14,OR11
		SNOP		1
		SADDA.M1		R43:R42,OR11,OR11
		SNOP		1
		SMVAAGL.M1		OR11, R43:R42
		SNOP		1
		SMVAAGH.M1		OR11, R43:R42
		SNOP		1
		SMOVIL		-116, R44
		SMOVIL		-1, R45
		SMOVIL		-64, R46
		SMOVIL		-1, R47
		SADDA.M1		R47:R46,AR14,OR11
		SNOP		1
		SADDA.M1		R45:R44,OR11,OR11
		SNOP		1
		SMVAAGL.M1		OR11, R45:R44
		SNOP		1
		SMVAAGH.M1		OR11, R45:R44
		SNOP		1
		SMOVIL		-100, R48
		SMOVIL		-1, R49
		SADDA.M1		R49:R48,AR14,AR10
		SNOP		1
		SLDW		*AR10, R46
		SNOP		5
		SMVAGA36.M1		R45:R44, AR10
		SNOP		1
		SLDW		*AR10, R44
		SNOP		5
		SSUB.M1		R44, R46, R44
		SMVAGA36.M1		R43:R42, AR10
		SNOP		1
		SSTW		R44, *AR10
	.loc 1 34 0
		SMOVIL		-128, R44
		SMOVIL		-1, R45
		SADDA.M1		R45:R44,AR14,AR10
		SNOP		1
		SLDDW		*AR10, R43:R42
		SNOP		5
		VLDW.LS 		*+AR7[160],VR3
		SNOP		7
		SMVAGA36.M1		R43:R42, AR1
		SNOP		1
		VSTW.LS 		VR3,*AR1
	.loc 1 35 0
		SMOVIL		-76, R42
		SMOVIL		-1, R43
		SMOVIL		-64, R44
		SMOVIL		-1, R45
		SADDA.M1		R45:R44,AR14,OR11
		SNOP		1
		SADDA.M1		R43:R42,OR11,OR11
		SNOP		1
		SMVAAGL.M1		OR11, R43:R42
		SNOP		1
		SMVAAGH.M1		OR11, R43:R42
		SNOP		1
		SMVAGA36.M1		R43:R42, AR10
		SNOP		1
		SLDW		*AR10, R42
		SNOP		5
		SMOVIL		-84, R44
		SMOVIL		-1, R45
		SADDA.M1		R45:R44,AR14,AR10
		SNOP		1
		SSTW		R42, *AR10
	.loc 1 36 0
		SMOVIL		-160, R44
		SMOVIL		-1, R45
		SADDA.M1		R45:R44,AR14,AR10
		SNOP		1
		SLDDW		*AR10, R43:R42
		SNOP		5
		SMVAGA36.M1		R43:R42, AR1
		SNOP		1
		VLDW.LS 		*AR1,VR3
		SNOP		7
		VSTW.LS 		VR3,*+AR7[144]
	.loc 1 37 0
		SBR		.L3
		SNOP		6
.L4:
	.loc 1 38 0
		SMOVIL		-84, R42
		SMOVIL		-1, R43
		SADDA.M1		R43:R42,AR14,AR10
		SNOP		1
		SLDW		*AR10, R36
		SNOP		5
		SMOVIL		-84, R44
		SMOVIL		-1, R45
		SADDA.M1		R45:R44,AR14,AR10
		SNOP		1
		SLDW		*AR10, R42
		SNOP		5
		SSHFAR		31, R42, R42
		SMOV.M1		R42, R37
		SADD.M1		R36,R36,R42
		SLTU		R42, R36, R44
		SADD.M1		R37,R37,R43
		SADD.M1		R43,R44,R44
		SMOV.M1		R44, R43
		SADD.M1		R42,R42,R44
		SLTU		R44, R42, R46
		SADD.M1		R43,R43,R45
		SADD.M1		R45,R46,R42
		SMOV.M1		R42, R45
		SMOV.M1		R44, R42
		SMOV.M1		R45, R43
	;no-op trunc di R43:R42 to pdi R43:R42
		SMOVIL		-136, R46
		SMOVIL		-1, R47
		SADDA.M1		R47:R46,AR14,AR10
		SNOP		1
		SLDDW		*AR10, R45:R44
		SNOP		5
		SMVAGA36.M1		R45:R44, OR11
		SNOP		1
		SADDA.M1		R43:R42,OR11,OR11
		SNOP		1
		SMVAAGL.M1		OR11, R43:R42
		SNOP		1
		SMVAAGH.M1		OR11, R43:R42
		SNOP		1
		SSTDW		R43:R42, *-AR14[10]
	.loc 1 39 0
		VLDW.LS 		*+AR7[144],VR3
		SNOP		7
		SLDDW		*-AR14[10], R43:R42
		SNOP		5
		SMVAGA36.M1		R43:R42, AR1
		SNOP		1
		VSTW.LS 		VR3,*AR1
	.loc 1 40 0
		SMOVIL		-84, R44
		SMOVIL		-1, R45
		SADDA.M1		R45:R44,AR14,AR10
		SNOP		1
		SLDW		*AR10, R43
		SNOP		5
		SMOVIL		-100, R44
		SMOVIL		-1, R45
		SADDA.M1		R45:R44,AR14,AR10
		SNOP		1
		SLDW		*AR10, R42
		SNOP		5
		SADD.M1		R42,R43,R42
		SMOVIL		-84, R44
		SMOVIL		-1, R45
		SADDA.M1		R45:R44,AR14,AR10
		SNOP		1
		SSTW		R42, *AR10
.L3:
	.loc 1 37 0 discriminator 1
		SMOVIL		-84, R44
		SMOVIL		-1, R45
		SADDA.M1		R45:R44,AR14,AR10
		SNOP		1
		SLDW		*AR10, R43
		SNOP		5
		SMOVIL		-116, R44
		SMOVIL		-1, R45
		SADDA.M1		R45:R44,AR14,AR10
		SNOP		1
		SLDW		*AR10, R42
		SNOP		5
		SLT		R43, R42, R42
		SMOV.M1		R42, R0
	[R0]	SBR		.L4
		SNOP		6
	.loc 1 37 0 is_stmt 0
		SBR		.L5
		SNOP		6
.L2:
.LBE2:
.LBB3:
	.loc 1 44 0 is_stmt 1
		SMOVIL		-76, R42
		SMOVIL		-1, R43
		SMOVIL		-64, R44
		SMOVIL		-1, R45
		SADDA.M1		R45:R44,AR14,OR11
		SNOP		1
		SADDA.M1		R43:R42,OR11,OR11
		SNOP		1
		SMVAAGL.M1		OR11, R43:R42
		SNOP		1
		SMVAAGH.M1		OR11, R43:R42
		SNOP		1
		SMOVIL		-116, R44
		SMOVIL		-1, R45
		SMOVIL		-64, R46
		SMOVIL		-1, R47
		SADDA.M1		R47:R46,AR14,OR11
		SNOP		1
		SADDA.M1		R45:R44,OR11,OR11
		SNOP		1
		SMVAAGL.M1		OR11, R45:R44
		SNOP		1
		SMVAAGH.M1		OR11, R45:R44
		SNOP		1
		SMOVIL		16, R46
		SMVAGA36.M1		R45:R44, AR10
		SNOP		1
		SLDW		*AR10, R44
		SNOP		5
		SSUB.M1		R44, R46, R44
		SMVAGA36.M1		R43:R42, AR10
		SNOP		1
		SSTW		R44, *AR10
	.loc 1 45 0
		SMOVIL		-80, R42
		SMOVIL		-1, R43
		SMOVIL		-64, R44
		SMOVIL		-1, R45
		SADDA.M1		R45:R44,AR14,OR11
		SNOP		1
		SADDA.M1		R43:R42,OR11,OR11
		SNOP		1
		SMVAAGL.M1		OR11, R43:R42
		SNOP		1
		SMVAAGH.M1		OR11, R43:R42
		SNOP		1
		SMOVIL		-100, R46
		SMOVIL		-1, R47
		SADDA.M1		R47:R46,AR14,AR10
		SNOP		1
		SLDW		*AR10, R44
		SNOP		5
		SSHFAR		4, R44, R44
		SMVAGA36.M1		R43:R42, AR10
		SNOP		1
		SSTW		R44, *AR10
	.loc 1 46 0
		SMOVIL		0, R42
		SMOVIL		-84, R44
		SMOVIL		-1, R45
		SADDA.M1		R45:R44,AR14,AR10
		SNOP		1
		SSTW		R42, *AR10
	.loc 1 47 0
		SMOVIL		1, R42
		SMOVIL		-88, R44
		SMOVIL		-1, R45
		SADDA.M1		R45:R44,AR14,AR10
		SNOP		1
		SSTW		R42, *AR10
	.loc 1 48 0
		SBR		.L6
		SNOP		6
.L13:
	.loc 1 49 0
		SMOVIL		0, R42
		SMOVIL		-68, R44
		SMOVIL		-1, R45
		SADDA.M1		R45:R44,AR14,AR10
		SNOP		1
		SSTW		R42, *AR10
		SBR		.L7
		SNOP		6
.L12:
	.loc 1 50 0
		SMOVIL		-88, R44
		SMOVIL		-1, R45
		SADDA.M1		R45:R44,AR14,AR10
		SNOP		1
		SLDW		*AR10, R42
		SNOP		5
		SMOV.M1		R42, R0
	[!R0]	SBR		.L8
		SNOP		6
	.loc 1 50 0 is_stmt 0 discriminator 1
		SMOVIL		-68, R44
		SMOVIL		-1, R45
		SADDA.M1		R45:R44,AR14,AR10
		SNOP		1
		SLDW		*AR10, R42
		SNOP		5
		SMOV.M1		R42, R0
	[R0]	SBR		.L8
		SNOP		6
	.loc 1 51 0 is_stmt 1
		SMOVIL		-128, R44
		SMOVIL		-1, R45
		SADDA.M1		R45:R44,AR14,AR10
		SNOP		1
		SLDDW		*AR10, R43:R42
		SNOP		5
		VLDW.LS 		*+AR7[160],VR3
		SNOP		7
		SMVAGA36.M1		R43:R42, AR1
		SNOP		1
		VSTW.LS 		VR3,*AR1
	.loc 1 52 0
		SMOVIL		-116, R42
		SMOVIL		-1, R43
		SMOVIL		-64, R44
		SMOVIL		-1, R45
		SADDA.M1		R45:R44,AR14,OR11
		SNOP		1
		SADDA.M1		R43:R42,OR11,OR11
		SNOP		1
		SMVAAGL.M1		OR11, R43:R42
		SNOP		1
		SMVAAGH.M1		OR11, R43:R42
		SNOP		1
		SMOVIL		16, R44
		SMVAGA36.M1		R43:R42, AR10
		SNOP		1
		SLDW		*AR10, R42
		SNOP		5
		SSUB.M1		R42, R44, R42
		SMOVIL		-84, R44
		SMOVIL		-1, R45
		SADDA.M1		R45:R44,AR14,AR10
		SNOP		1
		SLDW		*AR10, R43
		SNOP		5
		SADD.M1		R42,R43,R42
		SMOVIL		-84, R44
		SMOVIL		-1, R45
		SADDA.M1		R45:R44,AR14,AR10
		SNOP		1
		SSTW		R42, *AR10
	.loc 1 53 0
		SMOVIL		0, R42
		SMOVIL		-88, R44
		SMOVIL		-1, R45
		SADDA.M1		R45:R44,AR14,AR10
		SNOP		1
		SSTW		R42, *AR10
		SBR		.L9
		SNOP		6
.L8:
	.loc 1 55 0
		SMOVIL		-68, R42
		SMOVIL		-1, R43
		SADDA.M1		R43:R42,AR14,AR10
		SNOP		1
		SLDW		*AR10, R44
		SNOP		5
		SMOVIL		-200, R42
		SMOVIL		-1, R43
		SADDA.M1		R43:R42,AR14,AR10
		SNOP		1
		SSTW		R44, *AR10
		SMOVIL		-68, R44
		SMOVIL		-1, R45
		SADDA.M1		R45:R44,AR14,AR10
		SNOP		1
		SLDW		*AR10, R42
		SNOP		5
		SSHFAR		31, R42, R42
		SMOVIL		-196, R44
		SMOVIL		-1, R45
		SADDA.M1		R45:R44,AR14,AR10
		SNOP		1
		SSTW		R42, *AR10
		SMOVIL		-200, R44
		SMOVIL		-1, R45
		SADDA.M1		R45:R44,AR14,AR10
		SNOP		1
		SLDW		*AR10, R43
		SNOP		5
		SSHFLR		26, R43, R42
		SMOVIL		-196, R44
		SMOVIL		-1, R45
		SADDA.M1		R45:R44,AR14,AR10
		SNOP		1
		SLDW		*AR10, R43
		SNOP		5
		SSHFLL		6, R43, R43
		SMOVIL		-204, R44
		SMOVIL		-1, R45
		SADDA.M1		R45:R44,AR14,AR10
		SNOP		1
		SSTW		R43, *AR10
		SMOVIL		-204, R44
		SMOVIL		-1, R45
		SADDA.M1		R45:R44,AR14,AR10
		SNOP		1
		SLDW		*AR10, R43
		SNOP		5
		SOR		R43, R42, R43
		SMOVIL		-204, R44
		SMOVIL		-1, R45
		SADDA.M1		R45:R44,AR14,AR10
		SNOP		1
		SSTW		R43, *AR10
		SMOVIL		-200, R42
		SMOVIL		-1, R43
		SADDA.M1		R43:R42,AR14,AR10
		SNOP		1
		SLDW		*AR10, R42
		SNOP		5
		SSHFLL		6, R42, R44
		SMOVIL		-208, R42
		SMOVIL		-1, R43
		SADDA.M1		R43:R42,AR14,AR10
		SNOP		1
		SSTW		R44, *AR10
		SMOVIL		-208, R44
		SMOVIL		-1, R45
		SADDA.M1		R45:R44,AR14,AR10
		SNOP		1
		SLDDW		*AR10, R43:R42
		SNOP		5
	;no-op trunc di R43:R42 to pdi R43:R42
		SMOVIL		-160, R46
		SMOVIL		-1, R47
		SADDA.M1		R47:R46,AR14,AR10
		SNOP		1
		SLDDW		*AR10, R45:R44
		SNOP		5
		SMVAGA36.M1		R45:R44, OR11
		SNOP		1
		SADDA.M1		R43:R42,OR11,OR11
		SNOP		1
		SMVAAGL.M1		OR11, R43:R42
		SNOP		1
		SMVAAGH.M1		OR11, R43:R42
		SNOP		1
		SMVAGA36.M1		R43:R42, AR1
		SNOP		1
		VLDW.LS 		*AR1,VR3
		SNOP		7
		SLDDW		*-AR14[10], R43:R42
		SNOP		5
		SMVAGA36.M1		R43:R42, AR1
		SNOP		1
		VSTW.LS 		VR3,*AR1
	.loc 1 56 0
		SMOVIL		-80, R42
		SMOVIL		-1, R43
		SMOVIL		-64, R44
		SMOVIL		-1, R45
		SADDA.M1		R45:R44,AR14,OR11
		SNOP		1
		SADDA.M1		R43:R42,OR11,OR11
		SNOP		1
		SMVAAGL.M1		OR11, R43:R42
		SNOP		1
		SMVAAGH.M1		OR11, R43:R42
		SNOP		1
		SMVAGA36.M1		R43:R42, AR10
		SNOP		1
		SLDW		*AR10, R42
		SNOP		5
		SADD.M1		-1,R42,R43
		SMOVIL		-68, R44
		SMOVIL		-1, R45
		SADDA.M1		R45:R44,AR14,AR10
		SNOP		1
		SLDW		*AR10, R42
		SNOP		5
		SEQ		R42, R43, R42
		SMOV.M1		R42, R0
	[!R0]	SBR		.L10
		SNOP		6
	.loc 1 57 0
		SMOVIL		-68, R44
		SMOVIL		-1, R45
		SADDA.M1		R45:R44,AR14,AR10
		SNOP		1
		SLDW		*AR10, R43
		SNOP		5
		SMOVIL		0, R42
		SSUB.M1		R43, R42, R42
		SSHFLL		4, R42, R42
		SMOV.M1		R42, R43
		SMOVIL		-100, R44
		SMOVIL		-1, R45
		SADDA.M1		R45:R44,AR14,AR10
		SNOP		1
		SLDW		*AR10, R42
		SNOP		5
		SADD.M1		R42,R43,R42
		SMOVIL		-84, R44
		SMOVIL		-1, R45
		SADDA.M1		R45:R44,AR14,AR10
		SNOP		1
		SLDW		*AR10, R43
		SNOP		5
		SADD.M1		R42,R43,R42
		SMOVIL		-84, R44
		SMOVIL		-1, R45
		SADDA.M1		R45:R44,AR14,AR10
		SNOP		1
		SSTW		R42, *AR10
		SBR		.L9
		SNOP		6
.L10:
	.loc 1 59 0
		SMOVIL		-84, R44
		SMOVIL		-1, R45
		SADDA.M1		R45:R44,AR14,AR10
		SNOP		1
		SLDW		*AR10, R42
		SNOP		5
		SADD.M1		16,R42,R42
		SMOVIL		-84, R44
		SMOVIL		-1, R45
		SADDA.M1		R45:R44,AR14,AR10
		SNOP		1
		SSTW		R42, *AR10
.L9:
	.loc 1 62 0
		SMOVIL		-84, R42
		SMOVIL		-1, R43
		SADDA.M1		R43:R42,AR14,AR10
		SNOP		1
		SLDW		*AR10, R34
		SNOP		5
		SMOVIL		-84, R44
		SMOVIL		-1, R45
		SADDA.M1		R45:R44,AR14,AR10
		SNOP		1
		SLDW		*AR10, R42
		SNOP		5
		SSHFAR		31, R42, R42
		SMOV.M1		R42, R35
		SADD.M1		R34,R34,R42
		SLTU		R42, R34, R44
		SADD.M1		R35,R35,R43
		SADD.M1		R43,R44,R44
		SMOV.M1		R44, R43
		SADD.M1		R42,R42,R44
		SLTU		R44, R42, R46
		SADD.M1		R43,R43,R45
		SADD.M1		R45,R46,R42
		SMOV.M1		R42, R45
		SMOV.M1		R44, R42
		SMOV.M1		R45, R43
	;no-op trunc di R43:R42 to pdi R43:R42
		SMOVIL		-136, R46
		SMOVIL		-1, R47
		SADDA.M1		R47:R46,AR14,AR10
		SNOP		1
		SLDDW		*AR10, R45:R44
		SNOP		5
		SMVAGA36.M1		R45:R44, OR11
		SNOP		1
		SADDA.M1		R43:R42,OR11,OR11
		SNOP		1
		SMVAAGL.M1		OR11, R43:R42
		SNOP		1
		SMVAAGH.M1		OR11, R43:R42
		SNOP		1
		SSTDW		R43:R42, *-AR14[10]
	.loc 1 63 0
		SMOVIL		-84, R44
		SMOVIL		-1, R45
		SADDA.M1		R45:R44,AR14,AR10
		SNOP		1
		SLDW		*AR10, R43
		SNOP		5
		SMOVIL		-116, R44
		SMOVIL		-1, R45
		SADDA.M1		R45:R44,AR14,AR10
		SNOP		1
		SLDW		*AR10, R42
		SNOP		5
		SLT		R42, R43, R42
		SMOV.M1		R42, R0
	[R0]	SBR		.L18
		SNOP		6
.L11:
	.loc 1 49 0
		SMOVIL		-68, R44
		SMOVIL		-1, R45
		SADDA.M1		R45:R44,AR14,AR10
		SNOP		1
		SLDW		*AR10, R42
		SNOP		5
		SADD.M1		1,R42,R42
		SMOVIL		-68, R44
		SMOVIL		-1, R45
		SADDA.M1		R45:R44,AR14,AR10
		SNOP		1
		SSTW		R42, *AR10
.L7:
	.loc 1 49 0 is_stmt 0 discriminator 1
		SMOVIL		-80, R42
		SMOVIL		-1, R43
		SMOVIL		-64, R44
		SMOVIL		-1, R45
		SADDA.M1		R45:R44,AR14,OR11
		SNOP		1
		SADDA.M1		R43:R42,OR11,OR11
		SNOP		1
		SMVAAGL.M1		OR11, R43:R42
		SNOP		1
		SMVAAGH.M1		OR11, R43:R42
		SNOP		1
		SMOVIL		-68, R46
		SMOVIL		-1, R47
		SADDA.M1		R47:R46,AR14,AR10
		SNOP		1
		SLDW		*AR10, R44
		SNOP		5
		SMVAGA36.M1		R43:R42, AR10
		SNOP		1
		SLDW		*AR10, R42
		SNOP		5
		SLT		R44, R42, R42
		SMOV.M1		R42, R0
	[R0]	SBR		.L12
		SNOP		6
		SBR		.L6
		SNOP		6
.L18:
	.loc 1 63 0 is_stmt 1
		SNOP		1
.L6:
	.loc 1 48 0 discriminator 1
		SMOVIL		-84, R44
		SMOVIL		-1, R45
		SADDA.M1		R45:R44,AR14,AR10
		SNOP		1
		SLDW		*AR10, R43
		SNOP		5
		SMOVIL		-116, R44
		SMOVIL		-1, R45
		SADDA.M1		R45:R44,AR14,AR10
		SNOP		1
		SLDW		*AR10, R42
		SNOP		5
		SLT		R43, R42, R42
		SMOV.M1		R42, R0
	[R0]	SBR		.L13
		SNOP		6
.L5:
.LBE3:
	.loc 1 73 0
		SMOVIL		0, R42
		SMOVIL		-68, R44
		SMOVIL		-1, R45
		SADDA.M1		R45:R44,AR14,AR10
		SNOP		1
		SSTW		R42, *AR10
		SBR		.L14
		SNOP		6
.L17:
	.loc 1 74 0
		SMOVIL		-68, R42
		SMOVIL		-1, R43
		SADDA.M1		R43:R42,AR14,AR10
		SNOP		1
		SLDW		*AR10, R30
		SNOP		5
		SMOVIL		-68, R44
		SMOVIL		-1, R45
		SADDA.M1		R45:R44,AR14,AR10
		SNOP		1
		SLDW		*AR10, R42
		SNOP		5
		SSHFAR		31, R42, R42
		SMOV.M1		R42, R31
		SADD.M1		R30,R30,R42
		SLTU		R42, R30, R44
		SADD.M1		R31,R31,R43
		SADD.M1		R43,R44,R44
		SMOV.M1		R44, R43
		SADD.M1		R42,R42,R44
		SLTU		R44, R42, R46
		SADD.M1		R43,R43,R45
		SADD.M1		R45,R46,R42
		SMOV.M1		R42, R45
		SMOV.M1		R44, R42
		SMOV.M1		R45, R43
	;no-op trunc di R43:R42 to pdi R43:R42
		SMOVIL		-168, R46
		SMOVIL		-1, R47
		SADDA.M1		R47:R46,AR14,AR10
		SNOP		1
		SLDDW		*AR10, R45:R44
		SNOP		5
		SMVAGA36.M1		R45:R44, OR11
		SNOP		1
		SADDA.M1		R43:R42,OR11,OR11
		SNOP		1
		SMVAAGL.M1		OR11, R43:R42
		SNOP		1
		SMVAAGH.M1		OR11, R43:R42
		SNOP		1
		SMVAGA36.M1		R43:R42, AR10
		SNOP		1
		SLDW		*AR10, R42
		SNOP		5
		SVBCAST.M1 		 R42,VR3
		SNOP		3
		VSTW.LS 		VR3,*+AR7[128]
	.loc 1 75 0
		SMOVIL		-68, R42
		SMOVIL		-1, R43
		SADDA.M1		R43:R42,AR14,AR10
		SNOP		1
		SLDW		*AR10, R44
		SNOP		5
		SMOVIL		-216, R42
		SMOVIL		-1, R43
		SADDA.M1		R43:R42,AR14,AR10
		SNOP		1
		SSTW		R44, *AR10
		SMOVIL		-68, R44
		SMOVIL		-1, R45
		SADDA.M1		R45:R44,AR14,AR10
		SNOP		1
		SLDW		*AR10, R42
		SNOP		5
		SSHFAR		31, R42, R42
		SMOVIL		-212, R44
		SMOVIL		-1, R45
		SADDA.M1		R45:R44,AR14,AR10
		SNOP		1
		SSTW		R42, *AR10
		SMOVIL		1, R44
		SMOVIL		0, R45
		SMOVIL		-216, R46
		SMOVIL		-1, R47
		SADDA.M1		R47:R46,AR14,AR10
		SNOP		1
		SLDW		*AR10, R46
		SNOP		5
		SADD.M1		R44,R46,R42
		SMOVIL		-216, R48
		SMOVIL		-1, R49
		SADDA.M1		R49:R48,AR14,AR10
		SNOP		1
		SLDW		*AR10, R47
		SNOP		5
		SLTU		R42, R47, R46
		SMOVIL		-212, R48
		SMOVIL		-1, R49
		SADDA.M1		R49:R48,AR14,AR10
		SNOP		1
		SLDW		*AR10, R47
		SNOP		5
		SADD.M1		R45,R47,R43
		SADD.M1		R43,R46,R44
		SMOV.M1		R44, R43
		SMOV.M1		R42, R44
		SMOV.M1		R43, R45
		SADD.M1		R44,R44,R42
		SLTU		R42, R44, R46
		SADD.M1		R45,R45,R43
		SADD.M1		R43,R46,R44
		SMOV.M1		R44, R43
		SADD.M1		R42,R42,R44
		SLTU		R44, R42, R46
		SADD.M1		R43,R43,R45
		SADD.M1		R45,R46,R42
		SMOV.M1		R42, R45
		SMOV.M1		R44, R42
		SMOV.M1		R45, R43
	;no-op trunc di R43:R42 to pdi R43:R42
		SMOVIL		-168, R46
		SMOVIL		-1, R47
		SADDA.M1		R47:R46,AR14,AR10
		SNOP		1
		SLDDW		*AR10, R45:R44
		SNOP		5
		SMVAGA36.M1		R45:R44, OR11
		SNOP		1
		SADDA.M1		R43:R42,OR11,OR11
		SNOP		1
		SMVAAGL.M1		OR11, R43:R42
		SNOP		1
		SMVAAGH.M1		OR11, R43:R42
		SNOP		1
		SMVAGA36.M1		R43:R42, AR10
		SNOP		1
		SLDW		*AR10, R42
		SNOP		5
		SVBCAST.M1 		 R42,VR3
		SNOP		3
		VSTW.LS 		VR3,*+AR7[112]
	.loc 1 76 0
		SMOVIL		-68, R42
		SMOVIL		-1, R43
		SADDA.M1		R43:R42,AR14,AR10
		SNOP		1
		SLDW		*AR10, R44
		SNOP		5
		SMOVIL		-224, R42
		SMOVIL		-1, R43
		SADDA.M1		R43:R42,AR14,AR10
		SNOP		1
		SSTW		R44, *AR10
		SMOVIL		-68, R44
		SMOVIL		-1, R45
		SADDA.M1		R45:R44,AR14,AR10
		SNOP		1
		SLDW		*AR10, R42
		SNOP		5
		SSHFAR		31, R42, R42
		SMOVIL		-220, R44
		SMOVIL		-1, R45
		SADDA.M1		R45:R44,AR14,AR10
		SNOP		1
		SSTW		R42, *AR10
		SMOVIL		2, R44
		SMOVIL		0, R45
		SMOVIL		-224, R46
		SMOVIL		-1, R47
		SADDA.M1		R47:R46,AR14,AR10
		SNOP		1
		SLDW		*AR10, R46
		SNOP		5
		SADD.M1		R44,R46,R42
		SMOVIL		-224, R48
		SMOVIL		-1, R49
		SADDA.M1		R49:R48,AR14,AR10
		SNOP		1
		SLDW		*AR10, R47
		SNOP		5
		SLTU		R42, R47, R46
		SMOVIL		-220, R48
		SMOVIL		-1, R49
		SADDA.M1		R49:R48,AR14,AR10
		SNOP		1
		SLDW		*AR10, R47
		SNOP		5
		SADD.M1		R45,R47,R43
		SADD.M1		R43,R46,R44
		SMOV.M1		R44, R43
		SMOV.M1		R42, R44
		SMOV.M1		R43, R45
		SADD.M1		R44,R44,R42
		SLTU		R42, R44, R46
		SADD.M1		R45,R45,R43
		SADD.M1		R43,R46,R44
		SMOV.M1		R44, R43
		SADD.M1		R42,R42,R44
		SLTU		R44, R42, R46
		SADD.M1		R43,R43,R45
		SADD.M1		R45,R46,R42
		SMOV.M1		R42, R45
		SMOV.M1		R44, R42
		SMOV.M1		R45, R43
	;no-op trunc di R43:R42 to pdi R43:R42
		SMOVIL		-168, R46
		SMOVIL		-1, R47
		SADDA.M1		R47:R46,AR14,AR10
		SNOP		1
		SLDDW		*AR10, R45:R44
		SNOP		5
		SMVAGA36.M1		R45:R44, OR11
		SNOP		1
		SADDA.M1		R43:R42,OR11,OR11
		SNOP		1
		SMVAAGL.M1		OR11, R43:R42
		SNOP		1
		SMVAAGH.M1		OR11, R43:R42
		SNOP		1
		SMVAGA36.M1		R43:R42, AR10
		SNOP		1
		SLDW		*AR10, R42
		SNOP		5
		SVBCAST.M1 		 R42,VR3
		SNOP		3
		VSTW.LS 		VR3,*+AR7[96]
	.loc 1 77 0
		SMOVIL		-68, R42
		SMOVIL		-1, R43
		SADDA.M1		R43:R42,AR14,AR10
		SNOP		1
		SLDW		*AR10, R44
		SNOP		5
		SMOVIL		-232, R42
		SMOVIL		-1, R43
		SADDA.M1		R43:R42,AR14,AR10
		SNOP		1
		SSTW		R44, *AR10
		SMOVIL		-68, R44
		SMOVIL		-1, R45
		SADDA.M1		R45:R44,AR14,AR10
		SNOP		1
		SLDW		*AR10, R42
		SNOP		5
		SSHFAR		31, R42, R42
		SMOVIL		-228, R44
		SMOVIL		-1, R45
		SADDA.M1		R45:R44,AR14,AR10
		SNOP		1
		SSTW		R42, *AR10
		SMOVIL		3, R44
		SMOVIL		0, R45
		SMOVIL		-232, R46
		SMOVIL		-1, R47
		SADDA.M1		R47:R46,AR14,AR10
		SNOP		1
		SLDW		*AR10, R46
		SNOP		5
		SADD.M1		R44,R46,R42
		SMOVIL		-232, R48
		SMOVIL		-1, R49
		SADDA.M1		R49:R48,AR14,AR10
		SNOP		1
		SLDW		*AR10, R47
		SNOP		5
		SLTU		R42, R47, R46
		SMOVIL		-228, R48
		SMOVIL		-1, R49
		SADDA.M1		R49:R48,AR14,AR10
		SNOP		1
		SLDW		*AR10, R47
		SNOP		5
		SADD.M1		R45,R47,R43
		SADD.M1		R43,R46,R44
		SMOV.M1		R44, R43
		SMOV.M1		R42, R44
		SMOV.M1		R43, R45
		SADD.M1		R44,R44,R42
		SLTU		R42, R44, R46
		SADD.M1		R45,R45,R43
		SADD.M1		R43,R46,R44
		SMOV.M1		R44, R43
		SADD.M1		R42,R42,R44
		SLTU		R44, R42, R46
		SADD.M1		R43,R43,R45
		SADD.M1		R45,R46,R42
		SMOV.M1		R42, R45
		SMOV.M1		R44, R42
		SMOV.M1		R45, R43
	;no-op trunc di R43:R42 to pdi R43:R42
		SMOVIL		-168, R46
		SMOVIL		-1, R47
		SADDA.M1		R47:R46,AR14,AR10
		SNOP		1
		SLDDW		*AR10, R45:R44
		SNOP		5
		SMVAGA36.M1		R45:R44, OR11
		SNOP		1
		SADDA.M1		R43:R42,OR11,OR11
		SNOP		1
		SMVAAGL.M1		OR11, R43:R42
		SNOP		1
		SMVAAGH.M1		OR11, R43:R42
		SNOP		1
		SMVAGA36.M1		R43:R42, AR10
		SNOP		1
		SLDW		*AR10, R42
		SNOP		5
		SVBCAST.M1 		 R42,VR3
		SNOP		3
		VSTW.LS 		VR3,*+AR7[80]
	.loc 1 78 0
		SMOVIL		-68, R42
		SMOVIL		-1, R43
		SADDA.M1		R43:R42,AR14,AR10
		SNOP		1
		SLDW		*AR10, R32
		SNOP		5
		SMOVIL		-68, R44
		SMOVIL		-1, R45
		SADDA.M1		R45:R44,AR14,AR10
		SNOP		1
		SLDW		*AR10, R42
		SNOP		5
		SSHFAR		31, R42, R42
		SMOV.M1		R42, R33
		SADD.M1		R32,R32,R42
		SLTU		R42, R32, R44
		SADD.M1		R33,R33,R43
		SADD.M1		R43,R44,R44
		SMOV.M1		R44, R43
		SADD.M1		R42,R42,R44
		SLTU		R44, R42, R46
		SADD.M1		R43,R43,R45
		SADD.M1		R45,R46,R42
		SMOV.M1		R42, R45
		SMOV.M1		R44, R42
		SMOV.M1		R45, R43
	;no-op trunc di R43:R42 to pdi R43:R42
		SMOVIL		-136, R46
		SMOVIL		-1, R47
		SADDA.M1		R47:R46,AR14,AR10
		SNOP		1
		SLDDW		*AR10, R45:R44
		SNOP		5
		SMVAGA36.M1		R45:R44, OR11
		SNOP		1
		SADDA.M1		R43:R42,OR11,OR11
		SNOP		1
		SMVAAGL.M1		OR11, R43:R42
		SNOP		1
		SMVAAGH.M1		OR11, R43:R42
		SNOP		1
		SMOVIL		-152, R44
		SMOVIL		-1, R45
		SADDA.M1		R45:R44,AR14,AR10
		SNOP		1
		SSTDW		R43:R42, *AR10
	.loc 1 79 0
		SMOVIL		0, R42
		SMOVIL		-92, R44
		SMOVIL		-1, R45
		SADDA.M1		R45:R44,AR14,AR10
		SNOP		1
		SSTW		R42, *AR10
		SMOVIL		0, R42
		SMOVIL		-96, R44
		SMOVIL		-1, R45
		SADDA.M1		R45:R44,AR14,AR10
		SNOP		1
		SSTW		R42, *AR10
		SBR		.L15
		SNOP		6
.L16:
	.loc 1 80 0 discriminator 2
		SMOVIL		-96, R42
		SMOVIL		-1, R43
		SADDA.M1		R43:R42,AR14,AR10
		SNOP		1
		SLDW		*AR10, R44
		SNOP		5
		SMOVIL		-240, R42
		SMOVIL		-1, R43
		SADDA.M1		R43:R42,AR14,AR10
		SNOP		1
		SSTW		R44, *AR10
		SMOVIL		-96, R44
		SMOVIL		-1, R45
		SADDA.M1		R45:R44,AR14,AR10
		SNOP		1
		SLDW		*AR10, R42
		SNOP		5
		SSHFAR		31, R42, R42
		SMOVIL		-236, R44
		SMOVIL		-1, R45
		SADDA.M1		R45:R44,AR14,AR10
		SNOP		1
		SSTW		R42, *AR10
		SMOVIL		-240, R44
		SMOVIL		-1, R45
		SADDA.M1		R45:R44,AR14,AR10
		SNOP		1
		SLDW		*AR10, R43
		SNOP		5
		SSHFLR		26, R43, R42
		SMOVIL		-236, R44
		SMOVIL		-1, R45
		SADDA.M1		R45:R44,AR14,AR10
		SNOP		1
		SLDW		*AR10, R43
		SNOP		5
		SSHFLL		6, R43, R39
		SOR		R39, R42, R39
		SMOVIL		-240, R42
		SMOVIL		-1, R43
		SADDA.M1		R43:R42,AR14,AR10
		SNOP		1
		SLDW		*AR10, R42
		SNOP		5
		SSHFLL		6, R42, R38
		SMOV.M1		R38, R42
		SMOV.M1		R39, R43
	;no-op trunc di R43:R42 to pdi R43:R42
		SMOVIL		-176, R46
		SMOVIL		-1, R47
		SADDA.M1		R47:R46,AR14,AR10
		SNOP		1
		SLDDW		*AR10, R45:R44
		SNOP		5
		SMVAGA36.M1		R45:R44, OR11
		SNOP		1
		SADDA.M1		R43:R42,OR11,OR11
		SNOP		1
		SMVAAGL.M1		OR11, R43:R42
		SNOP		1
		SMVAAGH.M1		OR11, R43:R42
		SNOP		1
		SMVAGA36.M1		R43:R42, AR1
		SNOP		1
		VLDW.LS 		*AR1,VR3
		SNOP		7
		VSTW.LS 		VR3,*+AR7[64]
	.loc 1 81 0 discriminator 2
		SMOVIL		-152, R42
		SMOVIL		-1, R43
		SADDA.M1		R43:R42,AR14,AR10
		SNOP		1
		SLDDW		*AR10, R45:R44
		SNOP		5
		SMOVIL		-92, R42
		SMOVIL		-1, R43
		SADDA.M1		R43:R42,AR14,AR10
		SNOP		1
		SLDW		*AR10, R46
		SNOP		5
		SMOVIL		-256, R42
		SMOVIL		-1, R43
		SADDA.M1		R43:R42,AR14,AR10
		SNOP		1
		SSTW		R46, *AR10
		SMOVIL		-92, R46
		SMOVIL		-1, R47
		SADDA.M1		R47:R46,AR14,AR10
		SNOP		1
		SLDW		*AR10, R42
		SNOP		5
		SSHFAR		31, R42, R42
		SMOVIL		-252, R46
		SMOVIL		-1, R47
		SADDA.M1		R47:R46,AR14,AR10
		SNOP		1
		SSTW		R42, *AR10
		SMOVIL		-256, R46
		SMOVIL		-1, R47
		SADDA.M1		R47:R46,AR14,AR10
		SNOP		1
		SLDDW		*AR10, R43:R42
		SNOP		5
	;no-op trunc di R43:R42 to pdi R43:R42
		SSHFLR		30, R42, R46
		SSHFLL		2, R43, R47
		SMOVIL		-260, R48
		SMOVIL		-1, R49
		SADDA.M1		R49:R48,AR14,AR10
		SNOP		1
		SSTW		R47, *AR10
		SMOVIL		-260, R48
		SMOVIL		-1, R49
		SADDA.M1		R49:R48,AR14,AR10
		SNOP		1
		SLDW		*AR10, R47
		SNOP		5
		SOR		R47, R46, R47
		SMOVIL		-260, R48
		SMOVIL		-1, R49
		SADDA.M1		R49:R48,AR14,AR10
		SNOP		1
		SSTW		R47, *AR10
		SSHFLL		2, R42, R48
		SMOVIL		-264, R46
		SMOVIL		-1, R47
		SADDA.M1		R47:R46,AR14,AR10
		SNOP		1
		SSTW		R48, *AR10
		SMVAGA36.M1		R45:R44, OR11
		SNOP		1
		SMOVIL		-264, R46
		SMOVIL		-1, R47
		SADDA.M1		R47:R46,AR14,AR10
		SNOP		1
		SLDDW		*AR10, R47:R46
		SNOP		5
		SADDA.M1		R47:R46,OR11,OR11
		SNOP		1
		SMVAAGL.M1		OR11, R43:R42
		SNOP		1
		SMVAAGH.M1		OR11, R43:R42
		SNOP		1
		SMVAGA36.M1		R43:R42, AR1
		SNOP		1
		VLDW.LS 		*AR1,VR3
		SNOP		7
		VSTW.LS 		VR3,*+AR7[48]
	.loc 1 82 0 discriminator 2
		VLDW.LS 		*+AR7[48],VR3
		SNOP		7
		VLDW.LS 		*+AR7[128],VR4
		SNOP		7
		VLDW.LS 		*+AR7[64],VR5
		SNOP		7
		VMOV		VR5,	VR6
		VFMULAS32.M1	VR3,VR4,VR6,VR6
		SNOP		5
		VMOV		VR6,	VR3
		VSTW.LS 		VR3,*+AR7[64]
	.loc 1 84 0 discriminator 2
		SMOVIL		-92, R44
		SMOVIL		-1, R45
		SADDA.M1		R45:R44,AR14,AR10
		SNOP		1
		SLDW		*AR10, R42
		SNOP		5
		SADD.M1		1,R42,R42
		SMOVIL		-152, R46
		SMOVIL		-1, R47
		SADDA.M1		R47:R46,AR14,AR10
		SNOP		1
		SLDDW		*AR10, R45:R44
		SNOP		5
		SMOVIL		-272, R46
		SMOVIL		-1, R47
		SADDA.M1		R47:R46,AR14,AR10
		SNOP		1
		SSTW		R42, *AR10
		SSHFAR		31, R42, R42
		SMOVIL		-268, R46
		SMOVIL		-1, R47
		SADDA.M1		R47:R46,AR14,AR10
		SNOP		1
		SSTW		R42, *AR10
		SMOVIL		-272, R46
		SMOVIL		-1, R47
		SADDA.M1		R47:R46,AR14,AR10
		SNOP		1
		SLDDW		*AR10, R43:R42
		SNOP		5
	;no-op trunc di R43:R42 to pdi R43:R42
		SSHFLR		30, R42, R46
		SSHFLL		2, R43, R47
		SMOVIL		-276, R48
		SMOVIL		-1, R49
		SADDA.M1		R49:R48,AR14,AR10
		SNOP		1
		SSTW		R47, *AR10
		SMOVIL		-276, R48
		SMOVIL		-1, R49
		SADDA.M1		R49:R48,AR14,AR10
		SNOP		1
		SLDW		*AR10, R47
		SNOP		5
		SOR		R47, R46, R47
		SMOVIL		-276, R48
		SMOVIL		-1, R49
		SADDA.M1		R49:R48,AR14,AR10
		SNOP		1
		SSTW		R47, *AR10
		SSHFLL		2, R42, R48
		SMOVIL		-280, R46
		SMOVIL		-1, R47
		SADDA.M1		R47:R46,AR14,AR10
		SNOP		1
		SSTW		R48, *AR10
		SMVAGA36.M1		R45:R44, OR11
		SNOP		1
		SMOVIL		-280, R46
		SMOVIL		-1, R47
		SADDA.M1		R47:R46,AR14,AR10
		SNOP		1
		SLDDW		*AR10, R47:R46
		SNOP		5
		SADDA.M1		R47:R46,OR11,OR11
		SNOP		1
		SMVAAGL.M1		OR11, R43:R42
		SNOP		1
		SMVAAGH.M1		OR11, R43:R42
		SNOP		1
		SMVAGA36.M1		R43:R42, AR1
		SNOP		1
		VLDW.LS 		*AR1,VR3
		SNOP		7
		VSTW.LS 		VR3,*+AR7[32]
	.loc 1 85 0 discriminator 2
		VLDW.LS 		*+AR7[32],VR3
		SNOP		7
		VLDW.LS 		*+AR7[112],VR4
		SNOP		7
		VLDW.LS 		*+AR7[64],VR5
		SNOP		7
		VMOV		VR5,	VR6
		VFMULAS32.M1	VR3,VR4,VR6,VR6
		SNOP		5
		VMOV		VR6,	VR3
		VSTW.LS 		VR3,*+AR7[64]
	.loc 1 87 0 discriminator 2
		SMOVIL		-92, R44
		SMOVIL		-1, R45
		SADDA.M1		R45:R44,AR14,AR10
		SNOP		1
		SLDW		*AR10, R42
		SNOP		5
		SADD.M1		2,R42,R42
		SMOVIL		-152, R46
		SMOVIL		-1, R47
		SADDA.M1		R47:R46,AR14,AR10
		SNOP		1
		SLDDW		*AR10, R45:R44
		SNOP		5
		SMOVIL		-288, R46
		SMOVIL		-1, R47
		SADDA.M1		R47:R46,AR14,AR10
		SNOP		1
		SSTW		R42, *AR10
		SSHFAR		31, R42, R42
		SMOVIL		-284, R46
		SMOVIL		-1, R47
		SADDA.M1		R47:R46,AR14,AR10
		SNOP		1
		SSTW		R42, *AR10
		SMOVIL		-288, R46
		SMOVIL		-1, R47
		SADDA.M1		R47:R46,AR14,AR10
		SNOP		1
		SLDDW		*AR10, R43:R42
		SNOP		5
	;no-op trunc di R43:R42 to pdi R43:R42
		SSHFLR		30, R42, R46
		SSHFLL		2, R43, R47
		SMOVIL		-292, R48
		SMOVIL		-1, R49
		SADDA.M1		R49:R48,AR14,AR10
		SNOP		1
		SSTW		R47, *AR10
		SMOVIL		-292, R48
		SMOVIL		-1, R49
		SADDA.M1		R49:R48,AR14,AR10
		SNOP		1
		SLDW		*AR10, R47
		SNOP		5
		SOR		R47, R46, R47
		SMOVIL		-292, R48
		SMOVIL		-1, R49
		SADDA.M1		R49:R48,AR14,AR10
		SNOP		1
		SSTW		R47, *AR10
		SSHFLL		2, R42, R48
		SMOVIL		-296, R46
		SMOVIL		-1, R47
		SADDA.M1		R47:R46,AR14,AR10
		SNOP		1
		SSTW		R48, *AR10
		SMVAGA36.M1		R45:R44, OR11
		SNOP		1
		SMOVIL		-296, R46
		SMOVIL		-1, R47
		SADDA.M1		R47:R46,AR14,AR10
		SNOP		1
		SLDDW		*AR10, R47:R46
		SNOP		5
		SADDA.M1		R47:R46,OR11,OR11
		SNOP		1
		SMVAAGL.M1		OR11, R43:R42
		SNOP		1
		SMVAAGH.M1		OR11, R43:R42
		SNOP		1
		SMVAGA36.M1		R43:R42, AR1
		SNOP		1
		VLDW.LS 		*AR1,VR3
		SNOP		7
		VSTW.LS 		VR3,*+AR7[16]
	.loc 1 88 0 discriminator 2
		VLDW.LS 		*+AR7[16],VR3
		SNOP		7
		VLDW.LS 		*+AR7[96],VR4
		SNOP		7
		VLDW.LS 		*+AR7[64],VR5
		SNOP		7
		VMOV		VR5,	VR6
		VFMULAS32.M1	VR3,VR4,VR6,VR6
		SNOP		5
		VMOV		VR6,	VR3
		VSTW.LS 		VR3,*+AR7[64]
	.loc 1 90 0 discriminator 2
		SMOVIL		-92, R44
		SMOVIL		-1, R45
		SADDA.M1		R45:R44,AR14,AR10
		SNOP		1
		SLDW		*AR10, R42
		SNOP		5
		SADD.M1		3,R42,R42
		SMOVIL		-152, R46
		SMOVIL		-1, R47
		SADDA.M1		R47:R46,AR14,AR10
		SNOP		1
		SLDDW		*AR10, R45:R44
		SNOP		5
		SMOVIL		-304, R46
		SMOVIL		-1, R47
		SADDA.M1		R47:R46,AR14,AR10
		SNOP		1
		SSTW		R42, *AR10
		SSHFAR		31, R42, R42
		SMOVIL		-300, R46
		SMOVIL		-1, R47
		SADDA.M1		R47:R46,AR14,AR10
		SNOP		1
		SSTW		R42, *AR10
		SMOVIL		-304, R46
		SMOVIL		-1, R47
		SADDA.M1		R47:R46,AR14,AR10
		SNOP		1
		SLDDW		*AR10, R43:R42
		SNOP		5
	;no-op trunc di R43:R42 to pdi R43:R42
		SSHFLR		30, R42, R46
		SSHFLL		2, R43, R47
		SMOVIL		-308, R48
		SMOVIL		-1, R49
		SADDA.M1		R49:R48,AR14,AR10
		SNOP		1
		SSTW		R47, *AR10
		SMOVIL		-308, R48
		SMOVIL		-1, R49
		SADDA.M1		R49:R48,AR14,AR10
		SNOP		1
		SLDW		*AR10, R47
		SNOP		5
		SOR		R47, R46, R47
		SMOVIL		-308, R48
		SMOVIL		-1, R49
		SADDA.M1		R49:R48,AR14,AR10
		SNOP		1
		SSTW		R47, *AR10
		SSHFLL		2, R42, R48
		SMOVIL		-312, R46
		SMOVIL		-1, R47
		SADDA.M1		R47:R46,AR14,AR10
		SNOP		1
		SSTW		R48, *AR10
		SMVAGA36.M1		R45:R44, OR11
		SNOP		1
		SMOVIL		-312, R46
		SMOVIL		-1, R47
		SADDA.M1		R47:R46,AR14,AR10
		SNOP		1
		SLDDW		*AR10, R47:R46
		SNOP		5
		SADDA.M1		R47:R46,OR11,OR11
		SNOP		1
		SMVAAGL.M1		OR11, R43:R42
		SNOP		1
		SMVAAGH.M1		OR11, R43:R42
		SNOP		1
		SMVAGA36.M1		R43:R42, AR1
		SNOP		1
		VLDW.LS 		*AR1,VR3
		SNOP		7
		VSTW.LS 		VR3,*AR7
	.loc 1 91 0 discriminator 2
		VLDW.LS 		*AR7,VR3
		SNOP		7
		VLDW.LS 		*+AR7[80],VR4
		SNOP		7
		VLDW.LS 		*+AR7[64],VR5
		SNOP		7
		VMOV		VR5,	VR6
		VFMULAS32.M1	VR3,VR4,VR6,VR6
		SNOP		5
		VMOV		VR6,	VR3
		VSTW.LS 		VR3,*+AR7[64]
	.loc 1 92 0 discriminator 2
		SMOVIL		-96, R42
		SMOVIL		-1, R43
		SADDA.M1		R43:R42,AR14,AR10
		SNOP		1
		SLDW		*AR10, R44
		SNOP		5
		SMOVIL		-248, R42
		SMOVIL		-1, R43
		SADDA.M1		R43:R42,AR14,AR10
		SNOP		1
		SSTW		R44, *AR10
		SMOVIL		-96, R44
		SMOVIL		-1, R45
		SADDA.M1		R45:R44,AR14,AR10
		SNOP		1
		SLDW		*AR10, R42
		SNOP		5
		SSHFAR		31, R42, R42
		SMOVIL		-244, R44
		SMOVIL		-1, R45
		SADDA.M1		R45:R44,AR14,AR10
		SNOP		1
		SSTW		R42, *AR10
		SMOVIL		-248, R44
		SMOVIL		-1, R45
		SADDA.M1		R45:R44,AR14,AR10
		SNOP		1
		SLDW		*AR10, R43
		SNOP		5
		SSHFLR		26, R43, R42
		SMOVIL		-244, R44
		SMOVIL		-1, R45
		SADDA.M1		R45:R44,AR14,AR10
		SNOP		1
		SLDW		*AR10, R43
		SNOP		5
		SSHFLL		6, R43, R41
		SOR		R41, R42, R41
		SMOVIL		-248, R42
		SMOVIL		-1, R43
		SADDA.M1		R43:R42,AR14,AR10
		SNOP		1
		SLDW		*AR10, R42
		SNOP		5
		SSHFLL		6, R42, R40
		SMOV.M1		R40, R42
		SMOV.M1		R41, R43
	;no-op trunc di R43:R42 to pdi R43:R42
		SMOVIL		-176, R46
		SMOVIL		-1, R47
		SADDA.M1		R47:R46,AR14,AR10
		SNOP		1
		SLDDW		*AR10, R45:R44
		SNOP		5
		SMVAGA36.M1		R45:R44, OR11
		SNOP		1
		SADDA.M1		R43:R42,OR11,OR11
		SNOP		1
		SMVAAGL.M1		OR11, R43:R42
		SNOP		1
		SMVAAGH.M1		OR11, R43:R42
		SNOP		1
		VLDW.LS 		*+AR7[64],VR3
		SNOP		7
		SMVAGA36.M1		R43:R42, AR1
		SNOP		1
		VSTW.LS 		VR3,*AR1
	.loc 1 79 0 discriminator 2
		SMOVIL		-92, R44
		SMOVIL		-1, R45
		SADDA.M1		R45:R44,AR14,AR10
		SNOP		1
		SLDW		*AR10, R42
		SNOP		5
		SADD.M1		16,R42,R42
		SMOVIL		-92, R44
		SMOVIL		-1, R45
		SADDA.M1		R45:R44,AR14,AR10
		SNOP		1
		SSTW		R42, *AR10
		SMOVIL		-96, R44
		SMOVIL		-1, R45
		SADDA.M1		R45:R44,AR14,AR10
		SNOP		1
		SLDW		*AR10, R42
		SNOP		5
		SADD.M1		1,R42,R42
		SMOVIL		-96, R44
		SMOVIL		-1, R45
		SADDA.M1		R45:R44,AR14,AR10
		SNOP		1
		SSTW		R42, *AR10
.L15:
	.loc 1 79 0 is_stmt 0 discriminator 1
		SMOVIL		-128, R42
		SMOVIL		-1, R43
		SMOVIL		-64, R44
		SMOVIL		-1, R45
		SADDA.M1		R45:R44,AR14,OR11
		SNOP		1
		SADDA.M1		R43:R42,OR11,OR11
		SNOP		1
		SMVAAGL.M1		OR11, R43:R42
		SNOP		1
		SMVAAGH.M1		OR11, R43:R42
		SNOP		1
		SMOVIL		-92, R46
		SMOVIL		-1, R47
		SADDA.M1		R47:R46,AR14,AR10
		SNOP		1
		SLDW		*AR10, R44
		SNOP		5
		SMVAGA36.M1		R43:R42, AR10
		SNOP		1
		SLDW		*AR10, R42
		SNOP		5
		SLT		R44, R42, R42
		SMOV.M1		R42, R0
	[R0]	SBR		.L16
		SNOP		6
	.loc 1 73 0 is_stmt 1
		SMOVIL		-68, R44
		SMOVIL		-1, R45
		SADDA.M1		R45:R44,AR14,AR10
		SNOP		1
		SLDW		*AR10, R42
		SNOP		5
		SADD.M1		4,R42,R42
		SMOVIL		-68, R44
		SMOVIL		-1, R45
		SADDA.M1		R45:R44,AR14,AR10
		SNOP		1
		SSTW		R42, *AR10
.L14:
	.loc 1 73 0 is_stmt 0 discriminator 1
		SMOVIL		-124, R42
		SMOVIL		-1, R43
		SMOVIL		-64, R44
		SMOVIL		-1, R45
		SADDA.M1		R45:R44,AR14,OR11
		SNOP		1
		SADDA.M1		R43:R42,OR11,OR11
		SNOP		1
		SMVAAGL.M1		OR11, R43:R42
		SNOP		1
		SMVAAGH.M1		OR11, R43:R42
		SNOP		1
		SMOVIL		-68, R46
		SMOVIL		-1, R47
		SADDA.M1		R47:R46,AR14,AR10
		SNOP		1
		SLDW		*AR10, R44
		SNOP		5
		SMVAGA36.M1		R43:R42, AR10
		SNOP		1
		SLDW		*AR10, R42
		SNOP		5
		SLT		R44, R42, R42
		SMOV.M1		R42, R0
	[R0]	SBR		.L17
		SNOP		6
	.loc 1 95 0 is_stmt 1
		SMOVIL		-128, R42
		SMOVIL		-1, R43
		SADDA.M1		R43:R42,AR14,AR10
		SNOP		1
		SLDDW		*AR10, R11:R10
		SNOP		5
		SBR		vfree
		SMOVIL		.L20, R62
		SMOVIH		.L20, R62
		SMOVIH4.L		.L20, R63
		SNOP		4
.L20:
	.loc 1 96 0
		SMOVIL		704, R6
		SMOVIL		0, R7
		SADDA.M1		R7:R6,AR7,AR7
		SNOP		2
		SLDDW		*+AR15[32], R31:R30
		SNOP		5
		SLDDW		*+AR15[33], R33:R32
		SNOP		5
		SLDDW		*+AR15[34], R35:R34
		SNOP		5
		SLDDW		*+AR15[35], R37:R36
		SNOP		5
		SLDDW		*+AR15[36], R39:R38
		SNOP		5
		SLDDW		*+AR15[37], R41:R40
		SNOP		5
		SLDDW		*+AR15[38], R63:R62
		SNOP		5
		SADDA.M1		-16,AR14,AR15
		SNOP		1
		SLDDW		*++AR15[2], R7:R6
		SNOP		5
		SMVAGA36.M1		R7:R6, AR14
		SNOP		1
		SMVCGC.L		R63, BRReg
		SNOP		1
		SBR		R62
		SNOP		6
	.cfi_endproc
.LFE3:
	.size	DSPF_sp_fircirc_vc, .-DSPF_sp_fircirc_vc
.text;
.Letext0: