	.file	"main.c"
.text;
.Ltext0:
	.cfi_sections	.debug_frame
	.global	xAddr_DDR_cn
	.section	.fardata,"aw",@progbits
	.align	3
	.type	xAddr_DDR_cn, @object
	.size	xAddr_DDR_cn, 576
xAddr_DDR_cn:
	.short	30434
	.short	-29938
	.short	18953
	.short	-17867
	.short	-5342
	.short	-6421
	.short	-29489
	.short	-8335
	.short	-21809
	.short	15586
	.short	-21030
	.short	15991
	.short	-29529
	.short	27715
	.short	3944
	.short	-13066
	.short	23050
	.short	-12933
	.short	-31849
	.short	-23108
	.short	-20074
	.short	-27076
	.short	25032
	.short	-7110
	.short	7307
	.short	22002
	.short	12985
	.short	-19491
	.short	-7064
	.short	25806
	.short	16169
	.short	10261
	.short	-26165
	.short	-32450
	.short	-13641
	.short	-8143
	.short	-5804
	.short	-29966
	.short	-26301
	.short	10112
	.short	-29247
	.short	11288
	.short	-24342
	.short	25457
	.short	-28621
	.short	12063
	.short	-3219
	.short	-18062
	.short	23366
	.short	-26569
	.short	24585
	.short	29524
	.short	31931
	.short	-13490
	.short	19807
	.short	-28444
	.short	10161
	.short	-13325
	.short	-11059
	.short	-13741
	.short	-11353
	.short	-8874
	.short	-4238
	.short	-31122
	.short	25467
	.short	27877
	.short	2125
	.short	14949
	.short	-13683
	.short	17872
	.short	-30115
	.short	-19898
	.short	795
	.short	-17276
	.short	-19455
	.short	-25150
	.short	-19835
	.short	-7565
	.short	27801
	.short	-6618
	.short	15754
	.short	24137
	.short	1858
	.short	-9501
	.short	29832
	.short	24055
	.short	14013
	.short	-23450
	.short	-16801
	.short	-29269
	.short	26183
	.short	-12417
	.short	-30067
	.short	-16395
	.short	16001
	.short	-31107
	.short	7378
	.short	4355
	.short	-2103
	.short	-29937
	.short	-20851
	.short	932
	.short	8894
	.short	31939
	.short	29596
	.short	-25336
	.short	-13857
	.short	-19798
	.short	5471
	.short	11581
	.short	31148
	.short	-10447
	.short	-27052
	.short	627
	.short	-27262
	.short	23657
	.short	-17349
	.short	-18089
	.short	13889
	.short	10559
	.short	13619
	.short	-27430
	.short	7785
	.short	-6749
	.short	-11174
	.short	-14293
	.short	-30888
	.short	-1341
	.short	32464
	.short	16024
	.short	20012
	.short	15376
	.short	-8493
	.short	272
	.short	13926
	.short	-11912
	.short	-27005
	.short	-10525
	.short	14884
	.short	8937
	.short	-865
	.short	-12929
	.short	15845
	.short	8499
	.short	28133
	.short	-10765
	.short	-31063
	.short	-30715
	.short	-31083
	.short	21679
	.short	-7763
	.short	23534
	.short	-31378
	.short	-32159
	.short	82
	.short	-24419
	.short	-13394
	.short	-24840
	.short	501
	.short	21217
	.short	-7467
	.short	-14172
	.short	22007
	.short	-18264
	.short	4385
	.short	26643
	.short	-6794
	.short	-17181
	.short	4370
	.short	-19788
	.short	16496
	.short	19519
	.short	21511
	.short	-1641
	.short	-27834
	.short	-11412
	.short	-8226
	.short	17034
	.short	-19305
	.short	32345
	.short	20823
	.short	28093
	.short	8416
	.short	9205
	.short	3440
	.short	13502
	.short	-31615
	.short	29775
	.short	-11223
	.short	19644
	.short	-15078
	.short	-16875
	.short	-24831
	.short	-11481
	.short	-31640
	.short	-3816
	.short	15670
	.short	-29907
	.short	-3860
	.short	19621
	.short	-4632
	.short	-12739
	.short	14852
	.short	-2644
	.short	24245
	.short	8583
	.short	31694
	.short	1916
	.short	-771
	.short	-8327
	.short	-13941
	.short	-6812
	.short	-7553
	.short	-7358
	.short	-18278
	.short	-2093
	.short	20281
	.short	-17902
	.short	-3048
	.short	823
	.short	28491
	.short	5079
	.short	19205
	.short	21665
	.short	9108
	.short	20512
	.short	-896
	.short	-28354
	.short	-32174
	.short	-30563
	.short	8169
	.short	-5154
	.short	-26972
	.short	2013
	.short	-27234
	.short	31152
	.short	22251
	.short	-2259
	.short	-22915
	.short	-12349
	.short	-17116
	.short	17278
	.short	2247
	.short	-6842
	.short	-882
	.short	32574
	.short	23418
	.short	-31321
	.short	22025
	.short	-12387
	.short	-1259
	.short	28375
	.short	-25612
	.short	12937
	.short	20535
	.short	1091
	.short	-25811
	.short	7825
	.short	3552
	.short	24795
	.short	-2956
	.short	-21435
	.short	2605
	.short	-16434
	.short	18504
	.short	31123
	.short	22399
	.short	30155
	.short	10023
	.short	-30325
	.short	-3629
	.short	10113
	.short	-13167
	.short	-15910
	.short	12042
	.short	-27841
	.short	-7420
	.short	-31694
	.short	30210
	.short	19635
	.short	-7264
	.short	-1473
	.short	29626
	.short	28525
	.short	-20156
	.short	-21710
	.short	23601
	.short	32157
	.global	hAddr_DDR
	.align	3
	.type	hAddr_DDR, @object
	.size	hAddr_DDR, 576
hAddr_DDR:
	.short	30434
	.short	-29938
	.short	18953
	.short	-17867
	.short	-5342
	.short	-6421
	.short	-29489
	.short	-8335
	.short	-21809
	.short	15586
	.short	-21030
	.short	15991
	.short	-29529
	.short	27715
	.short	3944
	.short	-13066
	.short	23050
	.short	-12933
	.short	-31849
	.short	-23108
	.short	-20074
	.short	-27076
	.short	25032
	.short	-7110
	.short	7307
	.short	22002
	.short	12985
	.short	-19491
	.short	-7064
	.short	25806
	.short	16169
	.short	10261
	.short	-26165
	.short	-32450
	.short	-13641
	.short	-8143
	.short	-5804
	.short	-29966
	.short	-26301
	.short	10112
	.short	-29247
	.short	11288
	.short	-24342
	.short	25457
	.short	-28621
	.short	12063
	.short	-3219
	.short	-18062
	.short	23366
	.short	-26569
	.short	24585
	.short	29524
	.short	31931
	.short	-13490
	.short	19807
	.short	-28444
	.short	10161
	.short	-13325
	.short	-11059
	.short	-13741
	.short	-11353
	.short	-8874
	.short	-4238
	.short	-31122
	.short	25467
	.short	27877
	.short	2125
	.short	14949
	.short	-13683
	.short	17872
	.short	-30115
	.short	-19898
	.short	795
	.short	-17276
	.short	-19455
	.short	-25150
	.short	-19835
	.short	-7565
	.short	27801
	.short	-6618
	.short	15754
	.short	24137
	.short	1858
	.short	-9501
	.short	29832
	.short	24055
	.short	14013
	.short	-23450
	.short	-16801
	.short	-29269
	.short	26183
	.short	-12417
	.short	-30067
	.short	-16395
	.short	16001
	.short	-31107
	.short	7378
	.short	4355
	.short	-2103
	.short	-29937
	.short	-20851
	.short	932
	.short	8894
	.short	31939
	.short	29596
	.short	-25336
	.short	-13857
	.short	-19798
	.short	5471
	.short	11581
	.short	31148
	.short	-10447
	.short	-27052
	.short	627
	.short	-27262
	.short	23657
	.short	-17349
	.short	-18089
	.short	13889
	.short	10559
	.short	13619
	.short	-27430
	.short	7785
	.short	-6749
	.short	-11174
	.short	-14293
	.short	-30888
	.short	-1341
	.short	32464
	.short	16024
	.short	20012
	.short	15376
	.short	-8493
	.short	272
	.short	13926
	.short	-11912
	.short	-27005
	.short	-10525
	.short	14884
	.short	8937
	.short	-865
	.short	-12929
	.short	15845
	.short	8499
	.short	28133
	.short	-10765
	.short	-31063
	.short	-30715
	.short	-31083
	.short	21679
	.short	-7763
	.short	23534
	.short	-31378
	.short	-32159
	.short	82
	.short	-24419
	.short	-13394
	.short	-24840
	.short	501
	.short	21217
	.short	-7467
	.short	-14172
	.short	22007
	.short	-18264
	.short	4385
	.short	26643
	.short	-6794
	.short	-17181
	.short	4370
	.short	-19788
	.short	16496
	.short	19519
	.short	21511
	.short	-1641
	.short	-27834
	.short	-11412
	.short	-8226
	.short	17034
	.short	-19305
	.short	32345
	.short	20823
	.short	28093
	.short	8416
	.short	9205
	.short	3440
	.short	13502
	.short	-31615
	.short	29775
	.short	-11223
	.short	19644
	.short	-15078
	.short	-16875
	.short	-24831
	.short	-11481
	.short	-31640
	.short	-3816
	.short	15670
	.short	-29907
	.short	-3860
	.short	19621
	.short	-4632
	.short	-12739
	.short	14852
	.short	-2644
	.short	24245
	.short	8583
	.short	31694
	.short	1916
	.short	-771
	.short	-8327
	.short	-13941
	.short	-6812
	.short	-7553
	.short	-7358
	.short	-18278
	.short	-2093
	.short	20281
	.short	-17902
	.short	-3048
	.short	823
	.short	28491
	.short	5079
	.short	19205
	.short	21665
	.short	9108
	.short	20512
	.short	-896
	.short	-28354
	.short	-32174
	.short	-30563
	.short	8169
	.short	-5154
	.short	-26972
	.short	2013
	.short	-27234
	.short	31152
	.short	22251
	.short	-2259
	.short	-22915
	.short	-12349
	.short	-17116
	.short	17278
	.short	2247
	.short	-6842
	.short	-882
	.short	32574
	.short	23418
	.short	-31321
	.short	22025
	.short	-12387
	.short	-1259
	.short	28375
	.short	-25612
	.short	12937
	.short	20535
	.short	1091
	.short	-25811
	.short	7825
	.short	3552
	.short	24795
	.short	-2956
	.short	-21435
	.short	2605
	.short	-16434
	.short	18504
	.short	31123
	.short	22399
	.short	30155
	.short	10023
	.short	-30325
	.short	-3629
	.short	10113
	.short	-13167
	.short	-15910
	.short	12042
	.short	-27841
	.short	-7420
	.short	-31694
	.short	30210
	.short	19635
	.short	-7264
	.short	-1473
	.short	29626
	.short	28525
	.short	-20156
	.short	-21710
	.short	23601
	.short	32157
	.global	b
	.section	.neardata,"aw",@progbits
	.align	1
	.type	b, @object
	.size	b, 2
b:
	.short	4096
	.global	memcpy
	.section	.const,"a",@progbits
.LC0:
	.string	"Result Failure "
.LC1:
	.string	"Result Successful "
.LC2:
	.string	"\tNH = %d\t  cn_cycle:%d\t  vc_cycle:%d\t\n"
	.section	.text.main,"ax",@progbits
	.align	2
	.global	main
	.type	main, @function
main:
.LFB3:
	.file 1 "../main.c"
	.loc 1 93 0
	.cfi_startproc
		SMVAAGL.M1		AR14, R7:R6
		SNOP		1
		SMVAAGH.M1		AR14, R7:R6
		SNOP		1
		SSTDW		R7:R6, *AR15--[2]
.LCFI0:
	.cfi_def_cfa_offset 16
	.cfi_offset 14, 0
		SADDA.M1		16,AR15,AR14
.LCFI1:
	.cfi_def_cfa 14, 0
		SNOP		1
		SMOVIL		-1344, R6
		SMOVIL		-1, R7
		SADDA.M1		R7:R6,AR15,AR15
		SNOP		1
		SSTDW		R63:R62, *+AR15[168]
		SMVAAGL.M1		AR8, R7:R6
		SNOP		1
		SMVAAGH.M1		AR8, R7:R6
		SNOP		1
		SSTDW		R7:R6, *+AR15[167]
		SSTDW		R41:R40, *+AR15[166]
		SSTDW		R39:R38, *+AR15[165]
		SSTDW		R37:R36, *+AR15[164]
		SSTDW		R35:R34, *+AR15[163]
		SSTDW		R33:R32, *+AR15[162]
		SSTDW		R31:R30, *+AR15[161]
	.cfi_offset 78, -16
	.cfi_offset 79, -12
	.cfi_offset 8, -24
	.cfi_offset 56, -32
	.cfi_offset 57, -28
	.cfi_offset 54, -40
	.cfi_offset 55, -36
	.cfi_offset 52, -48
	.cfi_offset 53, -44
	.cfi_offset 50, -56
	.cfi_offset 51, -52
	.cfi_offset 48, -64
	.cfi_offset 49, -60
	.cfi_offset 46, -72
	.cfi_offset 47, -68
	.loc 1 94 0
		SMOVIL		1075052548, R42
		SMOVIH		1075052548, R42
		SMOVIL		0, R43
		SSTDW		R43:R42, *-AR14[11]
	.loc 1 95 0
		SMOVIL		1075052544, R42
		SMOVIH		1075052544, R42
		SMOVIL		0, R43
		SSTDW		R43:R42, *-AR14[12]
	.loc 1 97 0
		SLDDW		*-AR14[11], R43:R42
		SNOP		5
		SMOVIL		1, R44
		SMVAGA36.M1		R43:R42, AR10
		SNOP		1
		SSTW		R44, *AR10
	.loc 1 98 0
		SLDDW		*-AR14[12], R43:R42
		SNOP		5
		SMOVIL		1, R44
		SMVAGA36.M1		R43:R42, AR10
		SNOP		1
		SSTW		R44, *AR10
	.loc 1 99 0
		SLDDW		*-AR14[12], R43:R42
		SNOP		5
		SMVAGA36.M1		R43:R42, AR10
		SNOP		1
		SLDW		*AR10, R44
		SNOP		5
		SMOVIL		-84, R42
		SMOVIL		-1, R43
		SMOVIL		-72, R46
		SMOVIL		-1, R47
		SADDA.M1		R47:R46,AR14,OR11
		SNOP		1
		SADDA.M1		R43:R42,OR11,OR11
		SNOP		1
		SMVAAGL.M1		OR11, R43:R42
		SNOP		1
		SMVAAGH.M1		OR11, R43:R42
		SNOP		1
		SMVAGA36.M1		R43:R42, AR10
		SNOP		1
		SSTW		R44, *AR10
	.loc 1 100 0
		SBR		.L2
		SNOP		6
.L3:
	.loc 1 101 0
		SLDDW		*-AR14[12], R43:R42
		SNOP		5
		SMVAGA36.M1		R43:R42, AR10
		SNOP		1
		SLDW		*AR10, R44
		SNOP		5
		SMOVIL		-84, R42
		SMOVIL		-1, R43
		SMOVIL		-72, R46
		SMOVIL		-1, R47
		SADDA.M1		R47:R46,AR14,OR11
		SNOP		1
		SADDA.M1		R43:R42,OR11,OR11
		SNOP		1
		SMVAAGL.M1		OR11, R43:R42
		SNOP		1
		SMVAAGH.M1		OR11, R43:R42
		SNOP		1
		SMVAGA36.M1		R43:R42, AR10
		SNOP		1
		SSTW		R44, *AR10
.L2:
	.loc 1 100 0 discriminator 1
		SMOVIL		-84, R42
		SMOVIL		-1, R43
		SMOVIL		-72, R44
		SMOVIL		-1, R45
		SADDA.M1		R45:R44,AR14,OR11
		SNOP		1
		SADDA.M1		R43:R42,OR11,OR11
		SNOP		1
		SMVAAGL.M1		OR11, R43:R42
		SNOP		1
		SMVAAGH.M1		OR11, R43:R42
		SNOP		1
		SMVAGA36.M1		R43:R42, AR10
		SNOP		1
		SLDW		*AR10, R42
		SNOP		5
		SMOV.M1		R42, R0
	[R0]	SBR		.L3
		SNOP		6
	.loc 1 103 0
		SMOVIL		0, R10
		SMOVIL		-1, R12
		SBR		SetTimerPeriod
		SMOVIL		.L8, R62
		SMOVIH		.L8, R62
		SMOVIH4.L		.L8, R63
		SNOP		4
.L8:
	.loc 1 104 0
		SMOVIL		0, R10
		SBR		TimerStart
		SMOVIL		.L9, R62
		SMOVIH		.L9, R62
		SMOVIH4.L		.L9, R63
		SNOP		4
.L9:
	.loc 1 108 0
		SMOVIL		0, R10
		SBR		GetTimerCount
		SMOVIL		.L10, R62
		SMOVIH		.L10, R62
		SMOVIH4.L		.L10, R63
		SNOP		4
.L10:
		SMOVIL		-1316, R42
		SMOVIL		-1, R43
		SADDA.M1		R43:R42,AR14,AR10
		SNOP		1
		SSTW		R10, *AR10
		SMOVIL		0, R10
		SBR		GetTimerCount
		SMOVIL		.L11, R62
		SMOVIH		.L11, R62
		SMOVIH4.L		.L11, R63
		SNOP		4
.L11:
		SMOV.M1		R10, R42
		SMOVIL		-1316, R44
		SMOVIL		-1, R45
		SADDA.M1		R45:R44,AR14,AR10
		SNOP		1
		SLDW		*AR10, R43
		SNOP		5
		SSUB.M1		R42, R43, R42
		SMOVIL		-100, R44
		SMOVIL		-1, R45
		SADDA.M1		R45:R44,AR14,AR10
		SNOP		1
		SSTW		R42, *AR10
	.loc 1 116 0
		SMOVIL		20, R42
		SMOVIL		-76, R44
		SMOVIL		-1, R45
		SADDA.M1		R45:R44,AR14,AR10
		SNOP		1
		SSTW		R42, *AR10
		SBR		.L4
		SNOP		6
.L7:
.LBB2:
	.loc 1 118 0
		SMOVIL		-664, R42
		SMOVIL		-1, R43
		SMOVIL		-72, R46
		SMOVIL		-1, R47
		SADDA.M1		R47:R46,AR14,OR11
		SNOP		1
		SADDA.M1		R43:R42,OR11,OR11
		SNOP		1
		SMVAAGL.M1		OR11, R45:R44
		SNOP		1
		SMVAAGH.M1		OR11, R45:R44
		SNOP		1
		SMOVIL.L		hAddr_DDR, R42
		SMOVIH.L		hAddr_DDR, R42
		SMOVIH4.L		hAddr_DDR, R43
		SMVAGA36.M1		R45:R44, OR11
		SNOP		1
		SMVAAGL.M1		OR11, R11:R10
		SNOP		1
		SMVAAGH.M1		OR11, R11:R10
		SNOP		1
		SMVAGA36.M1		R43:R42, OR11
		SNOP		1
		SMVAAGL.M1		OR11, R13:R12
		SNOP		1
		SMVAAGH.M1		OR11, R13:R12
		SNOP		1
		SMOVIL		576, R14
		SMOVIL		0, R15
		SBR		memcpy
		SMOVIL		.L12, R62
		SMOVIH		.L12, R62
		SMOVIH4.L		.L12, R63
		SNOP		4
.L12:
	.loc 1 120 0
		SMOVIL		-76, R44
		SMOVIL		-1, R45
		SADDA.M1		R45:R44,AR14,AR10
		SNOP		1
		SLDW		*AR10, R42
		SNOP		5
		SADD.M1		15,R42,R42
		SSHFAR		4, R42, R42
		SMOVIL		-104, R44
		SMOVIL		-1, R45
		SADDA.M1		R45:R44,AR14,AR10
		SNOP		1
		SSTW		R42, *AR10
	.loc 1 121 0
		SMOVIL		-76, R44
		SMOVIL		-1, R45
		SADDA.M1		R45:R44,AR14,AR10
		SNOP		1
		SLDW		*AR10, R42
		SNOP		5
		SADD.M1		16,R42,R42
		SSHFAR		4, R42, R42
		SMOVIL		-108, R44
		SMOVIL		-1, R45
		SADDA.M1		R45:R44,AR14,AR10
		SNOP		1
		SSTW		R42, *AR10
	.loc 1 122 0
		SMOVIL		-104, R42
		SMOVIL		-1, R43
		SADDA.M1		R43:R42,AR14,AR10
		SNOP		1
		SLDW		*AR10, R34
		SNOP		5
		SMOVIL		-104, R44
		SMOVIL		-1, R45
		SADDA.M1		R45:R44,AR14,AR10
		SNOP		1
		SLDW		*AR10, R42
		SNOP		5
		SSHFAR		31, R42, R42
		SMOV.M1		R42, R35
		SSHFLR		27, R34, R42
		SSHFLL		5, R35, R31
		SOR		R31, R42, R31
		SSHFLL		5, R34, R30
		SMOV.M1		R30, R10
		SMOV.M1		R31, R11
		SBR		vmalloc
		SMOVIL		.L13, R62
		SMOVIH		.L13, R62
		SMOVIH4.L		.L13, R63
		SNOP		4
.L13:
		SSTDW		R11:R10, *-AR14[15]
	.loc 1 123 0
		SMOVIL		-108, R42
		SMOVIL		-1, R43
		SADDA.M1		R43:R42,AR14,AR10
		SNOP		1
		SLDW		*AR10, R36
		SNOP		5
		SMOVIL		-108, R44
		SMOVIL		-1, R45
		SADDA.M1		R45:R44,AR14,AR10
		SNOP		1
		SLDW		*AR10, R42
		SNOP		5
		SSHFAR		31, R42, R42
		SMOV.M1		R42, R37
		SSHFLR		27, R36, R42
		SSHFLL		5, R37, R33
		SOR		R33, R42, R33
		SSHFLL		5, R36, R32
		SMOV.M1		R32, R10
		SMOV.M1		R33, R11
		SBR		vmalloc
		SMOVIL		.L14, R62
		SMOVIH		.L14, R62
		SMOVIH4.L		.L14, R63
		SNOP		4
.L14:
		SMOVIL		-128, R42
		SMOVIL		-1, R43
		SADDA.M1		R43:R42,AR14,AR10
		SNOP		1
		SSTDW		R11:R10, *AR10
	.loc 1 125 0
		SMOVIL		-104, R42
		SMOVIL		-1, R43
		SADDA.M1		R43:R42,AR14,AR10
		SNOP		1
		SLDW		*AR10, R38
		SNOP		5
		SMOVIL		-104, R44
		SMOVIL		-1, R45
		SADDA.M1		R45:R44,AR14,AR10
		SNOP		1
		SLDW		*AR10, R42
		SNOP		5
		SSHFAR		31, R42, R42
		SMOV.M1		R42, R39
		SMOV.M1		R38, R42
		SSHFLL		5, R42, R44
		SMOVIL		-664, R42
		SMOVIL		-1, R43
		SMOVIL		-72, R46
		SMOVIL		-1, R47
		SADDA.M1		R47:R46,AR14,OR11
		SNOP		1
		SADDA.M1		R43:R42,OR11,OR11
		SNOP		1
		SMVAAGL.M1		OR11, R43:R42
		SNOP		1
		SMVAAGH.M1		OR11, R43:R42
		SNOP		1
		SMVAGA36.M1		R43:R42, OR11
		SNOP		1
		SMVAAGL.M1		OR11, R11:R10
		SNOP		1
		SMVAAGH.M1		OR11, R11:R10
		SNOP		1
		SLDDW		*-AR14[15], R13:R12
		SNOP		5
		SMOV.M1		R44, R14
		SBR		M7002_datatrans
		SMOVIL		.L15, R62
		SMOVIH		.L15, R62
		SMOVIH4.L		.L15, R63
		SNOP		4
.L15:
	.loc 1 126 0
		SMOVIL		-108, R42
		SMOVIL		-1, R43
		SADDA.M1		R43:R42,AR14,AR10
		SNOP		1
		SLDW		*AR10, R40
		SNOP		5
		SMOVIL		-108, R44
		SMOVIL		-1, R45
		SADDA.M1		R45:R44,AR14,AR10
		SNOP		1
		SLDW		*AR10, R42
		SNOP		5
		SSHFAR		31, R42, R42
		SMOV.M1		R42, R41
		SMOV.M1		R40, R42
		SSHFLL		5, R42, R42
		SMOVIL.L		xAddr_DDR_cn, R10
		SMOVIH.L		xAddr_DDR_cn, R10
		SMOVIH4.L		xAddr_DDR_cn, R11
		SMOVIL		-128, R44
		SMOVIL		-1, R45
		SADDA.M1		R45:R44,AR14,AR10
		SNOP		1
		SLDDW		*AR10, R13:R12
		SNOP		5
		SMOV.M1		R42, R14
		SBR		M7002_datatrans
		SMOVIL		.L16, R62
		SMOVIH		.L16, R62
		SMOVIH4.L		.L16, R63
		SNOP		4
.L16:
	.loc 1 128 0
		SMOVIL		0, R10
		SBR		GetTimerCount
		SMOVIL		.L17, R62
		SMOVIH		.L17, R62
		SMOVIH4.L		.L17, R63
		SNOP		4
.L17:
		SMOV.M1		R10, R42
		SMOVIL		-132, R44
		SMOVIL		-1, R45
		SADDA.M1		R45:R44,AR14,AR10
		SNOP		1
		SSTW		R42, *AR10
	.loc 1 129 0
		SMOVIL.L		b, R42
		SMOVIH.L		b, R42
		SMOVIH4.L		b, R43
		SMVAGA36.M1		R43:R42, AR10
		SNOP		1
		SLDH		*AR10, R42
		SNOP		5
		SSHFLL		16, R42, R44
		SSHFAR		16, R44, R44
		SMOVIL		-64, R42
		SMOVIL		-1, R43
		SMOVIL		-72, R46
		SMOVIL		-1, R47
		SADDA.M1		R47:R46,AR14,OR11
		SNOP		1
		SADDA.M1		R43:R42,OR11,AR8
		SNOP		1
		SMOVIL		-664, R42
		SMOVIL		-1, R43
		SMOVIL		-72, R46
		SMOVIL		-1, R47
		SADDA.M1		R47:R46,AR14,OR11
		SNOP		1
		SADDA.M1		R43:R42,OR11,OR11
		SNOP		1
		SMVAAGL.M1		OR11, R43:R42
		SNOP		1
		SMVAAGH.M1		OR11, R43:R42
		SNOP		1
		SMVAGA36.M1		R43:R42, OR11
		SNOP		1
		SMVAAGL.M1		OR11, R11:R10
		SNOP		1
		SMVAAGH.M1		OR11, R11:R10
		SNOP		1
		SMOVIL.L		xAddr_DDR_cn, R12
		SMOVIH.L		xAddr_DDR_cn, R12
		SMOVIH4.L		xAddr_DDR_cn, R13
		SMOV.M1		R44, R14
		SMOVIL		-76, R42
		SMOVIL		-1, R43
		SADDA.M1		R43:R42,AR14,AR10
		SNOP		1
		SLDW		*AR10, R16
		SNOP		5
		SBR		DSP_firlms2_cn
		SMOVIL		.L18, R62
		SMOVIH		.L18, R62
		SMOVIH4.L		.L18, R63
		SNOP		4
.L18:
		SSTW		R10, *AR8
	.loc 1 130 0
		SMOVIL		0, R10
		SBR		GetTimerCount
		SMOVIL		.L19, R62
		SMOVIH		.L19, R62
		SMOVIH4.L		.L19, R63
		SNOP		4
.L19:
		SMOV.M1		R10, R44
		SMOVIL		-68, R42
		SMOVIL		-1, R43
		SMOVIL		-72, R46
		SMOVIL		-1, R47
		SADDA.M1		R47:R46,AR14,OR11
		SNOP		1
		SADDA.M1		R43:R42,OR11,OR11
		SNOP		1
		SMVAAGL.M1		OR11, R43:R42
		SNOP		1
		SMVAAGH.M1		OR11, R43:R42
		SNOP		1
		SMVAGA36.M1		R43:R42, AR10
		SNOP		1
		SSTW		R44, *AR10
	.loc 1 131 0
		SMOVIL		-68, R42
		SMOVIL		-1, R43
		SMOVIL		-72, R44
		SMOVIL		-1, R45
		SADDA.M1		R45:R44,AR14,OR11
		SNOP		1
		SADDA.M1		R43:R42,OR11,OR11
		SNOP		1
		SMVAAGL.M1		OR11, R43:R42
		SNOP		1
		SMVAAGH.M1		OR11, R43:R42
		SNOP		1
		SMVAGA36.M1		R43:R42, AR10
		SNOP		1
		SLDW		*AR10, R43
		SNOP		5
		SMOVIL		-132, R44
		SMOVIL		-1, R45
		SADDA.M1		R45:R44,AR14,AR10
		SNOP		1
		SLDW		*AR10, R42
		SNOP		5
		SSUB.M1		R42, R43, R45
		SMOVIL		-72, R42
		SMOVIL		-1, R43
		SMOVIL		-72, R46
		SMOVIL		-1, R47
		SADDA.M1		R47:R46,AR14,OR11
		SNOP		1
		SADDA.M1		R43:R42,OR11,OR11
		SNOP		1
		SMVAAGL.M1		OR11, R43:R42
		SNOP		1
		SMVAAGH.M1		OR11, R43:R42
		SNOP		1
		SMOVIL		-100, R46
		SMOVIL		-1, R47
		SADDA.M1		R47:R46,AR14,AR10
		SNOP		1
		SLDW		*AR10, R44
		SNOP		5
		SSUB.M1		R44, R45, R44
		SMVAGA36.M1		R43:R42, AR10
		SNOP		1
		SSTW		R44, *AR10
	.loc 1 133 0
		SMOVIL		0, R10
		SBR		GetTimerCount
		SMOVIL		.L20, R62
		SMOVIH		.L20, R62
		SMOVIH4.L		.L20, R63
		SNOP		4
.L20:
		SMOV.M1		R10, R42
		SMOVIL		-132, R44
		SMOVIL		-1, R45
		SADDA.M1		R45:R44,AR14,AR10
		SNOP		1
		SSTW		R42, *AR10
	.loc 1 134 0
		SMOVIL.L		b, R42
		SMOVIH.L		b, R42
		SMOVIH4.L		b, R43
		SMVAGA36.M1		R43:R42, AR10
		SNOP		1
		SLDH		*AR10, R42
		SNOP		5
		SSHFLL		16, R42, R44
		SSHFAR		16, R44, R44
		SMOVIL		-76, R42
		SMOVIL		-1, R43
		SMOVIL		-72, R46
		SMOVIL		-1, R47
		SADDA.M1		R47:R46,AR14,OR11
		SNOP		1
		SADDA.M1		R43:R42,OR11,AR8
		SNOP		1
		SLDDW		*-AR14[15], R11:R10
		SNOP		5
		SMOVIL		-128, R42
		SMOVIL		-1, R43
		SADDA.M1		R43:R42,AR14,AR10
		SNOP		1
		SLDDW		*AR10, R13:R12
		SNOP		5
		SMOV.M1		R44, R14
		SMOVIL		-76, R42
		SMOVIL		-1, R43
		SADDA.M1		R43:R42,AR14,AR10
		SNOP		1
		SLDW		*AR10, R16
		SNOP		5
		SBR		DSP_firlms2_asm
		SMOVIL		.L21, R62
		SMOVIH		.L21, R62
		SMOVIH4.L		.L21, R63
		SNOP		4
.L21:
		SSTW		R10, *AR8
	.loc 1 135 0
		SMOVIL		0, R10
		SBR		GetTimerCount
		SMOVIL		.L22, R62
		SMOVIH		.L22, R62
		SMOVIH4.L		.L22, R63
		SNOP		4
.L22:
		SMOV.M1		R10, R44
		SMOVIL		-68, R42
		SMOVIL		-1, R43
		SMOVIL		-72, R46
		SMOVIL		-1, R47
		SADDA.M1		R47:R46,AR14,OR11
		SNOP		1
		SADDA.M1		R43:R42,OR11,OR11
		SNOP		1
		SMVAAGL.M1		OR11, R43:R42
		SNOP		1
		SMVAAGH.M1		OR11, R43:R42
		SNOP		1
		SMVAGA36.M1		R43:R42, AR10
		SNOP		1
		SSTW		R44, *AR10
	.loc 1 136 0
		SMOVIL		-68, R42
		SMOVIL		-1, R43
		SMOVIL		-72, R44
		SMOVIL		-1, R45
		SADDA.M1		R45:R44,AR14,OR11
		SNOP		1
		SADDA.M1		R43:R42,OR11,OR11
		SNOP		1
		SMVAAGL.M1		OR11, R43:R42
		SNOP		1
		SMVAAGH.M1		OR11, R43:R42
		SNOP		1
		SMVAGA36.M1		R43:R42, AR10
		SNOP		1
		SLDW		*AR10, R43
		SNOP		5
		SMOVIL		-132, R44
		SMOVIL		-1, R45
		SADDA.M1		R45:R44,AR14,AR10
		SNOP		1
		SLDW		*AR10, R42
		SNOP		5
		SSUB.M1		R42, R43, R45
		SMOVIL		-80, R42
		SMOVIL		-1, R43
		SMOVIL		-72, R46
		SMOVIL		-1, R47
		SADDA.M1		R47:R46,AR14,OR11
		SNOP		1
		SADDA.M1		R43:R42,OR11,OR11
		SNOP		1
		SMVAAGL.M1		OR11, R43:R42
		SNOP		1
		SMVAAGH.M1		OR11, R43:R42
		SNOP		1
		SMOVIL		-100, R46
		SMOVIL		-1, R47
		SADDA.M1		R47:R46,AR14,AR10
		SNOP		1
		SLDW		*AR10, R44
		SNOP		5
		SSUB.M1		R44, R45, R44
		SMVAGA36.M1		R43:R42, AR10
		SNOP		1
		SSTW		R44, *AR10
	.loc 1 138 0
		SMOVIL		-104, R42
		SMOVIL		-1, R43
		SADDA.M1		R43:R42,AR14,AR10
		SNOP		1
		SLDW		*AR10, R44
		SNOP		5
		SMOVIL		-1328, R42
		SMOVIL		-1, R43
		SADDA.M1		R43:R42,AR14,AR10
		SNOP		1
		SSTW		R44, *AR10
		SMOVIL		-104, R44
		SMOVIL		-1, R45
		SADDA.M1		R45:R44,AR14,AR10
		SNOP		1
		SLDW		*AR10, R42
		SNOP		5
		SSHFAR		31, R42, R42
		SMOVIL		-1324, R44
		SMOVIL		-1, R45
		SADDA.M1		R45:R44,AR14,AR10
		SNOP		1
		SSTW		R42, *AR10
		SMOVIL		-1328, R44
		SMOVIL		-1, R45
		SADDA.M1		R45:R44,AR14,AR10
		SNOP		1
		SLDW		*AR10, R42
		SNOP		5
		SSHFLL		5, R42, R44
		SMOVIL		-1240, R42
		SMOVIL		-1, R43
		SMOVIL		-72, R46
		SMOVIL		-1, R47
		SADDA.M1		R47:R46,AR14,OR11
		SNOP		1
		SADDA.M1		R43:R42,OR11,OR11
		SNOP		1
		SMVAAGL.M1		OR11, R43:R42
		SNOP		1
		SMVAAGH.M1		OR11, R43:R42
		SNOP		1
		SLDDW		*-AR14[15], R11:R10
		SNOP		5
		SMVAGA36.M1		R43:R42, OR11
		SNOP		1
		SMVAAGL.M1		OR11, R13:R12
		SNOP		1
		SMVAAGH.M1		OR11, R13:R12
		SNOP		1
		SMOV.M1		R44, R14
		SBR		M7002_datatrans
		SMOVIL		.L23, R62
		SMOVIH		.L23, R62
		SMOVIH4.L		.L23, R63
		SNOP		4
.L23:
	.loc 1 145 0
		SMOVIL		-64, R42
		SMOVIL		-1, R43
		SMOVIL		-72, R46
		SMOVIL		-1, R47
		SADDA.M1		R47:R46,AR14,OR11
		SNOP		1
		SADDA.M1		R43:R42,OR11,OR11
		SNOP		1
		SMVAAGL.M1		OR11, R45:R44
		SNOP		1
		SMVAAGH.M1		OR11, R45:R44
		SNOP		1
		SMOVIL		-76, R42
		SMOVIL		-1, R43
		SMOVIL		-72, R46
		SMOVIL		-1, R47
		SADDA.M1		R47:R46,AR14,OR11
		SNOP		1
		SADDA.M1		R43:R42,OR11,OR11
		SNOP		1
		SMVAAGL.M1		OR11, R43:R42
		SNOP		1
		SMVAAGH.M1		OR11, R43:R42
		SNOP		1
		SMVAGA36.M1		R45:R44, AR10
		SNOP		1
		SLDW		*AR10, R44
		SNOP		5
		SMVAGA36.M1		R43:R42, AR10
		SNOP		1
		SLDW		*AR10, R42
		SNOP		5
		SEQ		R42, R44, R42
		SMOV.M1		R42, R0
	[R0]	SBR		.L5
		SNOP		6
	.loc 1 146 0
		SMOVIL.L		.LC0, R42
		SMOVIH.L		.LC0, R42
		SMOVIH4.L		.LC0, R43
		SSTDW		R43:R42, *+AR15[1]
		SBR		printf
		SMOVIL		.L24, R62
		SMOVIH		.L24, R62
		SMOVIH4.L		.L24, R63
		SNOP		4
.L24:
		SBR		.L6
		SNOP		6
.L5:
	.loc 1 148 0
		SMOVIL.L		.LC1, R42
		SMOVIH.L		.LC1, R42
		SMOVIH4.L		.LC1, R43
		SSTDW		R43:R42, *+AR15[1]
		SBR		printf
		SMOVIL		.L25, R62
		SMOVIH		.L25, R62
		SMOVIH4.L		.L25, R63
		SNOP		4
.L25:
.L6:
	.loc 1 150 0
		SMOVIL.L		.LC2, R42
		SMOVIH.L		.LC2, R42
		SMOVIH4.L		.LC2, R43
		SSTDW		R43:R42, *+AR15[1]
		SMOVIL		-76, R44
		SMOVIL		-1, R45
		SADDA.M1		R45:R44,AR14,AR10
		SNOP		1
		SLDW		*AR10, R42
		SNOP		5
		SSTW		R42, *+AR15[4]
		SMOVIL		-72, R42
		SMOVIL		-1, R43
		SMOVIL		-72, R44
		SMOVIL		-1, R45
		SADDA.M1		R45:R44,AR14,OR11
		SNOP		1
		SADDA.M1		R43:R42,OR11,OR11
		SNOP		1
		SMVAAGL.M1		OR11, R43:R42
		SNOP		1
		SMVAAGH.M1		OR11, R43:R42
		SNOP		1
		SMVAGA36.M1		R43:R42, AR10
		SNOP		1
		SLDW		*AR10, R42
		SNOP		5
		SSTW		R42, *+AR15[5]
		SMOVIL		-80, R42
		SMOVIL		-1, R43
		SMOVIL		-72, R44
		SMOVIL		-1, R45
		SADDA.M1		R45:R44,AR14,OR11
		SNOP		1
		SADDA.M1		R43:R42,OR11,OR11
		SNOP		1
		SMVAAGL.M1		OR11, R43:R42
		SNOP		1
		SMVAAGH.M1		OR11, R43:R42
		SNOP		1
		SMVAGA36.M1		R43:R42, AR10
		SNOP		1
		SLDW		*AR10, R42
		SNOP		5
		SSTW		R42, *+AR15[6]
		SBR		printf
		SMOVIL		.L26, R62
		SMOVIH		.L26, R62
		SMOVIH4.L		.L26, R63
		SNOP		4
.L26:
	.loc 1 151 0
		SLDDW		*-AR14[15], R11:R10
		SNOP		5
		SBR		vfree
		SMOVIL		.L27, R62
		SMOVIH		.L27, R62
		SMOVIH4.L		.L27, R63
		SNOP		4
.L27:
	.loc 1 152 0
		SMOVIL		-128, R42
		SMOVIL		-1, R43
		SADDA.M1		R43:R42,AR14,AR10
		SNOP		1
		SLDDW		*AR10, R11:R10
		SNOP		5
		SBR		vfree
		SMOVIL		.L28, R62
		SMOVIH		.L28, R62
		SMOVIH4.L		.L28, R63
		SNOP		4
.L28:
.LBE2:
	.loc 1 116 0
		SMOVIL		-76, R44
		SMOVIL		-1, R45
		SADDA.M1		R45:R44,AR14,AR10
		SNOP		1
		SLDW		*AR10, R42
		SNOP		5
		SADD.M1		4,R42,R42
		SMOVIL		-76, R44
		SMOVIL		-1, R45
		SADDA.M1		R45:R44,AR14,AR10
		SNOP		1
		SSTW		R42, *AR10
.L4:
	.loc 1 116 0 is_stmt 0 discriminator 1
		SMOVIL		-76, R44
		SMOVIL		-1, R45
		SADDA.M1		R45:R44,AR14,AR10
		SNOP		1
		SLDW		*AR10, R43
		SNOP		5
		SMOVIL		255, R42
		SLT		R42, R43, R42
		SMOV.M1		R42, R0
	[!R0]	SBR		.L7
		SNOP		6
	.loc 1 154 0 is_stmt 1
		SLDDW		*+AR15[161], R31:R30
		SNOP		5
		SLDDW		*+AR15[162], R33:R32
		SNOP		5
		SLDDW		*+AR15[163], R35:R34
		SNOP		5
		SLDDW		*+AR15[164], R37:R36
		SNOP		5
		SLDDW		*+AR15[165], R39:R38
		SNOP		5
		SLDDW		*+AR15[166], R41:R40
		SNOP		5
		SLDDW		*+AR15[167], R7:R6
		SNOP		5
		SMVAGA36.M1		R7:R6, AR8
		SNOP		1
		SLDDW		*+AR15[168], R63:R62
		SNOP		5
		SADDA.M1		-16,AR14,AR15
		SNOP		1
		SLDDW		*++AR15[2], R7:R6
		SNOP		5
		SMVAGA36.M1		R7:R6, AR14
		SNOP		1
		SMVCGC.L		R63, BRReg
		SNOP		1
		SBR		R62
		SNOP		6
	.cfi_endproc
.LFE3:
	.size	main, .-main
.text;
.Letext0: