	.file	"main.c"
.text;
.Ltext0:
	.cfi_sections	.debug_frame
	.section	.const,"a",@progbits
.LC2:
	.string	"%s = ["
.LC3:
	.string	"%lf, "
.LC4:
	.string	"]"
	.section	.text.printMatrix,"ax",@progbits
	.align	2
	.global	printMatrix
	.type	printMatrix, @function
printMatrix:
.LFB3:
	.file 1 "../main.c"
	.loc 1 12 0
	.cfi_startproc
		SMVAAGL.M1		AR14, R7:R6
		SNOP		1
		SMVAAGH.M1		AR14, R7:R6
		SNOP		1
		SSTDW		R7:R6, *AR15--[2]
.LCFI0:
	.cfi_def_cfa_offset 16
	.cfi_offset 14, 0
		SADDA.M1		16,AR15,AR14
.LCFI1:
	.cfi_def_cfa 14, 0
		SNOP		1
		SMOVIL		-64, R6
		SMOVIL		-1, R7
		SADDA.M1		R7:R6,AR15,AR15
		SNOP		1
		SSTDW		R63:R62, *+AR15[8]
		SSTDW		R31:R30, *+AR15[7]
	.cfi_offset 78, -16
	.cfi_offset 79, -12
	.cfi_offset 46, -24
	.cfi_offset 47, -20
		SSTDW		R11:R10, *-AR14[5]
		SSTDW		R13:R12, *-AR14[6]
		SSTW		R14, *-AR14[13]
		SSTW		R16, *-AR14[14]
	.loc 1 14 0
		SMOVIL.L		.LC2, R42
		SMOVIH.L		.LC2, R42
		SMOVIH4.L		.LC2, R43
		SSTDW		R43:R42, *+AR15[1]
		SLDDW		*-AR14[6], R43:R42
		SNOP		5
		SSTDW		R43:R42, *+AR15[2]
		SBR		printf
		SMOVIL		.L6, R62
		SMOVIH		.L6, R62
		SMOVIH4.L		.L6, R63
		SNOP		4
.L6:
	.loc 1 15 0
		SMOVIL		0, R42
		SSTW		R42, *-AR14[7]
		SBR		.L2
		SNOP		6
.L5:
	.loc 1 17 0
		SMOVIL		0, R42
		SSTW		R42, *-AR14[8]
		SBR		.L3
		SNOP		6
.L4:
	.loc 1 19 0 discriminator 2
		SLDW		*-AR14[7], R43
		SNOP		5
		SLDW		*-AR14[13], R42
		SNOP		5
		SMULIS.M1		R42,R43,R43
		SNOP		2
		SLDW		*-AR14[8], R42
		SNOP		5
		SADD.M1		R42,R43,R42
		SMOV.M1		R42, R30
		SSHFAR		31, R42, R42
		SMOV.M1		R42, R31
		SADD.M1		R30,R30,R44
		SLTU		R44, R30, R42
		SADD.M1		R31,R31,R45
		SADD.M1		R45,R42,R42
		SMOV.M1		R42, R45
		SADD.M1		R44,R44,R42
		SLTU		R42, R44, R46
		SADD.M1		R45,R45,R43
		SADD.M1		R43,R46,R44
		SMOV.M1		R44, R43
		SADD.M1		R42,R42,R44
		SLTU		R44, R42, R46
		SADD.M1		R43,R43,R45
		SADD.M1		R45,R46,R42
		SMOV.M1		R42, R45
		SMOV.M1		R44, R42
		SMOV.M1		R45, R43
	;no-op trunc di R43:R42 to pdi R43:R42
		SLDDW		*-AR14[5], R45:R44
		SNOP		5
		SMVAGA36.M1		R45:R44, OR11
		SNOP		1
		SADDA.M1		R43:R42,OR11,OR11
		SNOP		1
		SMVAAGL.M1		OR11, R43:R42
		SNOP		1
		SMVAAGH.M1		OR11, R43:R42
		SNOP		1
		SMVAGA36.M1		R43:R42, AR10
		SNOP		1
		SLDDW		*AR10, R43:R42
		SNOP		5
		SMOVIL.L		.LC3, R44
		SMOVIH.L		.LC3, R44
		SMOVIH4.L		.LC3, R45
		SSTDW		R45:R44, *+AR15[1]
		SSTDW		R43:R42, *+AR15[2]
		SBR		printf
		SMOVIL		.L7, R62
		SMOVIH		.L7, R62
		SMOVIH4.L		.L7, R63
		SNOP		4
.L7:
	.loc 1 17 0 discriminator 2
		SLDW		*-AR14[8], R42
		SNOP		5
		SADD.M1		1,R42,R42
		SSTW		R42, *-AR14[8]
.L3:
	.loc 1 17 0 is_stmt 0 discriminator 1
		SLDW		*-AR14[8], R43
		SNOP		5
		SLDW		*-AR14[14], R42
		SNOP		5
		SLT		R43, R42, R42
		SMOV.M1		R42, R0
	[R0]	SBR		.L4
		SNOP		6
	.loc 1 21 0 is_stmt 1
		SMOVIL		10, R10
		SBR		putchar
		SMOVIL		.L8, R62
		SMOVIH		.L8, R62
		SMOVIH4.L		.L8, R63
		SNOP		4
.L8:
	.loc 1 15 0
		SLDW		*-AR14[7], R42
		SNOP		5
		SADD.M1		1,R42,R42
		SSTW		R42, *-AR14[7]
.L2:
	.loc 1 15 0 is_stmt 0 discriminator 1
		SLDW		*-AR14[7], R43
		SNOP		5
		SLDW		*-AR14[13], R42
		SNOP		5
		SLT		R43, R42, R42
		SMOV.M1		R42, R0
	[R0]	SBR		.L5
		SNOP		6
	.loc 1 23 0 is_stmt 1
		SMOVIL.L		.LC4, R10
		SMOVIH.L		.LC4, R10
		SMOVIH4.L		.LC4, R11
		SBR		puts
		SMOVIL		.L9, R62
		SMOVIH		.L9, R62
		SMOVIH4.L		.L9, R63
		SNOP		4
.L9:
	.loc 1 24 0
		SLDDW		*+AR15[7], R31:R30
		SNOP		5
		SLDDW		*+AR15[8], R63:R62
		SNOP		5
		SADDA.M1		-16,AR14,AR15
		SNOP		1
		SLDDW		*++AR15[2], R7:R6
		SNOP		5
		SMVAGA36.M1		R7:R6, AR14
		SNOP		1
		SMVCGC.L		R63, BRReg
		SNOP		1
		SBR		R62
		SNOP		6
	.cfi_endproc
.LFE3:
	.size	printMatrix, .-printMatrix
	.common	v_A,8,8
	.common	v_Q,8,8
	.common	v_R,8,8
	.common	v_u,8,8
	.common	v_b,8,8
	.common	v_y,8,8
	.common	v_x,8,8
	.common	A,32768,8
	.common	Q,32768,8
	.common	R,32768,8
	.common	inv_A,32768,8
	.common	u,512,8
	.common	b,512,8
	.common	y,512,8
	.common	x,512,8
	.section	.text.DSPF_sp_qrd_cmplx_wrapper,"ax",@progbits
	.align	2
	.global	DSPF_sp_qrd_cmplx_wrapper
	.type	DSPF_sp_qrd_cmplx_wrapper, @function
DSPF_sp_qrd_cmplx_wrapper:
.LFB4:
	.loc 1 48 0
	.cfi_startproc
		SMVAAGL.M1		AR14, R7:R6
		SNOP		1
		SMVAAGH.M1		AR14, R7:R6
		SNOP		1
		SSTDW		R7:R6, *AR15--[2]
.LCFI2:
	.cfi_def_cfa_offset 16
	.cfi_offset 14, 0
		SADDA.M1		16,AR15,AR14
.LCFI3:
	.cfi_def_cfa 14, 0
		SNOP		1
		SMOVIL		-72, R6
		SMOVIL		-1, R7
		SADDA.M1		R7:R6,AR15,AR15
		SNOP		1
		SSTDW		R63:R62, *+AR15[9]
	.cfi_offset 78, -16
	.cfi_offset 79, -12
		SSTDW		R11:R10, *-AR14[4]
		SSTDW		R13:R12, *-AR14[5]
		SSTW		R14, *-AR14[11]
		SSTW		R16, *-AR14[12]
		SSTDW		R19:R18, *-AR14[7]
		SSTDW		R21:R20, *-AR14[8]
		SSTDW		R23:R22, *-AR14[9]
		SSTDW		R25:R24, *-AR14[10]
	.loc 1 49 0
		SMOVIL		0, R10
		SBR		GetTimerCount
		SMOVIL		.L12, R62
		SMOVIH		.L12, R62
		SMOVIH4.L		.L12, R63
		SNOP		4
.L12:
		SMOV.M1		R10, R44
		SLDDW		*-AR14[4], R43:R42
		SNOP		5
		SMVAGA36.M1		R43:R42, AR10
		SNOP		1
		SSTW		R44, *AR10
	.loc 1 50 0
		SLDW		*-AR14[11], R10
		SNOP		5
		SLDW		*-AR14[12], R12
		SNOP		5
		SLDDW		*-AR14[7], R15:R14
		SNOP		5
		SLDDW		*-AR14[8], R17:R16
		SNOP		5
		SLDDW		*-AR14[9], R19:R18
		SNOP		5
		SLDDW		*-AR14[10], R21:R20
		SNOP		5
		SBR		DSPF_dp_qrd_cmplx_cn
		SMOVIL		.L13, R62
		SMOVIH		.L13, R62
		SMOVIH4.L		.L13, R63
		SNOP		4
.L13:
		SSTW		R10, *-AR14[5]
	.loc 1 51 0
		SMOVIL		0, R10
		SBR		GetTimerCount
		SMOVIL		.L14, R62
		SMOVIH		.L14, R62
		SMOVIH4.L		.L14, R63
		SNOP		4
.L14:
		SMOV.M1		R10, R44
		SLDDW		*-AR14[5], R43:R42
		SNOP		5
		SMVAGA36.M1		R43:R42, AR10
		SNOP		1
		SSTW		R44, *AR10
	.loc 1 52 0
		SLDW		*-AR14[5], R42
		SNOP		5
	.loc 1 53 0
		SMOV.M1		R42, R10
		SLDDW		*+AR15[9], R63:R62
		SNOP		5
		SADDA.M1		-16,AR14,AR15
		SNOP		1
		SLDDW		*++AR15[2], R7:R6
		SNOP		5
		SMVAGA36.M1		R7:R6, AR14
		SNOP		1
		SMVCGC.L		R63, BRReg
		SNOP		1
		SBR		R62
		SNOP		6
	.cfi_endproc
.LFE4:
	.size	DSPF_sp_qrd_cmplx_wrapper, .-DSPF_sp_qrd_cmplx_wrapper
	.section	.const,"a",@progbits
.LC5:
	.string	"x"
.LC6:
	.string	"y"
	.section	.text.DSPF_sp_qrd_solver_cmplx_wrapper,"ax",@progbits
	.align	2
	.global	DSPF_sp_qrd_solver_cmplx_wrapper
	.type	DSPF_sp_qrd_solver_cmplx_wrapper, @function
DSPF_sp_qrd_solver_cmplx_wrapper:
.LFB5:
	.loc 1 55 0
	.cfi_startproc
		SMVAAGL.M1		AR14, R7:R6
		SNOP		1
		SMVAAGH.M1		AR14, R7:R6
		SNOP		1
		SSTDW		R7:R6, *AR15--[2]
.LCFI4:
	.cfi_def_cfa_offset 16
	.cfi_offset 14, 0
		SADDA.M1		16,AR15,AR14
.LCFI5:
	.cfi_def_cfa 14, 0
		SNOP		1
		SMOVIL		-136, R6
		SMOVIL		-1, R7
		SADDA.M1		R7:R6,AR15,AR15
		SNOP		1
		SSTDW		R63:R62, *+AR15[17]
		SSTDW		R41:R40, *+AR15[16]
		SSTDW		R39:R38, *+AR15[15]
		SSTDW		R37:R36, *+AR15[14]
		SSTDW		R35:R34, *+AR15[13]
		SSTDW		R33:R32, *+AR15[12]
		SSTDW		R31:R30, *+AR15[11]
	.cfi_offset 78, -16
	.cfi_offset 79, -12
	.cfi_offset 56, -24
	.cfi_offset 57, -20
	.cfi_offset 54, -32
	.cfi_offset 55, -28
	.cfi_offset 52, -40
	.cfi_offset 53, -36
	.cfi_offset 50, -48
	.cfi_offset 51, -44
	.cfi_offset 48, -56
	.cfi_offset 49, -52
	.cfi_offset 46, -64
	.cfi_offset 47, -60
		SSTDW		R11:R10, *-AR14[10]
		SSTDW		R13:R12, *-AR14[11]
		SMOVIL		-92, R42
		SMOVIL		-1, R43
		SADDA.M1		R43:R42,AR14,AR10
		SNOP		1
		SSTW		R14, *AR10
		SMOVIL		-96, R42
		SMOVIL		-1, R43
		SADDA.M1		R43:R42,AR14,AR10
		SNOP		1
		SSTW		R16, *AR10
		SSTDW		R19:R18, *-AR14[13]
		SSTDW		R21:R20, *-AR14[14]
		SSTDW		R23:R22, *-AR14[15]
		SMOVIL		-128, R42
		SMOVIL		-1, R43
		SADDA.M1		R43:R42,AR14,AR10
		SNOP		1
		SSTDW		R25:R24, *AR10
		SMOVIL		-136, R42
		SMOVIL		-1, R43
		SADDA.M1		R43:R42,AR14,AR10
		SNOP		1
		SSTDW		R27:R26, *AR10
	.loc 1 60 0
		SMOVIL.L		v_Q, R42
		SMOVIH.L		v_Q, R42
		SMOVIH4.L		v_Q, R43
		SMVAGA36.M1		R43:R42, AR10
		SNOP		1
		SLDDW		*AR10, R43:R42
		SNOP		5
		SMOVIL		-96, R44
		SMOVIL		-1, R45
		SADDA.M1		R45:R44,AR14,AR10
		SNOP		1
		SLDW		*AR10, R46
		SNOP		5
		SMOVIL		-96, R44
		SMOVIL		-1, R45
		SADDA.M1		R45:R44,AR14,AR10
		SNOP		1
		SLDW		*AR10, R48
		SNOP		5
		SSHFAR		31, R48, R48
		SMOV.M1		R48, R47
		SMOVIL		-92, R48
		SMOVIL		-1, R49
		SADDA.M1		R49:R48,AR14,AR10
		SNOP		1
		SLDW		*AR10, R44
		SNOP		5
		SMOVIL		-92, R48
		SMOVIL		-1, R49
		SADDA.M1		R49:R48,AR14,AR10
		SNOP		1
		SLDW		*AR10, R47
		SNOP		5
		SSHFAR		31, R47, R47
		SMOV.M1		R47, R45
		SMULIS.M1		R44,R46,R44
		SNOP		2
		SSHFLL		4, R44, R44
		SLDDW		*-AR14[13], R11:R10
		SNOP		5
		SMVAGA36.M1		R43:R42, OR11
		SNOP		1
		SMVAAGL.M1		OR11, R13:R12
		SNOP		1
		SMVAAGH.M1		OR11, R13:R12
		SNOP		1
		SMOV.M1		R44, R14
		SBR		M7002_datatrans
		SMOVIL		.L17, R62
		SMOVIH		.L17, R62
		SMOVIH4.L		.L17, R63
		SNOP		4
.L17:
	.loc 1 61 0
		SMOVIL.L		v_R, R42
		SMOVIH.L		v_R, R42
		SMOVIH4.L		v_R, R43
		SMVAGA36.M1		R43:R42, AR10
		SNOP		1
		SLDDW		*AR10, R43:R42
		SNOP		5
		SMOVIL		-96, R44
		SMOVIL		-1, R45
		SADDA.M1		R45:R44,AR14,AR10
		SNOP		1
		SLDW		*AR10, R46
		SNOP		5
		SMOVIL		-144, R44
		SMOVIL		-1, R45
		SADDA.M1		R45:R44,AR14,AR10
		SNOP		1
		SSTW		R46, *AR10
		SMOVIL		-96, R46
		SMOVIL		-1, R47
		SADDA.M1		R47:R46,AR14,AR10
		SNOP		1
		SLDW		*AR10, R44
		SNOP		5
		SSHFAR		31, R44, R44
		SMOVIL		-140, R46
		SMOVIL		-1, R47
		SADDA.M1		R47:R46,AR14,AR10
		SNOP		1
		SSTW		R44, *AR10
		SMOVIL		-144, R46
		SMOVIL		-1, R47
		SADDA.M1		R47:R46,AR14,AR10
		SNOP		1
		SLDW		*AR10, R45
		SNOP		5
		SMOVIL		-92, R46
		SMOVIL		-1, R47
		SADDA.M1		R47:R46,AR14,AR10
		SNOP		1
		SLDW		*AR10, R40
		SNOP		5
		SMOVIL		-92, R46
		SMOVIL		-1, R47
		SADDA.M1		R47:R46,AR14,AR10
		SNOP		1
		SLDW		*AR10, R44
		SNOP		5
		SSHFAR		31, R44, R44
		SMOV.M1		R44, R41
		SMOV.M1		R40, R44
		SMULIS.M1		R44,R45,R44
		SNOP		2
		SSHFLL		4, R44, R44
		SLDDW		*-AR14[14], R11:R10
		SNOP		5
		SMVAGA36.M1		R43:R42, OR11
		SNOP		1
		SMVAAGL.M1		OR11, R13:R12
		SNOP		1
		SMVAAGH.M1		OR11, R13:R12
		SNOP		1
		SMOV.M1		R44, R14
		SBR		M7002_datatrans
		SMOVIL		.L18, R62
		SMOVIH		.L18, R62
		SMOVIH4.L		.L18, R63
		SNOP		4
.L18:
	.loc 1 62 0
		SMOVIL.L		v_b, R42
		SMOVIH.L		v_b, R42
		SMOVIH4.L		v_b, R43
		SMVAGA36.M1		R43:R42, AR10
		SNOP		1
		SLDDW		*AR10, R43:R42
		SNOP		5
		SMOVIL		-92, R44
		SMOVIL		-1, R45
		SADDA.M1		R45:R44,AR14,AR10
		SNOP		1
		SLDW		*AR10, R38
		SNOP		5
		SMOVIL		-92, R46
		SMOVIL		-1, R47
		SADDA.M1		R47:R46,AR14,AR10
		SNOP		1
		SLDW		*AR10, R44
		SNOP		5
		SSHFAR		31, R44, R44
		SMOV.M1		R44, R39
		SMOV.M1		R38, R44
		SSHFLL		4, R44, R44
		SLDDW		*-AR14[15], R11:R10
		SNOP		5
		SMVAGA36.M1		R43:R42, OR11
		SNOP		1
		SMVAAGL.M1		OR11, R13:R12
		SNOP		1
		SMVAAGH.M1		OR11, R13:R12
		SNOP		1
		SMOV.M1		R44, R14
		SBR		M7002_datatrans
		SMOVIL		.L19, R62
		SMOVIH		.L19, R62
		SMOVIH4.L		.L19, R63
		SNOP		4
.L19:
	.loc 1 66 0
		SMOVIL		0, R10
		SBR		GetTimerCount
		SMOVIL		.L20, R62
		SMOVIH		.L20, R62
		SMOVIH4.L		.L20, R63
		SNOP		4
.L20:
		SMOV.M1		R10, R44
		SLDDW		*-AR14[10], R43:R42
		SNOP		5
		SMVAGA36.M1		R43:R42, AR10
		SNOP		1
		SSTW		R44, *AR10
	.loc 1 67 0
		SMOVIL.L		v_Q, R42
		SMOVIH.L		v_Q, R42
		SMOVIH4.L		v_Q, R43
		SMVAGA36.M1		R43:R42, AR10
		SNOP		1
		SLDDW		*AR10, R51:R50
		SNOP		5
		SMOVIL.L		v_R, R42
		SMOVIH.L		v_R, R42
		SMOVIH4.L		v_R, R43
		SMVAGA36.M1		R43:R42, AR10
		SNOP		1
		SLDDW		*AR10, R49:R48
		SNOP		5
		SMOVIL.L		v_b, R42
		SMOVIH.L		v_b, R42
		SMOVIH4.L		v_b, R43
		SMVAGA36.M1		R43:R42, AR10
		SNOP		1
		SLDDW		*AR10, R47:R46
		SNOP		5
		SMOVIL.L		v_y, R42
		SMOVIH.L		v_y, R42
		SMOVIH4.L		v_y, R43
		SMVAGA36.M1		R43:R42, AR10
		SNOP		1
		SLDDW		*AR10, R45:R44
		SNOP		5
		SMOVIL.L		v_x, R42
		SMOVIH.L		v_x, R42
		SMOVIH4.L		v_x, R43
		SMVAGA36.M1		R43:R42, AR10
		SNOP		1
		SLDDW		*AR10, R43:R42
		SNOP		5
		SMOVIL		-92, R52
		SMOVIL		-1, R53
		SADDA.M1		R53:R52,AR14,AR10
		SNOP		1
		SLDW		*AR10, R10
		SNOP		5
		SMOVIL		-96, R52
		SMOVIL		-1, R53
		SADDA.M1		R53:R52,AR14,AR10
		SNOP		1
		SLDW		*AR10, R12
		SNOP		5
		SMVAGA36.M1		R51:R50, OR11
		SNOP		1
		SMVAAGL.M1		OR11, R15:R14
		SNOP		1
		SMVAAGH.M1		OR11, R15:R14
		SNOP		1
		SMVAGA36.M1		R49:R48, OR11
		SNOP		1
		SMVAAGL.M1		OR11, R17:R16
		SNOP		1
		SMVAAGH.M1		OR11, R17:R16
		SNOP		1
		SMVAGA36.M1		R47:R46, OR11
		SNOP		1
		SMVAAGL.M1		OR11, R19:R18
		SNOP		1
		SMVAAGH.M1		OR11, R19:R18
		SNOP		1
		SMVAGA36.M1		R45:R44, OR11
		SNOP		1
		SMVAAGL.M1		OR11, R21:R20
		SNOP		1
		SMVAAGH.M1		OR11, R21:R20
		SNOP		1
		SMVAGA36.M1		R43:R42, OR11
		SNOP		1
		SMVAAGL.M1		OR11, R23:R22
		SNOP		1
		SMVAAGH.M1		OR11, R23:R22
		SNOP		1
		SBR		DSPF_dp_qrd_solver_cmplx_v1
		SMOVIL		.L21, R62
		SMOVIH		.L21, R62
		SMOVIH4.L		.L21, R63
		SNOP		4
.L21:
		SMOVIL		-68, R42
		SMOVIL		-1, R43
		SADDA.M1		R43:R42,AR14,AR10
		SNOP		1
		SSTW		R10, *AR10
	.loc 1 68 0
		SMOVIL		0, R10
		SBR		GetTimerCount
		SMOVIL		.L22, R62
		SMOVIH		.L22, R62
		SMOVIH4.L		.L22, R63
		SNOP		4
.L22:
		SMOV.M1		R10, R44
		SLDDW		*-AR14[11], R43:R42
		SNOP		5
		SMVAGA36.M1		R43:R42, AR10
		SNOP		1
		SSTW		R44, *AR10
	.loc 1 69 0
		SMOVIL.L		v_y, R42
		SMOVIH.L		v_y, R42
		SMOVIH4.L		v_y, R43
		SMVAGA36.M1		R43:R42, AR10
		SNOP		1
		SLDDW		*AR10, R43:R42
		SNOP		5
		SMOVIL		-96, R44
		SMOVIL		-1, R45
		SADDA.M1		R45:R44,AR14,AR10
		SNOP		1
		SLDW		*AR10, R36
		SNOP		5
		SMOVIL		-96, R46
		SMOVIL		-1, R47
		SADDA.M1		R47:R46,AR14,AR10
		SNOP		1
		SLDW		*AR10, R44
		SNOP		5
		SSHFAR		31, R44, R44
		SMOV.M1		R44, R37
		SMOV.M1		R36, R45
		SMOVIL		-92, R46
		SMOVIL		-1, R47
		SADDA.M1		R47:R46,AR14,AR10
		SNOP		1
		SLDW		*AR10, R34
		SNOP		5
		SMOVIL		-92, R46
		SMOVIL		-1, R47
		SADDA.M1		R47:R46,AR14,AR10
		SNOP		1
		SLDW		*AR10, R44
		SNOP		5
		SSHFAR		31, R44, R44
		SMOV.M1		R44, R35
		SMOV.M1		R34, R44
		SMULIS.M1		R44,R45,R44
		SNOP		2
		SSHFLL		4, R44, R44
		SMVAGA36.M1		R43:R42, OR11
		SNOP		1
		SMVAAGL.M1		OR11, R11:R10
		SNOP		1
		SMVAAGH.M1		OR11, R11:R10
		SNOP		1
		SMOVIL		-128, R42
		SMOVIL		-1, R43
		SADDA.M1		R43:R42,AR14,AR10
		SNOP		1
		SLDDW		*AR10, R13:R12
		SNOP		5
		SMOV.M1		R44, R14
		SBR		M7002_datatrans
		SMOVIL		.L23, R62
		SMOVIH		.L23, R62
		SMOVIH4.L		.L23, R63
		SNOP		4
.L23:
	.loc 1 70 0
		SMOVIL.L		v_x, R42
		SMOVIH.L		v_x, R42
		SMOVIH4.L		v_x, R43
		SMVAGA36.M1		R43:R42, AR10
		SNOP		1
		SLDDW		*AR10, R43:R42
		SNOP		5
		SMOVIL		-96, R44
		SMOVIL		-1, R45
		SADDA.M1		R45:R44,AR14,AR10
		SNOP		1
		SLDW		*AR10, R32
		SNOP		5
		SMOVIL		-96, R46
		SMOVIL		-1, R47
		SADDA.M1		R47:R46,AR14,AR10
		SNOP		1
		SLDW		*AR10, R44
		SNOP		5
		SSHFAR		31, R44, R44
		SMOV.M1		R44, R33
		SMOV.M1		R32, R45
		SMOVIL		-92, R46
		SMOVIL		-1, R47
		SADDA.M1		R47:R46,AR14,AR10
		SNOP		1
		SLDW		*AR10, R30
		SNOP		5
		SMOVIL		-92, R46
		SMOVIL		-1, R47
		SADDA.M1		R47:R46,AR14,AR10
		SNOP		1
		SLDW		*AR10, R44
		SNOP		5
		SSHFAR		31, R44, R44
		SMOV.M1		R44, R31
		SMOV.M1		R30, R44
		SMULIS.M1		R44,R45,R44
		SNOP		2
		SSHFLL		4, R44, R44
		SMVAGA36.M1		R43:R42, OR11
		SNOP		1
		SMVAAGL.M1		OR11, R11:R10
		SNOP		1
		SMVAAGH.M1		OR11, R11:R10
		SNOP		1
		SMOVIL		-136, R42
		SMOVIL		-1, R43
		SADDA.M1		R43:R42,AR14,AR10
		SNOP		1
		SLDDW		*AR10, R13:R12
		SNOP		5
		SMOV.M1		R44, R14
		SBR		M7002_datatrans
		SMOVIL		.L24, R62
		SMOVIH		.L24, R62
		SMOVIH4.L		.L24, R63
		SNOP		4
.L24:
	.loc 1 71 0
		SMOVIL		-92, R44
		SMOVIL		-1, R45
		SADDA.M1		R45:R44,AR14,AR10
		SNOP		1
		SLDW		*AR10, R42
		SNOP		5
		SSHFLL		1, R42, R42
		SMOVIL		-136, R44
		SMOVIL		-1, R45
		SADDA.M1		R45:R44,AR14,AR10
		SNOP		1
		SLDDW		*AR10, R11:R10
		SNOP		5
		SMOVIL.L		.LC5, R12
		SMOVIH.L		.LC5, R12
		SMOVIH4.L		.LC5, R13
		SMOVIL		1, R14
		SMOV.M1		R42, R16
		SBR		printMatrix
		SMOVIL		.L25, R62
		SMOVIH		.L25, R62
		SMOVIH4.L		.L25, R63
		SNOP		4
.L25:
	.loc 1 72 0
		SMOVIL		-92, R44
		SMOVIL		-1, R45
		SADDA.M1		R45:R44,AR14,AR10
		SNOP		1
		SLDW		*AR10, R42
		SNOP		5
		SSHFLL		1, R42, R42
		SMOVIL		-128, R44
		SMOVIL		-1, R45
		SADDA.M1		R45:R44,AR14,AR10
		SNOP		1
		SLDDW		*AR10, R11:R10
		SNOP		5
		SMOVIL.L		.LC6, R12
		SMOVIH.L		.LC6, R12
		SMOVIH4.L		.LC6, R13
		SMOVIL		1, R14
		SMOV.M1		R42, R16
		SBR		printMatrix
		SMOVIL		.L26, R62
		SMOVIH		.L26, R62
		SMOVIH4.L		.L26, R63
		SNOP		4
.L26:
	.loc 1 76 0
		SMOVIL		0, R10
		SBR		GetTimerCount
		SMOVIL		.L27, R62
		SMOVIH		.L27, R62
		SMOVIH4.L		.L27, R63
		SNOP		4
.L27:
		SMOV.M1		R10, R44
		SLDDW		*-AR14[10], R43:R42
		SNOP		5
		SMVAGA36.M1		R43:R42, AR10
		SNOP		1
		SSTW		R44, *AR10
	.loc 1 77 0
		SMOVIL		-92, R42
		SMOVIL		-1, R43
		SADDA.M1		R43:R42,AR14,AR10
		SNOP		1
		SLDW		*AR10, R10
		SNOP		5
		SMOVIL		-96, R42
		SMOVIL		-1, R43
		SADDA.M1		R43:R42,AR14,AR10
		SNOP		1
		SLDW		*AR10, R12
		SNOP		5
		SLDDW		*-AR14[13], R15:R14
		SNOP		5
		SLDDW		*-AR14[14], R17:R16
		SNOP		5
		SLDDW		*-AR14[15], R19:R18
		SNOP		5
		SMOVIL		-128, R42
		SMOVIL		-1, R43
		SADDA.M1		R43:R42,AR14,AR10
		SNOP		1
		SLDDW		*AR10, R21:R20
		SNOP		5
		SMOVIL		-136, R42
		SMOVIL		-1, R43
		SADDA.M1		R43:R42,AR14,AR10
		SNOP		1
		SLDDW		*AR10, R23:R22
		SNOP		5
		SBR		DSPF_dp_qrd_solver_cmplx_cn
		SMOVIL		.L28, R62
		SMOVIH		.L28, R62
		SMOVIH4.L		.L28, R63
		SNOP		4
.L28:
		SMOVIL		-68, R42
		SMOVIL		-1, R43
		SADDA.M1		R43:R42,AR14,AR10
		SNOP		1
		SSTW		R10, *AR10
	.loc 1 78 0
		SMOVIL		0, R10
		SBR		GetTimerCount
		SMOVIL		.L29, R62
		SMOVIH		.L29, R62
		SMOVIH4.L		.L29, R63
		SNOP		4
.L29:
		SMOV.M1		R10, R44
		SLDDW		*-AR14[11], R43:R42
		SNOP		5
		SMVAGA36.M1		R43:R42, AR10
		SNOP		1
		SSTW		R44, *AR10
	.loc 1 79 0
		SMOVIL		-92, R44
		SMOVIL		-1, R45
		SADDA.M1		R45:R44,AR14,AR10
		SNOP		1
		SLDW		*AR10, R42
		SNOP		5
		SSHFLL		1, R42, R42
		SMOVIL		-136, R44
		SMOVIL		-1, R45
		SADDA.M1		R45:R44,AR14,AR10
		SNOP		1
		SLDDW		*AR10, R11:R10
		SNOP		5
		SMOVIL.L		.LC5, R12
		SMOVIH.L		.LC5, R12
		SMOVIH4.L		.LC5, R13
		SMOVIL		1, R14
		SMOV.M1		R42, R16
		SBR		printMatrix
		SMOVIL		.L30, R62
		SMOVIH		.L30, R62
		SMOVIH4.L		.L30, R63
		SNOP		4
.L30:
	.loc 1 80 0
		SMOVIL		-92, R44
		SMOVIL		-1, R45
		SADDA.M1		R45:R44,AR14,AR10
		SNOP		1
		SLDW		*AR10, R42
		SNOP		5
		SSHFLL		1, R42, R42
		SMOVIL		-128, R44
		SMOVIL		-1, R45
		SADDA.M1		R45:R44,AR14,AR10
		SNOP		1
		SLDDW		*AR10, R11:R10
		SNOP		5
		SMOVIL.L		.LC6, R12
		SMOVIH.L		.LC6, R12
		SMOVIH4.L		.LC6, R13
		SMOVIL		1, R14
		SMOV.M1		R42, R16
		SBR		printMatrix
		SMOVIL		.L31, R62
		SMOVIH		.L31, R62
		SMOVIH4.L		.L31, R63
		SNOP		4
.L31:
	.loc 1 83 0
		SMOVIL		-68, R44
		SMOVIL		-1, R45
		SADDA.M1		R45:R44,AR14,AR10
		SNOP		1
		SLDW		*AR10, R42
		SNOP		5
	.loc 1 84 0
		SMOV.M1		R42, R10
		SLDDW		*+AR15[11], R31:R30
		SNOP		5
		SLDDW		*+AR15[12], R33:R32
		SNOP		5
		SLDDW		*+AR15[13], R35:R34
		SNOP		5
		SLDDW		*+AR15[14], R37:R36
		SNOP		5
		SLDDW		*+AR15[15], R39:R38
		SNOP		5
		SLDDW		*+AR15[16], R41:R40
		SNOP		5
		SLDDW		*+AR15[17], R63:R62
		SNOP		5
		SADDA.M1		-16,AR14,AR15
		SNOP		1
		SLDDW		*++AR15[2], R7:R6
		SNOP		5
		SMVAGA36.M1		R7:R6, AR14
		SNOP		1
		SMVCGC.L		R63, BRReg
		SNOP		1
		SBR		R62
		SNOP		6
	.cfi_endproc
.LFE5:
	.size	DSPF_sp_qrd_solver_cmplx_wrapper, .-DSPF_sp_qrd_solver_cmplx_wrapper
	.section	.text.DSPF_sp_qrd_inverse_cmplx_wrapper,"ax",@progbits
	.align	2
	.global	DSPF_sp_qrd_inverse_cmplx_wrapper
	.type	DSPF_sp_qrd_inverse_cmplx_wrapper, @function
DSPF_sp_qrd_inverse_cmplx_wrapper:
.LFB6:
	.loc 1 86 0
	.cfi_startproc
		SMVAAGL.M1		AR14, R7:R6
		SNOP		1
		SMVAAGH.M1		AR14, R7:R6
		SNOP		1
		SSTDW		R7:R6, *AR15--[2]
.LCFI6:
	.cfi_def_cfa_offset 16
	.cfi_offset 14, 0
		SADDA.M1		16,AR15,AR14
.LCFI7:
	.cfi_def_cfa 14, 0
		SNOP		1
		SMOVIL		-64, R6
		SMOVIL		-1, R7
		SADDA.M1		R7:R6,AR15,AR15
		SNOP		1
		SSTDW		R63:R62, *+AR15[8]
	.cfi_offset 78, -16
	.cfi_offset 79, -12
		SSTDW		R11:R10, *-AR14[4]
		SSTDW		R13:R12, *-AR14[5]
		SSTW		R14, *-AR14[11]
		SSTW		R16, *-AR14[12]
		SSTDW		R19:R18, *-AR14[7]
		SSTDW		R21:R20, *-AR14[8]
		SSTDW		R23:R22, *-AR14[9]
	.loc 1 87 0
		SMOVIL		0, R10
		SBR		GetTimerCount
		SMOVIL		.L34, R62
		SMOVIH		.L34, R62
		SMOVIH4.L		.L34, R63
		SNOP		4
.L34:
		SMOV.M1		R10, R44
		SLDDW		*-AR14[4], R43:R42
		SNOP		5
		SMVAGA36.M1		R43:R42, AR10
		SNOP		1
		SSTW		R44, *AR10
	.loc 1 88 0
		SLDW		*-AR14[11], R10
		SNOP		5
		SLDW		*-AR14[12], R12
		SNOP		5
		SLDDW		*-AR14[7], R15:R14
		SNOP		5
		SLDDW		*-AR14[8], R17:R16
		SNOP		5
		SLDDW		*-AR14[9], R19:R18
		SNOP		5
		SBR		DSPF_dp_qrd_inverse_cmplx_cn
		SMOVIL		.L35, R62
		SMOVIH		.L35, R62
		SMOVIH4.L		.L35, R63
		SNOP		4
.L35:
		SSTW		R10, *-AR14[5]
	.loc 1 89 0
		SMOVIL		0, R10
		SBR		GetTimerCount
		SMOVIL		.L36, R62
		SMOVIH		.L36, R62
		SMOVIH4.L		.L36, R63
		SNOP		4
.L36:
		SMOV.M1		R10, R44
		SLDDW		*-AR14[5], R43:R42
		SNOP		5
		SMVAGA36.M1		R43:R42, AR10
		SNOP		1
		SSTW		R44, *AR10
	.loc 1 90 0
		SLDW		*-AR14[5], R42
		SNOP		5
	.loc 1 91 0
		SMOV.M1		R42, R10
		SLDDW		*+AR15[8], R63:R62
		SNOP		5
		SADDA.M1		-16,AR14,AR15
		SNOP		1
		SLDDW		*++AR15[2], R7:R6
		SNOP		5
		SMVAGA36.M1		R7:R6, AR14
		SNOP		1
		SMVCGC.L		R63, BRReg
		SNOP		1
		SBR		R62
		SNOP		6
	.cfi_endproc
.LFE6:
	.size	DSPF_sp_qrd_inverse_cmplx_wrapper, .-DSPF_sp_qrd_inverse_cmplx_wrapper
	.global	memcpy
	.section	.const,"a",@progbits
	.align	3
.LC0:
	.long	0
	.long	1072693248
	.long	0
	.long	1073741824
	.long	0
	.long	1074266112
	.long	0
	.long	1074790400
	.long	0
	.long	1075052544
	.long	0
	.long	1075314688
	.long	0
	.long	1075576832
	.long	0
	.long	1075838976
	.long	0
	.long	1075970048
	.long	0
	.long	1076101120
	.long	0
	.long	1076232192
	.long	0
	.long	1076363264
	.long	0
	.long	1076494336
	.long	0
	.long	1076625408
	.long	0
	.long	1076756480
	.long	0
	.long	1076887552
	.long	0
	.long	1076953088
	.long	0
	.long	1077018624
	.long	0
	.long	1077084160
	.long	0
	.long	1077149696
	.long	0
	.long	1077215232
	.long	0
	.long	1077280768
	.long	0
	.long	1077346304
	.long	0
	.long	1077411840
	.long	0
	.long	1077477376
	.long	0
	.long	1077542912
	.long	0
	.long	1077608448
	.long	0
	.long	1077673984
	.long	0
	.long	1077739520
	.long	0
	.long	1077805056
	.long	0
	.long	1077870592
	.long	0
	.long	1077936128
	.align	3
.LC1:
	.long	0
	.long	1077968896
	.long	0
	.long	1078001664
	.long	0
	.long	1078034432
	.long	0
	.long	1078067200
	.long	0
	.long	1078099968
	.long	0
	.long	1078132736
	.long	0
	.long	1078165504
	.long	0
	.long	1078198272
	.long	0
	.long	1078231040
	.long	0
	.long	1078263808
	.long	0
	.long	1078296576
	.long	0
	.long	1078329344
	.long	0
	.long	1078362112
	.long	0
	.long	1078394880
	.long	0
	.long	1078427648
	.long	0
	.long	1078460416
	.long	0
	.long	1078493184
	.long	0
	.long	1078525952
	.long	0
	.long	1078558720
	.long	0
	.long	1078591488
	.long	0
	.long	1078624256
	.long	0
	.long	1078657024
	.long	0
	.long	1078689792
	.long	0
	.long	1078722560
	.long	0
	.long	1078755328
	.long	0
	.long	1078788096
	.long	0
	.long	1078820864
	.long	0
	.long	1078853632
	.long	0
	.long	1078886400
	.long	0
	.long	1078919168
	.long	0
	.long	1078951936
	.long	0
	.long	1078984704
	.section	.text.dp_cmplx_mul_test,"ax",@progbits
	.align	2
	.global	dp_cmplx_mul_test
	.type	dp_cmplx_mul_test, @function
dp_cmplx_mul_test:
.LFB7:
	.loc 1 97 0
	.cfi_startproc
		SMVAAGL.M1		AR14, R7:R6
		SNOP		1
		SMVAAGH.M1		AR14, R7:R6
		SNOP		1
		SSTDW		R7:R6, *AR15--[2]
.LCFI8:
	.cfi_def_cfa_offset 16
	.cfi_offset 14, 0
		SADDA.M1		16,AR15,AR14
.LCFI9:
	.cfi_def_cfa 14, 0
		SNOP		1
		SMOVIL		-520, R6
		SMOVIL		-1, R7
		SADDA.M1		R7:R6,AR15,AR15
		SNOP		1
		SSTDW		R63:R62, *+AR15[65]
	.cfi_offset 78, -16
	.cfi_offset 79, -12
	.loc 1 98 0
		SMOVIL		-256, R42
		SMOVIL		-1, R43
		SADDA.M1		-16,AR14,OR11
		SNOP		1
		SADDA.M1		R43:R42,OR11,OR11
		SNOP		1
		SMVAAGL.M1		OR11, R45:R44
		SNOP		1
		SMVAAGH.M1		OR11, R45:R44
		SNOP		1
		SMOVIL.L		.LC0, R42
		SMOVIH.L		.LC0, R42
		SMOVIH4.L		.LC0, R43
		SMVAGA36.M1		R45:R44, OR11
		SNOP		1
		SMVAAGL.M1		OR11, R11:R10
		SNOP		1
		SMVAAGH.M1		OR11, R11:R10
		SNOP		1
		SMVAGA36.M1		R43:R42, OR11
		SNOP		1
		SMVAAGL.M1		OR11, R13:R12
		SNOP		1
		SMVAAGH.M1		OR11, R13:R12
		SNOP		1
		SMOVIL		256, R14
		SMOVIL		0, R15
		SBR		memcpy
		SMOVIL		.L38, R62
		SMOVIH		.L38, R62
		SMOVIH4.L		.L38, R63
		SNOP		4
.L38:
	.loc 1 99 0
		SMOVIL		-512, R42
		SMOVIL		-1, R43
		SADDA.M1		-16,AR14,OR11
		SNOP		1
		SADDA.M1		R43:R42,OR11,OR11
		SNOP		1
		SMVAAGL.M1		OR11, R45:R44
		SNOP		1
		SMVAAGH.M1		OR11, R45:R44
		SNOP		1
		SMOVIL.L		.LC1, R42
		SMOVIH.L		.LC1, R42
		SMOVIH4.L		.LC1, R43
		SMVAGA36.M1		R45:R44, OR11
		SNOP		1
		SMVAAGL.M1		OR11, R11:R10
		SNOP		1
		SMVAAGH.M1		OR11, R11:R10
		SNOP		1
		SMVAGA36.M1		R43:R42, OR11
		SNOP		1
		SMVAAGL.M1		OR11, R13:R12
		SNOP		1
		SMVAAGH.M1		OR11, R13:R12
		SNOP		1
		SMOVIL		256, R14
		SMOVIL		0, R15
		SBR		memcpy
		SMOVIL		.L39, R62
		SMOVIH		.L39, R62
		SMOVIH4.L		.L39, R63
		SNOP		4
.L39:
	.loc 1 101 0
		SMOVIL.L		v_Q, R42
		SMOVIH.L		v_Q, R42
		SMOVIH4.L		v_Q, R43
		SMVAGA36.M1		R43:R42, AR10
		SNOP		1
		SLDDW		*AR10, R43:R42
		SNOP		5
		SMOVIL		-256, R44
		SMOVIL		-1, R45
		SADDA.M1		-16,AR14,OR11
		SNOP		1
		SADDA.M1		R45:R44,OR11,OR11
		SNOP		1
		SMVAAGL.M1		OR11, R45:R44
		SNOP		1
		SMVAAGH.M1		OR11, R45:R44
		SNOP		1
		SMVAGA36.M1		R45:R44, OR11
		SNOP		1
		SMVAAGL.M1		OR11, R11:R10
		SNOP		1
		SMVAAGH.M1		OR11, R11:R10
		SNOP		1
		SMVAGA36.M1		R43:R42, OR11
		SNOP		1
		SMVAAGL.M1		OR11, R13:R12
		SNOP		1
		SMVAAGH.M1		OR11, R13:R12
		SNOP		1
		SMOVIL		256, R14
		SBR		M7002_datatrans
		SMOVIL		.L40, R62
		SMOVIH		.L40, R62
		SMOVIH4.L		.L40, R63
		SNOP		4
.L40:
	.loc 1 102 0
		SMOVIL.L		v_R, R42
		SMOVIH.L		v_R, R42
		SMOVIH4.L		v_R, R43
		SMVAGA36.M1		R43:R42, AR10
		SNOP		1
		SLDDW		*AR10, R43:R42
		SNOP		5
		SMOVIL		-512, R44
		SMOVIL		-1, R45
		SADDA.M1		-16,AR14,OR11
		SNOP		1
		SADDA.M1		R45:R44,OR11,OR11
		SNOP		1
		SMVAAGL.M1		OR11, R45:R44
		SNOP		1
		SMVAAGH.M1		OR11, R45:R44
		SNOP		1
		SMVAGA36.M1		R45:R44, OR11
		SNOP		1
		SMVAAGL.M1		OR11, R11:R10
		SNOP		1
		SMVAAGH.M1		OR11, R11:R10
		SNOP		1
		SMVAGA36.M1		R43:R42, OR11
		SNOP		1
		SMVAAGL.M1		OR11, R13:R12
		SNOP		1
		SMVAAGH.M1		OR11, R13:R12
		SNOP		1
		SMOVIL		256, R14
		SBR		M7002_datatrans
		SMOVIL		.L41, R62
		SMOVIH		.L41, R62
		SMOVIH4.L		.L41, R63
		SNOP		4
.L41:
	.loc 1 103 0
		SMOVIL.L		v_Q, R42
		SMOVIH.L		v_Q, R42
		SMOVIH4.L		v_Q, R43
		SMVAGA36.M1		R43:R42, AR10
		SNOP		1
		SLDDW		*AR10, R47:R46
		SNOP		5
		SMOVIL.L		v_R, R42
		SMOVIH.L		v_R, R42
		SMOVIH4.L		v_R, R43
		SMVAGA36.M1		R43:R42, AR10
		SNOP		1
		SLDDW		*AR10, R45:R44
		SNOP		5
		SMOVIL.L		v_A, R42
		SMOVIH.L		v_A, R42
		SMOVIH4.L		v_A, R43
		SMVAGA36.M1		R43:R42, AR10
		SNOP		1
		SLDDW		*AR10, R43:R42
		SNOP		5
		SMVAGA36.M1		R47:R46, OR11
		SNOP		1
		SMVAAGL.M1		OR11, R11:R10
		SNOP		1
		SMVAAGH.M1		OR11, R11:R10
		SNOP		1
		SMVAGA36.M1		R45:R44, OR11
		SNOP		1
		SMVAAGL.M1		OR11, R13:R12
		SNOP		1
		SMVAAGH.M1		OR11, R13:R12
		SNOP		1
		SMVAGA36.M1		R43:R42, OR11
		SNOP		1
		SMVAAGL.M1		OR11, R15:R14
		SNOP		1
		SMVAAGH.M1		OR11, R15:R14
		SNOP		1
		SBR		dp_cmplx_mul_asm
		SMOVIL		.L42, R62
		SMOVIH		.L42, R62
		SMOVIH4.L		.L42, R63
		SNOP		4
.L42:
	.loc 1 104 0
		SLDDW		*+AR15[65], R63:R62
		SNOP		5
		SADDA.M1		-16,AR14,AR15
		SNOP		1
		SLDDW		*++AR15[2], R7:R6
		SNOP		5
		SMVAGA36.M1		R7:R6, AR14
		SNOP		1
		SMVCGC.L		R63, BRReg
		SNOP		1
		SBR		R62
		SNOP		6
	.cfi_endproc
.LFE7:
	.size	dp_cmplx_mul_test, .-dp_cmplx_mul_test
	.section	.const,"a",@progbits
.LC7:
	.string	"begin test"
.LC8:
	.string	"end"
	.section	.text.main,"ax",@progbits
	.align	2
	.global	main
	.type	main, @function
main:
.LFB8:
	.loc 1 108 0
	.cfi_startproc
		SMVAAGL.M1		AR14, R7:R6
		SNOP		1
		SMVAAGH.M1		AR14, R7:R6
		SNOP		1
		SSTDW		R7:R6, *AR15--[2]
.LCFI10:
	.cfi_def_cfa_offset 16
	.cfi_offset 14, 0
		SADDA.M1		16,AR15,AR14
.LCFI11:
	.cfi_def_cfa 14, 0
		SNOP		1
		SMOVIL		-136, R6
		SMOVIL		-1, R7
		SADDA.M1		R7:R6,AR15,AR15
		SNOP		1
		SSTDW		R63:R62, *+AR15[17]
		SSTDW		R41:R40, *+AR15[16]
		SSTDW		R39:R38, *+AR15[15]
		SSTDW		R37:R36, *+AR15[14]
		SSTDW		R35:R34, *+AR15[13]
		SSTDW		R33:R32, *+AR15[12]
		SSTDW		R31:R30, *+AR15[11]
	.cfi_offset 78, -16
	.cfi_offset 79, -12
	.cfi_offset 56, -24
	.cfi_offset 57, -20
	.cfi_offset 54, -32
	.cfi_offset 55, -28
	.cfi_offset 52, -40
	.cfi_offset 53, -36
	.cfi_offset 50, -48
	.cfi_offset 51, -44
	.cfi_offset 48, -56
	.cfi_offset 49, -52
	.cfi_offset 46, -64
	.cfi_offset 47, -60
	.loc 1 109 0
		SMOVIL		1075052548, R42
		SMOVIH		1075052548, R42
		SMOVIL		0, R43
		SSTDW		R43:R42, *-AR14[9]
	.loc 1 110 0
		SMOVIL		1075052544, R42
		SMOVIH		1075052544, R42
		SMOVIL		0, R43
		SSTDW		R43:R42, *-AR14[10]
	.loc 1 112 0
		SLDDW		*-AR14[9], R43:R42
		SNOP		5
		SMOVIL		1, R44
		SMVAGA36.M1		R43:R42, AR10
		SNOP		1
		SSTW		R44, *AR10
	.loc 1 113 0
		SLDDW		*-AR14[10], R43:R42
		SNOP		5
		SMOVIL		1, R44
		SMVAGA36.M1		R43:R42, AR10
		SNOP		1
		SSTW		R44, *AR10
	.loc 1 114 0
		SLDDW		*-AR14[10], R43:R42
		SNOP		5
		SMVAGA36.M1		R43:R42, AR10
		SNOP		1
		SLDW		*AR10, R42
		SNOP		5
		SMOVIL		-92, R44
		SMOVIL		-1, R45
		SADDA.M1		R45:R44,AR14,AR10
		SNOP		1
		SSTW		R42, *AR10
	.loc 1 115 0
		SBR		.L44
		SNOP		6
.L45:
	.loc 1 116 0
		SLDDW		*-AR14[10], R43:R42
		SNOP		5
		SMVAGA36.M1		R43:R42, AR10
		SNOP		1
		SLDW		*AR10, R42
		SNOP		5
		SMOVIL		-92, R44
		SMOVIL		-1, R45
		SADDA.M1		R45:R44,AR14,AR10
		SNOP		1
		SSTW		R42, *AR10
.L44:
	.loc 1 115 0 discriminator 1
		SMOVIL		-92, R44
		SMOVIL		-1, R45
		SADDA.M1		R45:R44,AR14,AR10
		SNOP		1
		SLDW		*AR10, R42
		SNOP		5
		SMOV.M1		R42, R0
	[R0]	SBR		.L45
		SNOP		6
	.loc 1 118 0
		SMOVIL		0, R10
		SMOVIL		-1, R12
		SBR		SetTimerPeriod
		SMOVIL		.L46, R62
		SMOVIH		.L46, R62
		SMOVIH4.L		.L46, R63
		SNOP		4
.L46:
	.loc 1 119 0
		SMOVIL		0, R10
		SBR		TimerStart
		SMOVIL		.L47, R62
		SMOVIH		.L47, R62
		SMOVIH4.L		.L47, R63
		SNOP		4
.L47:
	.loc 1 122 0
		SMOVIL		64, R42
		SMOVIL		-84, R44
		SMOVIL		-1, R45
		SADDA.M1		R45:R44,AR14,AR10
		SNOP		1
		SSTW		R42, *AR10
	.loc 1 123 0
		SMOVIL		64, R42
		SMOVIL		-88, R44
		SMOVIL		-1, R45
		SADDA.M1		R45:R44,AR14,AR10
		SNOP		1
		SSTW		R42, *AR10
	.loc 1 124 0
		SMOVIL.L		v_A, R44
		SMOVIH.L		v_A, R44
		SMOVIH4.L		v_A, R45
		SMOVIL		1073741824, R42
		SMOVIH		1073741824, R42
		SMOVIL		0, R43
		SMVAGA36.M1		R45:R44, AR10
		SNOP		1
		SSTDW		R43:R42, *AR10
	.loc 1 125 0
		SMOVIL.L		v_A, R42
		SMOVIH.L		v_A, R42
		SMOVIH4.L		v_A, R43
		SMVAGA36.M1		R43:R42, AR10
		SNOP		1
		SLDDW		*AR10, R47:R46
		SNOP		5
		SMOVIL		-84, R44
		SMOVIL		-1, R45
		SADDA.M1		R45:R44,AR14,AR10
		SNOP		1
		SLDW		*AR10, R43
		SNOP		5
		SMOVIL		-84, R44
		SMOVIL		-1, R45
		SADDA.M1		R45:R44,AR14,AR10
		SNOP		1
		SLDW		*AR10, R42
		SNOP		5
		SMULIS.M1		R42,R43,R42
		SNOP		2
		SSHFLL		1, R42, R42
		SSHFAR		31, R42, R43
		SSHFLR		28, R43, R43
		SADD.M1		R42,R43,R42
		SSHFAR		4, R42, R42
		SMOVIL		-104, R44
		SMOVIL		-1, R45
		SADDA.M1		R45:R44,AR14,AR10
		SNOP		1
		SSTW		R42, *AR10
		SSHFAR		31, R42, R42
		SMOVIL		-100, R44
		SMOVIL		-1, R45
		SADDA.M1		R45:R44,AR14,AR10
		SNOP		1
		SSTW		R42, *AR10
		SMOVIL		100, R44
		SMOVIL		0, R45
		SMOVIL		-104, R48
		SMOVIL		-1, R49
		SADDA.M1		R49:R48,AR14,AR10
		SNOP		1
		SLDW		*AR10, R48
		SNOP		5
		SADD.M1		R44,R48,R42
		SMOVIL		-104, R50
		SMOVIL		-1, R51
		SADDA.M1		R51:R50,AR14,AR10
		SNOP		1
		SLDW		*AR10, R49
		SNOP		5
		SLTU		R42, R49, R48
		SMOVIL		-100, R50
		SMOVIL		-1, R51
		SADDA.M1		R51:R50,AR14,AR10
		SNOP		1
		SLDW		*AR10, R49
		SNOP		5
		SADD.M1		R45,R49,R43
		SADD.M1		R43,R48,R44
		SMOV.M1		R44, R43
		SSHFLR		26, R42, R44
		SSHFLL		6, R43, R41
		SOR		R41, R44, R41
		SSHFLL		6, R42, R40
		SMOV.M1		R40, R42
		SMOV.M1		R41, R43
	;no-op trunc di R43:R42 to pdi R43:R42
		SMVAGA36.M1		R47:R46, OR11
		SNOP		1
		SADDA.M1		R43:R42,OR11,OR11
		SNOP		1
		SMVAAGL.M1		OR11, R45:R44
		SNOP		1
		SMVAAGH.M1		OR11, R45:R44
		SNOP		1
		SMOVIL.L		v_Q, R42
		SMOVIH.L		v_Q, R42
		SMOVIH4.L		v_Q, R43
		SMVAGA36.M1		R43:R42, AR10
		SNOP		1
		SSTDW		R45:R44, *AR10
	.loc 1 126 0
		SMOVIL.L		v_Q, R42
		SMOVIH.L		v_Q, R42
		SMOVIH4.L		v_Q, R43
		SMVAGA36.M1		R43:R42, AR10
		SNOP		1
		SLDDW		*AR10, R47:R46
		SNOP		5
		SMOVIL		-84, R44
		SMOVIL		-1, R45
		SADDA.M1		R45:R44,AR14,AR10
		SNOP		1
		SLDW		*AR10, R43
		SNOP		5
		SMOVIL		-84, R44
		SMOVIL		-1, R45
		SADDA.M1		R45:R44,AR14,AR10
		SNOP		1
		SLDW		*AR10, R42
		SNOP		5
		SMULIS.M1		R42,R43,R42
		SNOP		2
		SSHFLL		1, R42, R42
		SSHFAR		31, R42, R43
		SSHFLR		28, R43, R43
		SADD.M1		R42,R43,R42
		SSHFAR		4, R42, R42
		SMOVIL		-112, R44
		SMOVIL		-1, R45
		SADDA.M1		R45:R44,AR14,AR10
		SNOP		1
		SSTW		R42, *AR10
		SSHFAR		31, R42, R42
		SMOVIL		-108, R44
		SMOVIL		-1, R45
		SADDA.M1		R45:R44,AR14,AR10
		SNOP		1
		SSTW		R42, *AR10
		SMOVIL		100, R44
		SMOVIL		0, R45
		SMOVIL		-112, R48
		SMOVIL		-1, R49
		SADDA.M1		R49:R48,AR14,AR10
		SNOP		1
		SLDW		*AR10, R48
		SNOP		5
		SADD.M1		R44,R48,R42
		SMOVIL		-112, R50
		SMOVIL		-1, R51
		SADDA.M1		R51:R50,AR14,AR10
		SNOP		1
		SLDW		*AR10, R49
		SNOP		5
		SLTU		R42, R49, R48
		SMOVIL		-108, R50
		SMOVIL		-1, R51
		SADDA.M1		R51:R50,AR14,AR10
		SNOP		1
		SLDW		*AR10, R49
		SNOP		5
		SADD.M1		R45,R49,R43
		SADD.M1		R43,R48,R44
		SMOV.M1		R44, R43
		SSHFLR		26, R42, R44
		SSHFLL		6, R43, R39
		SOR		R39, R44, R39
		SSHFLL		6, R42, R38
		SMOV.M1		R38, R42
		SMOV.M1		R39, R43
	;no-op trunc di R43:R42 to pdi R43:R42
		SMVAGA36.M1		R47:R46, OR11
		SNOP		1
		SADDA.M1		R43:R42,OR11,OR11
		SNOP		1
		SMVAAGL.M1		OR11, R45:R44
		SNOP		1
		SMVAAGH.M1		OR11, R45:R44
		SNOP		1
		SMOVIL.L		v_R, R42
		SMOVIH.L		v_R, R42
		SMOVIH4.L		v_R, R43
		SMVAGA36.M1		R43:R42, AR10
		SNOP		1
		SSTDW		R45:R44, *AR10
	.loc 1 127 0
		SMOVIL.L		v_R, R42
		SMOVIH.L		v_R, R42
		SMOVIH4.L		v_R, R43
		SMVAGA36.M1		R43:R42, AR10
		SNOP		1
		SLDDW		*AR10, R47:R46
		SNOP		5
		SMOVIL		-88, R44
		SMOVIL		-1, R45
		SADDA.M1		R45:R44,AR14,AR10
		SNOP		1
		SLDW		*AR10, R43
		SNOP		5
		SMOVIL		-84, R44
		SMOVIL		-1, R45
		SADDA.M1		R45:R44,AR14,AR10
		SNOP		1
		SLDW		*AR10, R42
		SNOP		5
		SMAX		R43, R42, R42
		SSHFLL		1, R42, R42
		SSHFAR		31, R42, R43
		SSHFLR		28, R43, R43
		SADD.M1		R42,R43,R42
		SSHFAR		4, R42, R42
		SMOVIL		-120, R44
		SMOVIL		-1, R45
		SADDA.M1		R45:R44,AR14,AR10
		SNOP		1
		SSTW		R42, *AR10
		SSHFAR		31, R42, R42
		SMOVIL		-116, R44
		SMOVIL		-1, R45
		SADDA.M1		R45:R44,AR14,AR10
		SNOP		1
		SSTW		R42, *AR10
		SMOVIL		100, R44
		SMOVIL		0, R45
		SMOVIL		-120, R48
		SMOVIL		-1, R49
		SADDA.M1		R49:R48,AR14,AR10
		SNOP		1
		SLDW		*AR10, R48
		SNOP		5
		SADD.M1		R44,R48,R42
		SMOVIL		-120, R50
		SMOVIL		-1, R51
		SADDA.M1		R51:R50,AR14,AR10
		SNOP		1
		SLDW		*AR10, R49
		SNOP		5
		SLTU		R42, R49, R48
		SMOVIL		-116, R50
		SMOVIL		-1, R51
		SADDA.M1		R51:R50,AR14,AR10
		SNOP		1
		SLDW		*AR10, R49
		SNOP		5
		SADD.M1		R45,R49,R43
		SADD.M1		R43,R48,R44
		SMOV.M1		R44, R43
		SSHFLR		26, R42, R44
		SSHFLL		6, R43, R37
		SOR		R37, R44, R37
		SSHFLL		6, R42, R36
		SMOV.M1		R36, R42
		SMOV.M1		R37, R43
	;no-op trunc di R43:R42 to pdi R43:R42
		SMVAGA36.M1		R47:R46, OR11
		SNOP		1
		SADDA.M1		R43:R42,OR11,OR11
		SNOP		1
		SMVAAGL.M1		OR11, R45:R44
		SNOP		1
		SMVAAGH.M1		OR11, R45:R44
		SNOP		1
		SMOVIL.L		v_u, R42
		SMOVIH.L		v_u, R42
		SMOVIH4.L		v_u, R43
		SMVAGA36.M1		R43:R42, AR10
		SNOP		1
		SSTDW		R45:R44, *AR10
	.loc 1 128 0
		SMOVIL.L		v_u, R42
		SMOVIH.L		v_u, R42
		SMOVIH4.L		v_u, R43
		SMVAGA36.M1		R43:R42, AR10
		SNOP		1
		SLDDW		*AR10, R47:R46
		SNOP		5
		SMOVIL		-84, R44
		SMOVIL		-1, R45
		SADDA.M1		R45:R44,AR14,AR10
		SNOP		1
		SLDW		*AR10, R42
		SNOP		5
		SSHFLL		1, R42, R42
		SSHFAR		31, R42, R43
		SSHFLR		28, R43, R43
		SADD.M1		R42,R43,R42
		SSHFAR		4, R42, R42
		SMOVIL		-128, R44
		SMOVIL		-1, R45
		SADDA.M1		R45:R44,AR14,AR10
		SNOP		1
		SSTW		R42, *AR10
		SSHFAR		31, R42, R42
		SMOVIL		-124, R44
		SMOVIL		-1, R45
		SADDA.M1		R45:R44,AR14,AR10
		SNOP		1
		SSTW		R42, *AR10
		SMOVIL		100, R44
		SMOVIL		0, R45
		SMOVIL		-128, R48
		SMOVIL		-1, R49
		SADDA.M1		R49:R48,AR14,AR10
		SNOP		1
		SLDW		*AR10, R48
		SNOP		5
		SADD.M1		R44,R48,R42
		SMOVIL		-128, R50
		SMOVIL		-1, R51
		SADDA.M1		R51:R50,AR14,AR10
		SNOP		1
		SLDW		*AR10, R49
		SNOP		5
		SLTU		R42, R49, R48
		SMOVIL		-124, R50
		SMOVIL		-1, R51
		SADDA.M1		R51:R50,AR14,AR10
		SNOP		1
		SLDW		*AR10, R49
		SNOP		5
		SADD.M1		R45,R49,R43
		SADD.M1		R43,R48,R44
		SMOV.M1		R44, R43
		SSHFLR		26, R42, R44
		SSHFLL		6, R43, R35
		SOR		R35, R44, R35
		SSHFLL		6, R42, R34
		SMOV.M1		R34, R42
		SMOV.M1		R35, R43
	;no-op trunc di R43:R42 to pdi R43:R42
		SMVAGA36.M1		R47:R46, OR11
		SNOP		1
		SADDA.M1		R43:R42,OR11,OR11
		SNOP		1
		SMVAAGL.M1		OR11, R45:R44
		SNOP		1
		SMVAAGH.M1		OR11, R45:R44
		SNOP		1
		SMOVIL.L		v_b, R42
		SMOVIH.L		v_b, R42
		SMOVIH4.L		v_b, R43
		SMVAGA36.M1		R43:R42, AR10
		SNOP		1
		SSTDW		R45:R44, *AR10
	.loc 1 129 0
		SMOVIL.L		v_b, R42
		SMOVIH.L		v_b, R42
		SMOVIH4.L		v_b, R43
		SMVAGA36.M1		R43:R42, AR10
		SNOP		1
		SLDDW		*AR10, R47:R46
		SNOP		5
		SMOVIL		-84, R44
		SMOVIL		-1, R45
		SADDA.M1		R45:R44,AR14,AR10
		SNOP		1
		SLDW		*AR10, R42
		SNOP		5
		SSHFLL		1, R42, R42
		SSHFAR		31, R42, R43
		SSHFLR		28, R43, R43
		SADD.M1		R42,R43,R42
		SSHFAR		4, R42, R42
		SMOVIL		-136, R44
		SMOVIL		-1, R45
		SADDA.M1		R45:R44,AR14,AR10
		SNOP		1
		SSTW		R42, *AR10
		SSHFAR		31, R42, R42
		SMOVIL		-132, R44
		SMOVIL		-1, R45
		SADDA.M1		R45:R44,AR14,AR10
		SNOP		1
		SSTW		R42, *AR10
		SMOVIL		100, R44
		SMOVIL		0, R45
		SMOVIL		-136, R48
		SMOVIL		-1, R49
		SADDA.M1		R49:R48,AR14,AR10
		SNOP		1
		SLDW		*AR10, R48
		SNOP		5
		SADD.M1		R44,R48,R42
		SMOVIL		-136, R50
		SMOVIL		-1, R51
		SADDA.M1		R51:R50,AR14,AR10
		SNOP		1
		SLDW		*AR10, R49
		SNOP		5
		SLTU		R42, R49, R48
		SMOVIL		-132, R50
		SMOVIL		-1, R51
		SADDA.M1		R51:R50,AR14,AR10
		SNOP		1
		SLDW		*AR10, R49
		SNOP		5
		SADD.M1		R45,R49,R43
		SADD.M1		R43,R48,R44
		SMOV.M1		R44, R43
		SSHFLR		26, R42, R44
		SSHFLL		6, R43, R33
		SOR		R33, R44, R33
		SSHFLL		6, R42, R32
		SMOV.M1		R32, R42
		SMOV.M1		R33, R43
	;no-op trunc di R43:R42 to pdi R43:R42
		SMVAGA36.M1		R47:R46, OR11
		SNOP		1
		SADDA.M1		R43:R42,OR11,OR11
		SNOP		1
		SMVAAGL.M1		OR11, R45:R44
		SNOP		1
		SMVAAGH.M1		OR11, R45:R44
		SNOP		1
		SMOVIL.L		v_y, R42
		SMOVIH.L		v_y, R42
		SMOVIH4.L		v_y, R43
		SMVAGA36.M1		R43:R42, AR10
		SNOP		1
		SSTDW		R45:R44, *AR10
	.loc 1 130 0
		SMOVIL.L		v_y, R42
		SMOVIH.L		v_y, R42
		SMOVIH4.L		v_y, R43
		SMVAGA36.M1		R43:R42, AR10
		SNOP		1
		SLDDW		*AR10, R47:R46
		SNOP		5
		SMOVIL		-88, R44
		SMOVIL		-1, R45
		SADDA.M1		R45:R44,AR14,AR10
		SNOP		1
		SLDW		*AR10, R42
		SNOP		5
		SSHFLL		1, R42, R42
		SSHFAR		31, R42, R43
		SSHFLR		28, R43, R43
		SADD.M1		R42,R43,R42
		SSHFAR		4, R42, R42
		SMOVIL		-144, R44
		SMOVIL		-1, R45
		SADDA.M1		R45:R44,AR14,AR10
		SNOP		1
		SSTW		R42, *AR10
		SSHFAR		31, R42, R42
		SMOVIL		-140, R44
		SMOVIL		-1, R45
		SADDA.M1		R45:R44,AR14,AR10
		SNOP		1
		SSTW		R42, *AR10
		SMOVIL		100, R44
		SMOVIL		0, R45
		SMOVIL		-144, R48
		SMOVIL		-1, R49
		SADDA.M1		R49:R48,AR14,AR10
		SNOP		1
		SLDW		*AR10, R48
		SNOP		5
		SADD.M1		R44,R48,R42
		SMOVIL		-144, R50
		SMOVIL		-1, R51
		SADDA.M1		R51:R50,AR14,AR10
		SNOP		1
		SLDW		*AR10, R49
		SNOP		5
		SLTU		R42, R49, R48
		SMOVIL		-140, R50
		SMOVIL		-1, R51
		SADDA.M1		R51:R50,AR14,AR10
		SNOP		1
		SLDW		*AR10, R49
		SNOP		5
		SADD.M1		R45,R49,R43
		SADD.M1		R43,R48,R44
		SMOV.M1		R44, R43
		SSHFLR		26, R42, R44
		SSHFLL		6, R43, R31
		SOR		R31, R44, R31
		SSHFLL		6, R42, R30
		SMOV.M1		R30, R42
		SMOV.M1		R31, R43
	;no-op trunc di R43:R42 to pdi R43:R42
		SMVAGA36.M1		R47:R46, OR11
		SNOP		1
		SADDA.M1		R43:R42,OR11,OR11
		SNOP		1
		SMVAAGL.M1		OR11, R45:R44
		SNOP		1
		SMVAAGH.M1		OR11, R45:R44
		SNOP		1
		SMOVIL.L		v_x, R42
		SMOVIH.L		v_x, R42
		SMOVIH4.L		v_x, R43
		SMVAGA36.M1		R43:R42, AR10
		SNOP		1
		SSTDW		R45:R44, *AR10
	.loc 1 132 0
		SMOVIL.L		.LC7, R10
		SMOVIH.L		.LC7, R10
		SMOVIH4.L		.LC7, R11
		SBR		puts
		SMOVIL		.L48, R62
		SMOVIH		.L48, R62
		SMOVIH4.L		.L48, R63
		SNOP		4
.L48:
	.loc 1 135 0
		SBR		dp_cmplx_mul_test
		SMOVIL		.L49, R62
		SMOVIH		.L49, R62
		SMOVIH4.L		.L49, R63
		SNOP		4
.L49:
	.loc 1 137 0
		SMOVIL.L		.LC8, R10
		SMOVIH.L		.LC8, R10
		SMOVIH4.L		.LC8, R11
		SBR		puts
		SMOVIL		.L50, R62
		SMOVIH		.L50, R62
		SMOVIH4.L		.L50, R63
		SNOP		4
.L50:
	.loc 1 138 0
		SMOV.M1		R42, R10
		SLDDW		*+AR15[11], R31:R30
		SNOP		5
		SLDDW		*+AR15[12], R33:R32
		SNOP		5
		SLDDW		*+AR15[13], R35:R34
		SNOP		5
		SLDDW		*+AR15[14], R37:R36
		SNOP		5
		SLDDW		*+AR15[15], R39:R38
		SNOP		5
		SLDDW		*+AR15[16], R41:R40
		SNOP		5
		SLDDW		*+AR15[17], R63:R62
		SNOP		5
		SADDA.M1		-16,AR14,AR15
		SNOP		1
		SLDDW		*++AR15[2], R7:R6
		SNOP		5
		SMVAGA36.M1		R7:R6, AR14
		SNOP		1
		SMVCGC.L		R63, BRReg
		SNOP		1
		SBR		R62
		SNOP		6
	.cfi_endproc
.LFE8:
	.size	main, .-main
	.section	.const,"a",@progbits
.LC9:
	.string	"DSPF_sp_qrd_cmplx\tIter#: %d\t"
.LC10:
	.string	"QRD decomposition failed!"
.LC11:
	.string	"nat C decomp error real=%e\n"
.LC12:
	.string	"nat C decomp error imag=%e\n"
.LC13:
	.string	"nat C transformation error = %e %e\n"
.LC14:
	.string	"solver failed!"
.LC15:
	.string	"nat C solver error real=%e at row,col = %d %d\n"
.LC16:
	.string	"nat C solver error imag=%e at row,col = %d %d\n"
.LC17:
	.string	"nat C inverse error real=%e\n"
.LC18:
	.string	"nat C inverse error imag=%e\n"
.LC19:
	.string	"Result Successful"
.LC20:
	.string	"\torder=%2dx%2d  qrd: %d  solver: %d  inverse: %d\n"
.LC21:
	.string	"Result Failure\torder=%2d\n"
	.section	.text.test_qr_solver_complx,"ax",@progbits
	.align	2
	.global	test_qr_solver_complx
	.type	test_qr_solver_complx, @function
test_qr_solver_complx:
.LFB9:
	.loc 1 143 0
	.cfi_startproc
		SMVAAGL.M1		AR14, R7:R6
		SNOP		1
		SMVAAGH.M1		AR14, R7:R6
		SNOP		1
		SSTDW		R7:R6, *AR15--[2]
.LCFI12:
	.cfi_def_cfa_offset 16
	.cfi_offset 14, 0
		SADDA.M1		16,AR15,AR14
.LCFI13:
	.cfi_def_cfa 14, 0
		SNOP		1
		SMOVIL		-1024, R6
		SMOVIL		-1, R7
		SADDA.M1		R7:R6,AR15,AR15
		SNOP		1
		SSTDW		R63:R62, *+AR15[128]
		SMVAAGL.M1		AR8, R7:R6
		SNOP		1
		SMVAAGH.M1		AR8, R7:R6
		SNOP		1
		SSTDW		R7:R6, *+AR15[127]
		SSTDW		R41:R40, *+AR15[126]
		SSTDW		R39:R38, *+AR15[125]
		SSTDW		R37:R36, *+AR15[124]
		SSTDW		R35:R34, *+AR15[123]
		SSTDW		R33:R32, *+AR15[122]
		SSTDW		R31:R30, *+AR15[121]
	.cfi_offset 78, -16
	.cfi_offset 79, -12
	.cfi_offset 8, -24
	.cfi_offset 56, -32
	.cfi_offset 57, -28
	.cfi_offset 54, -40
	.cfi_offset 55, -36
	.cfi_offset 52, -48
	.cfi_offset 53, -44
	.cfi_offset 50, -56
	.cfi_offset 51, -52
	.cfi_offset 48, -64
	.cfi_offset 49, -60
	.cfi_offset 46, -72
	.cfi_offset 47, -68
		SMOVIL		-176, R42
		SMOVIL		-1, R43
		SMOVIL		-72, R44
		SMOVIL		-1, R45
		SADDA.M1		R45:R44,AR14,OR11
		SNOP		1
		SADDA.M1		R43:R42,OR11,OR11
		SNOP		1
		SMVAAGL.M1		OR11, R43:R42
		SNOP		1
		SMVAAGH.M1		OR11, R43:R42
		SNOP		1
		SMVAGA36.M1		R43:R42, AR10
		SNOP		1
		SSTDW		R11:R10, *AR10
		SMOVIL		-184, R42
		SMOVIL		-1, R43
		SMOVIL		-72, R44
		SMOVIL		-1, R45
		SADDA.M1		R45:R44,AR14,OR11
		SNOP		1
		SADDA.M1		R43:R42,OR11,OR11
		SNOP		1
		SMVAAGL.M1		OR11, R43:R42
		SNOP		1
		SMVAAGH.M1		OR11, R43:R42
		SNOP		1
		SMVAGA36.M1		R43:R42, AR10
		SNOP		1
		SSTDW		R13:R12, *AR10
		SMOVIL		-192, R42
		SMOVIL		-1, R43
		SMOVIL		-72, R44
		SMOVIL		-1, R45
		SADDA.M1		R45:R44,AR14,OR11
		SNOP		1
		SADDA.M1		R43:R42,OR11,OR11
		SNOP		1
		SMVAAGL.M1		OR11, R43:R42
		SNOP		1
		SMVAAGH.M1		OR11, R43:R42
		SNOP		1
		SMVAGA36.M1		R43:R42, AR10
		SNOP		1
		SSTDW		R15:R14, *AR10
		SMOVIL		-200, R42
		SMOVIL		-1, R43
		SMOVIL		-72, R44
		SMOVIL		-1, R45
		SADDA.M1		R45:R44,AR14,OR11
		SNOP		1
		SADDA.M1		R43:R42,OR11,OR11
		SNOP		1
		SMVAAGL.M1		OR11, R43:R42
		SNOP		1
		SMVAAGH.M1		OR11, R43:R42
		SNOP		1
		SMVAGA36.M1		R43:R42, AR10
		SNOP		1
		SSTDW		R17:R16, *AR10
		SMOVIL		-208, R42
		SMOVIL		-1, R43
		SMOVIL		-72, R44
		SMOVIL		-1, R45
		SADDA.M1		R45:R44,AR14,OR11
		SNOP		1
		SADDA.M1		R43:R42,OR11,OR11
		SNOP		1
		SMVAAGL.M1		OR11, R43:R42
		SNOP		1
		SMVAAGH.M1		OR11, R43:R42
		SNOP		1
		SMVAGA36.M1		R43:R42, AR10
		SNOP		1
		SSTDW		R19:R18, *AR10
		SMOVIL		-216, R42
		SMOVIL		-1, R43
		SMOVIL		-72, R44
		SMOVIL		-1, R45
		SADDA.M1		R45:R44,AR14,OR11
		SNOP		1
		SADDA.M1		R43:R42,OR11,OR11
		SNOP		1
		SMVAAGL.M1		OR11, R43:R42
		SNOP		1
		SMVAAGH.M1		OR11, R43:R42
		SNOP		1
		SMVAGA36.M1		R43:R42, AR10
		SNOP		1
		SSTDW		R21:R20, *AR10
		SMOVIL		-224, R42
		SMOVIL		-1, R43
		SMOVIL		-72, R44
		SMOVIL		-1, R45
		SADDA.M1		R45:R44,AR14,OR11
		SNOP		1
		SADDA.M1		R43:R42,OR11,OR11
		SNOP		1
		SMVAAGL.M1		OR11, R43:R42
		SNOP		1
		SMVAAGH.M1		OR11, R43:R42
		SNOP		1
		SMVAGA36.M1		R43:R42, AR10
		SNOP		1
		SSTDW		R23:R22, *AR10
		SMOVIL		-232, R42
		SMOVIL		-1, R43
		SMOVIL		-72, R44
		SMOVIL		-1, R45
		SADDA.M1		R45:R44,AR14,OR11
		SNOP		1
		SADDA.M1		R43:R42,OR11,OR11
		SNOP		1
		SMVAAGL.M1		OR11, R43:R42
		SNOP		1
		SMVAAGH.M1		OR11, R43:R42
		SNOP		1
		SMVAGA36.M1		R43:R42, AR10
		SNOP		1
		SSTDW		R25:R24, *AR10
	.loc 1 145 0
		SMOVIL		-92, R42
		SMOVIL		-1, R43
		SMOVIL		-72, R44
		SMOVIL		-1, R45
		SADDA.M1		R45:R44,AR14,OR11
		SNOP		1
		SADDA.M1		R43:R42,OR11,OR11
		SNOP		1
		SMVAAGL.M1		OR11, R43:R42
		SNOP		1
		SMVAAGH.M1		OR11, R43:R42
		SNOP		1
		SMOVIL		1, R44
		SMVAGA36.M1		R43:R42, AR10
		SNOP		1
		SSTW		R44, *AR10
	.loc 1 167 0
		SMOVIL		0, R10
		SBR		GetTimerCount
		SMOVIL		.L166, R62
		SMOVIH		.L166, R62
		SMOVIH4.L		.L166, R63
		SNOP		4
.L166:
		SMOV.M1		R10, R44
		SMOVIL		-164, R42
		SMOVIL		-1, R43
		SMOVIL		-72, R46
		SMOVIL		-1, R47
		SADDA.M1		R47:R46,AR14,OR11
		SNOP		1
		SADDA.M1		R43:R42,OR11,OR11
		SNOP		1
		SMVAAGL.M1		OR11, R43:R42
		SNOP		1
		SMVAAGH.M1		OR11, R43:R42
		SNOP		1
		SMVAGA36.M1		R43:R42, AR10
		SNOP		1
		SSTW		R44, *AR10
	.loc 1 169 0
		SMOVIL		0, R10
		SBR		GetTimerCount
		SMOVIL		.L167, R62
		SMOVIH		.L167, R62
		SMOVIH4.L		.L167, R63
		SNOP		4
.L167:
		SMOV.M1		R10, R44
		SMOVIL		-168, R42
		SMOVIL		-1, R43
		SMOVIL		-72, R46
		SMOVIL		-1, R47
		SADDA.M1		R47:R46,AR14,OR11
		SNOP		1
		SADDA.M1		R43:R42,OR11,OR11
		SNOP		1
		SMVAAGL.M1		OR11, R43:R42
		SNOP		1
		SMVAAGH.M1		OR11, R43:R42
		SNOP		1
		SMVAGA36.M1		R43:R42, AR10
		SNOP		1
		SSTW		R44, *AR10
	.loc 1 171 0
		SMOVIL		-168, R42
		SMOVIL		-1, R43
		SMOVIL		-72, R44
		SMOVIL		-1, R45
		SADDA.M1		R45:R44,AR14,OR11
		SNOP		1
		SADDA.M1		R43:R42,OR11,OR11
		SNOP		1
		SMVAAGL.M1		OR11, R43:R42
		SNOP		1
		SMVAAGH.M1		OR11, R43:R42
		SNOP		1
		SMVAGA36.M1		R43:R42, AR10
		SNOP		1
		SLDW		*AR10, R44
		SNOP		5
		SMOVIL		-164, R42
		SMOVIL		-1, R43
		SMOVIL		-72, R46
		SMOVIL		-1, R47
		SADDA.M1		R47:R46,AR14,OR11
		SNOP		1
		SADDA.M1		R43:R42,OR11,OR11
		SNOP		1
		SMVAAGL.M1		OR11, R43:R42
		SNOP		1
		SMVAAGH.M1		OR11, R43:R42
		SNOP		1
		SMVAGA36.M1		R43:R42, AR10
		SNOP		1
		SLDW		*AR10, R42
		SNOP		5
		SSUB.M1		R42, R44, R44
		SMOVIL		-104, R42
		SMOVIL		-1, R43
		SMOVIL		-72, R46
		SMOVIL		-1, R47
		SADDA.M1		R47:R46,AR14,OR11
		SNOP		1
		SADDA.M1		R43:R42,OR11,OR11
		SNOP		1
		SMVAAGL.M1		OR11, R43:R42
		SNOP		1
		SMVAAGH.M1		OR11, R43:R42
		SNOP		1
		SMVAGA36.M1		R43:R42, AR10
		SNOP		1
		SSTW		R44, *AR10
		SMOVIL		-100, R42
		SMOVIL		-1, R43
		SMOVIL		-72, R44
		SMOVIL		-1, R45
		SADDA.M1		R45:R44,AR14,OR11
		SNOP		1
		SADDA.M1		R43:R42,OR11,OR11
		SNOP		1
		SMVAAGL.M1		OR11, R43:R42
		SNOP		1
		SMVAAGH.M1		OR11, R43:R42
		SNOP		1
		SMOVIL		0, R44
		SMVAGA36.M1		R43:R42, AR10
		SNOP		1
		SSTW		R44, *AR10
	.loc 1 177 0
		SMOVIL		0, R42
		SMOVIL		1076101120, R43
		SMOVIH		1076101120, R43
		SMOVIL		-184, R44
		SMOVIL		-1, R45
		SADDA.M1		R45:R44,AR14,AR10
		SNOP		1
		SSTDW		R43:R42, *AR10
	.loc 1 178 0
		SMOVIL		1, R42
		SMOVIL		-76, R44
		SMOVIL		-1, R45
		SADDA.M1		R45:R44,AR14,AR10
		SNOP		1
		SSTH		R42, *AR10
	.loc 1 180 0
		SMOVIL		1, R42
		SMOVIL		-74, R44
		SMOVIL		-1, R45
		SADDA.M1		R45:R44,AR14,AR10
		SNOP		1
		SSTH		R42, *AR10
		SBR		.L52
		SNOP		6
.L143:
	.loc 1 182 0
		SMOVIL		-74, R44
		SMOVIL		-1, R45
		SADDA.M1		R45:R44,AR14,AR10
		SNOP		1
		SLDH		*AR10, R42
		SNOP		5
		SSHFLL		16, R42, R44
		SSHFLR		16, R44, R44
		SMOVIL.L		.LC9, R42
		SMOVIH.L		.LC9, R42
		SMOVIH4.L		.LC9, R43
		SSTDW		R43:R42, *+AR15[1]
		SSTW		R44, *+AR15[4]
		SBR		printf
		SMOVIL		.L168, R62
		SMOVIH		.L168, R62
		SMOVIH4.L		.L168, R63
		SNOP		4
.L168:
	.loc 1 184 0
		SMOVIL		-74, R44
		SMOVIL		-1, R45
		SADDA.M1		R45:R44,AR14,AR10
		SNOP		1
		SLDH		*AR10, R42
		SNOP		5
		SSHFLL		16, R42, R43
		SSHFLR		16, R43, R43
		SMOVIL		2, R0
		SEQ		R0, R43, R42
		SMOV.M1		R42, R0
	[R0]	SBR		.L55
		SNOP		6
		SMOVIL		3, R44
		SEQ		R44, R43, R42
		SMOV.M1		R42, R0
	[R0]	SBR		.L56
		SNOP		6
		SMOVIL		1, R44
		SEQ		R44, R43, R42
		SMOV.M1		R42, R0
	[!R0]	SBR		.L53
		SNOP		6
.L54:
	.loc 1 188 0
		SMOVIL		16, R42
		SMOVIL		-78, R44
		SMOVIL		-1, R45
		SADDA.M1		R45:R44,AR14,AR10
		SNOP		1
		SSTH		R42, *AR10
	.loc 1 189 0
		SMOVIL		-78, R44
		SMOVIL		-1, R45
		SADDA.M1		R45:R44,AR14,AR10
		SNOP		1
		SLDH		*AR10, R42
		SNOP		5
		SMOVIL		-80, R44
		SMOVIL		-1, R45
		SADDA.M1		R45:R44,AR14,AR10
		SNOP		1
		SSTH		R42, *AR10
	.loc 1 190 0
		SMOVIL		1, R10
		SBR		srand
		SMOVIL		.L169, R62
		SMOVIH		.L169, R62
		SMOVIH4.L		.L169, R63
		SNOP		4
.L169:
	.loc 1 191 0
		SMOVIL		-68, R42
		SMOVIL		-1, R43
		SMOVIL		-72, R44
		SMOVIL		-1, R45
		SADDA.M1		R45:R44,AR14,OR11
		SNOP		1
		SADDA.M1		R43:R42,OR11,OR11
		SNOP		1
		SMVAAGL.M1		OR11, R43:R42
		SNOP		1
		SMVAAGH.M1		OR11, R43:R42
		SNOP		1
		SMOVIL		0, R44
		SMVAGA36.M1		R43:R42, AR10
		SNOP		1
		SSTW		R44, *AR10
		SBR		.L57
		SNOP		6
.L60:
	.loc 1 193 0
		SMOVIL		-72, R42
		SMOVIL		-1, R43
		SMOVIL		-72, R44
		SMOVIL		-1, R45
		SADDA.M1		R45:R44,AR14,OR11
		SNOP		1
		SADDA.M1		R43:R42,OR11,OR11
		SNOP		1
		SMVAAGL.M1		OR11, R43:R42
		SNOP		1
		SMVAAGH.M1		OR11, R43:R42
		SNOP		1
		SMOVIL		0, R44
		SMVAGA36.M1		R43:R42, AR10
		SNOP		1
		SSTW		R44, *AR10
		SBR		.L58
		SNOP		6
.L59:
	.loc 1 195 0 discriminator 2
		SMOVIL		-68, R42
		SMOVIL		-1, R43
		SMOVIL		-72, R44
		SMOVIL		-1, R45
		SADDA.M1		R45:R44,AR14,OR11
		SNOP		1
		SADDA.M1		R43:R42,OR11,OR11
		SNOP		1
		SMVAAGL.M1		OR11, R43:R42
		SNOP		1
		SMVAAGH.M1		OR11, R43:R42
		SNOP		1
		SMVAGA36.M1		R43:R42, AR10
		SNOP		1
		SLDW		*AR10, R42
		SNOP		5
		SSHFLL		1, R42, R43
		SMOVIL		-80, R44
		SMOVIL		-1, R45
		SADDA.M1		R45:R44,AR14,AR10
		SNOP		1
		SLDH		*AR10, R42
		SNOP		5
		SSHFLL		16, R42, R42
		SSHFLR		16, R42, R42
		SMULIS.M1		R42,R43,R44
		SNOP		2
		SMOVIL		-72, R42
		SMOVIL		-1, R43
		SMOVIL		-72, R46
		SMOVIL		-1, R47
		SADDA.M1		R47:R46,AR14,OR11
		SNOP		1
		SADDA.M1		R43:R42,OR11,OR11
		SNOP		1
		SMVAAGL.M1		OR11, R43:R42
		SNOP		1
		SMVAAGH.M1		OR11, R43:R42
		SNOP		1
		SMVAGA36.M1		R43:R42, AR10
		SNOP		1
		SLDW		*AR10, R42
		SNOP		5
		SADD.M1		R42,R44,R42
		SMOV.M1		R42, R30
		SSHFAR		31, R42, R42
		SMOV.M1		R42, R31
		SADD.M1		R30,R30,R44
		SLTU		R44, R30, R42
		SADD.M1		R31,R31,R45
		SADD.M1		R45,R42,R42
		SMOV.M1		R42, R45
		SADD.M1		R44,R44,R42
		SLTU		R42, R44, R46
		SADD.M1		R45,R45,R43
		SADD.M1		R43,R46,R44
		SMOV.M1		R44, R43
		SADD.M1		R42,R42,R44
		SLTU		R44, R42, R46
		SADD.M1		R43,R43,R45
		SADD.M1		R45,R46,R42
		SMOV.M1		R42, R45
		SMOVIL		-176, R42
		SMOVIL		-1, R43
		SMOVIL		-72, R46
		SMOVIL		-1, R47
		SADDA.M1		R47:R46,AR14,OR11
		SNOP		1
		SADDA.M1		R43:R42,OR11,OR11
		SNOP		1
		SMVAAGL.M1		OR11, R43:R42
		SNOP		1
		SMVAAGH.M1		OR11, R43:R42
		SNOP		1
	;no-op trunc di R45:R44 to pdi R45:R44
		SMVAGA36.M1		R43:R42, AR10
		SNOP		1
		SLDDW		*AR10, R43:R42
		SNOP		5
		SMVAGA36.M1		R43:R42, OR11
		SNOP		1
		SADDA.M1		R45:R44,OR11,AR8
		SNOP		1
		SBR		rand
		SMOVIL		.L170, R62
		SMOVIH		.L170, R62
		SMOVIH4.L		.L170, R63
		SNOP		4
.L170:
		SMOV.M1		R10, R42
		SFINTD.M1		R42,R45:R44
		SNOP		3
		SMOVIL		1074266368, R42
		SMOVIH		1074266368, R42
		SMOVIL		1061159424, R43
		SMOVIH		1061159424, R43
		SFMULD.M1		R45:R44, R43:R42, R43:R42
		SNOP		5
		SSTDW		R43:R42, *AR8
	.loc 1 193 0 discriminator 2
		SMOVIL		-72, R42
		SMOVIL		-1, R43
		SMOVIL		-72, R46
		SMOVIL		-1, R47
		SADDA.M1		R47:R46,AR14,OR11
		SNOP		1
		SADDA.M1		R43:R42,OR11,OR11
		SNOP		1
		SMVAAGL.M1		OR11, R45:R44
		SNOP		1
		SMVAAGH.M1		OR11, R45:R44
		SNOP		1
		SMOVIL		-72, R42
		SMOVIL		-1, R43
		SMOVIL		-72, R46
		SMOVIL		-1, R47
		SADDA.M1		R47:R46,AR14,OR11
		SNOP		1
		SADDA.M1		R43:R42,OR11,OR11
		SNOP		1
		SMVAAGL.M1		OR11, R43:R42
		SNOP		1
		SMVAAGH.M1		OR11, R43:R42
		SNOP		1
		SMVAGA36.M1		R43:R42, AR10
		SNOP		1
		SLDW		*AR10, R42
		SNOP		5
		SADD.M1		1,R42,R42
		SMVAGA36.M1		R45:R44, AR10
		SNOP		1
		SSTW		R42, *AR10
.L58:
	.loc 1 193 0 is_stmt 0 discriminator 1
		SMOVIL		-80, R44
		SMOVIL		-1, R45
		SADDA.M1		R45:R44,AR14,AR10
		SNOP		1
		SLDH		*AR10, R42
		SNOP		5
		SSHFLL		16, R42, R42
		SSHFLR		16, R42, R42
		SSHFLL		1, R42, R44
		SMOVIL		-72, R42
		SMOVIL		-1, R43
		SMOVIL		-72, R46
		SMOVIL		-1, R47
		SADDA.M1		R47:R46,AR14,OR11
		SNOP		1
		SADDA.M1		R43:R42,OR11,OR11
		SNOP		1
		SMVAAGL.M1		OR11, R43:R42
		SNOP		1
		SMVAAGH.M1		OR11, R43:R42
		SNOP		1
		SMVAGA36.M1		R43:R42, AR10
		SNOP		1
		SLDW		*AR10, R42
		SNOP		5
		SLT		R42, R44, R42
		SMOV.M1		R42, R0
	[R0]	SBR		.L59
		SNOP		6
	.loc 1 197 0 is_stmt 1
		SMOVIL		-68, R42
		SMOVIL		-1, R43
		SMOVIL		-72, R44
		SMOVIL		-1, R45
		SADDA.M1		R45:R44,AR14,OR11
		SNOP		1
		SADDA.M1		R43:R42,OR11,OR11
		SNOP		1
		SMVAAGL.M1		OR11, R43:R42
		SNOP		1
		SMVAAGH.M1		OR11, R43:R42
		SNOP		1
		SMVAGA36.M1		R43:R42, AR10
		SNOP		1
		SLDW		*AR10, R46
		SNOP		5
		SMOVIL		-312, R44
		SMOVIL		-1, R45
		SADDA.M1		R45:R44,AR14,AR10
		SNOP		1
		SSTW		R46, *AR10
		SMVAGA36.M1		R43:R42, AR10
		SNOP		1
		SLDW		*AR10, R42
		SNOP		5
		SSHFAR		31, R42, R42
		SMOVIL		-308, R44
		SMOVIL		-1, R45
		SADDA.M1		R45:R44,AR14,AR10
		SNOP		1
		SSTW		R42, *AR10
		SMOVIL		-312, R44
		SMOVIL		-1, R45
		SADDA.M1		R45:R44,AR14,AR10
		SNOP		1
		SLDW		*AR10, R43
		SNOP		5
		SSHFLR		28, R43, R42
		SMOVIL		-308, R44
		SMOVIL		-1, R45
		SADDA.M1		R45:R44,AR14,AR10
		SNOP		1
		SLDW		*AR10, R43
		SNOP		5
		SSHFLL		4, R43, R43
		SMOVIL		-316, R44
		SMOVIL		-1, R45
		SADDA.M1		R45:R44,AR14,AR10
		SNOP		1
		SSTW		R43, *AR10
		SMOVIL		-316, R44
		SMOVIL		-1, R45
		SADDA.M1		R45:R44,AR14,AR10
		SNOP		1
		SLDW		*AR10, R43
		SNOP		5
		SOR		R43, R42, R43
		SMOVIL		-316, R44
		SMOVIL		-1, R45
		SADDA.M1		R45:R44,AR14,AR10
		SNOP		1
		SSTW		R43, *AR10
		SMOVIL		-312, R42
		SMOVIL		-1, R43
		SADDA.M1		R43:R42,AR14,AR10
		SNOP		1
		SLDW		*AR10, R42
		SNOP		5
		SSHFLL		4, R42, R44
		SMOVIL		-320, R42
		SMOVIL		-1, R43
		SADDA.M1		R43:R42,AR14,AR10
		SNOP		1
		SSTW		R44, *AR10
		SMOVIL		-216, R42
		SMOVIL		-1, R43
		SMOVIL		-72, R44
		SMOVIL		-1, R45
		SADDA.M1		R45:R44,AR14,OR11
		SNOP		1
		SADDA.M1		R43:R42,OR11,OR11
		SNOP		1
		SMVAAGL.M1		OR11, R43:R42
		SNOP		1
		SMVAAGH.M1		OR11, R43:R42
		SNOP		1
		SMOVIL		-320, R46
		SMOVIL		-1, R47
		SADDA.M1		R47:R46,AR14,AR10
		SNOP		1
		SLDDW		*AR10, R45:R44
		SNOP		5
	;no-op trunc di R45:R44 to pdi R45:R44
		SMVAGA36.M1		R43:R42, AR10
		SNOP		1
		SLDDW		*AR10, R43:R42
		SNOP		5
		SMVAGA36.M1		R43:R42, OR11
		SNOP		1
		SADDA.M1		R45:R44,OR11,AR8
		SNOP		1
		SBR		rand
		SMOVIL		.L171, R62
		SMOVIH		.L171, R62
		SMOVIH4.L		.L171, R63
		SNOP		4
.L171:
		SMOV.M1		R10, R42
		SFINTD.M1		R42,R45:R44
		SNOP		3
		SMOVIL		1074266368, R42
		SMOVIH		1074266368, R42
		SMOVIL		1061159424, R43
		SMOVIH		1061159424, R43
		SFMULD.M1		R45:R44, R43:R42, R43:R42
		SNOP		5
		SSTDW		R43:R42, *AR8
	.loc 1 198 0
		SMOVIL		-68, R42
		SMOVIL		-1, R43
		SMOVIL		-72, R44
		SMOVIL		-1, R45
		SADDA.M1		R45:R44,AR14,OR11
		SNOP		1
		SADDA.M1		R43:R42,OR11,OR11
		SNOP		1
		SMVAAGL.M1		OR11, R43:R42
		SNOP		1
		SMVAAGH.M1		OR11, R43:R42
		SNOP		1
		SMVAGA36.M1		R43:R42, AR10
		SNOP		1
		SLDW		*AR10, R46
		SNOP		5
		SMOVIL		-328, R44
		SMOVIL		-1, R45
		SADDA.M1		R45:R44,AR14,AR10
		SNOP		1
		SSTW		R46, *AR10
		SMVAGA36.M1		R43:R42, AR10
		SNOP		1
		SLDW		*AR10, R42
		SNOP		5
		SSHFAR		31, R42, R42
		SMOVIL		-324, R44
		SMOVIL		-1, R45
		SADDA.M1		R45:R44,AR14,AR10
		SNOP		1
		SSTW		R42, *AR10
		SMOVIL		-328, R44
		SMOVIL		-1, R45
		SADDA.M1		R45:R44,AR14,AR10
		SNOP		1
		SLDW		*AR10, R43
		SNOP		5
		SSHFLR		28, R43, R42
		SMOVIL		-324, R44
		SMOVIL		-1, R45
		SADDA.M1		R45:R44,AR14,AR10
		SNOP		1
		SLDW		*AR10, R43
		SNOP		5
		SSHFLL		4, R43, R39
		SOR		R39, R42, R39
		SMOVIL		-328, R42
		SMOVIL		-1, R43
		SADDA.M1		R43:R42,AR14,AR10
		SNOP		1
		SLDW		*AR10, R42
		SNOP		5
		SSHFLL		4, R42, R38
		SMOVIL		8, R42
		SMOVIL		0, R43
		SADD.M1		R42,R38,R44
		SLTU		R44, R38, R46
		SADD.M1		R43,R39,R45
		SADD.M1		R45,R46,R42
		SMOV.M1		R42, R45
		SMOVIL		-216, R42
		SMOVIL		-1, R43
		SMOVIL		-72, R46
		SMOVIL		-1, R47
		SADDA.M1		R47:R46,AR14,OR11
		SNOP		1
		SADDA.M1		R43:R42,OR11,OR11
		SNOP		1
		SMVAAGL.M1		OR11, R43:R42
		SNOP		1
		SMVAAGH.M1		OR11, R43:R42
		SNOP		1
	;no-op trunc di R45:R44 to pdi R45:R44
		SMVAGA36.M1		R43:R42, AR10
		SNOP		1
		SLDDW		*AR10, R43:R42
		SNOP		5
		SMVAGA36.M1		R43:R42, OR11
		SNOP		1
		SADDA.M1		R45:R44,OR11,AR8
		SNOP		1
		SBR		rand
		SMOVIL		.L172, R62
		SMOVIH		.L172, R62
		SMOVIH4.L		.L172, R63
		SNOP		4
.L172:
		SMOV.M1		R10, R42
		SFINTD.M1		R42,R45:R44
		SNOP		3
		SMOVIL		1074266368, R42
		SMOVIH		1074266368, R42
		SMOVIL		1061159424, R43
		SMOVIH		1061159424, R43
		SFMULD.M1		R45:R44, R43:R42, R43:R42
		SNOP		5
		SSTDW		R43:R42, *AR8
	.loc 1 191 0
		SMOVIL		-68, R42
		SMOVIL		-1, R43
		SMOVIL		-72, R46
		SMOVIL		-1, R47
		SADDA.M1		R47:R46,AR14,OR11
		SNOP		1
		SADDA.M1		R43:R42,OR11,OR11
		SNOP		1
		SMVAAGL.M1		OR11, R45:R44
		SNOP		1
		SMVAAGH.M1		OR11, R45:R44
		SNOP		1
		SMOVIL		-68, R42
		SMOVIL		-1, R43
		SMOVIL		-72, R46
		SMOVIL		-1, R47
		SADDA.M1		R47:R46,AR14,OR11
		SNOP		1
		SADDA.M1		R43:R42,OR11,OR11
		SNOP		1
		SMVAAGL.M1		OR11, R43:R42
		SNOP		1
		SMVAAGH.M1		OR11, R43:R42
		SNOP		1
		SMVAGA36.M1		R43:R42, AR10
		SNOP		1
		SLDW		*AR10, R42
		SNOP		5
		SADD.M1		1,R42,R42
		SMVAGA36.M1		R45:R44, AR10
		SNOP		1
		SSTW		R42, *AR10
.L57:
	.loc 1 191 0 is_stmt 0 discriminator 1
		SMOVIL		-78, R44
		SMOVIL		-1, R45
		SADDA.M1		R45:R44,AR14,AR10
		SNOP		1
		SLDH		*AR10, R42
		SNOP		5
		SSHFLL		16, R42, R44
		SSHFLR		16, R44, R44
		SMOVIL		-68, R42
		SMOVIL		-1, R43
		SMOVIL		-72, R46
		SMOVIL		-1, R47
		SADDA.M1		R47:R46,AR14,OR11
		SNOP		1
		SADDA.M1		R43:R42,OR11,OR11
		SNOP		1
		SMVAAGL.M1		OR11, R43:R42
		SNOP		1
		SMVAAGH.M1		OR11, R43:R42
		SNOP		1
		SMVAGA36.M1		R43:R42, AR10
		SNOP		1
		SLDW		*AR10, R42
		SNOP		5
		SLT		R42, R44, R42
		SMOV.M1		R42, R0
	[R0]	SBR		.L60
		SNOP		6
	.loc 1 200 0 is_stmt 1
		SBR		.L53
		SNOP		6
.L55:
	.loc 1 204 0
		SMOVIL		48, R42
		SMOVIL		-78, R44
		SMOVIL		-1, R45
		SADDA.M1		R45:R44,AR14,AR10
		SNOP		1
		SSTH		R42, *AR10
	.loc 1 205 0
		SMOVIL		-78, R44
		SMOVIL		-1, R45
		SADDA.M1		R45:R44,AR14,AR10
		SNOP		1
		SLDH		*AR10, R42
		SNOP		5
		SMOVIL		-80, R44
		SMOVIL		-1, R45
		SADDA.M1		R45:R44,AR14,AR10
		SNOP		1
		SSTH		R42, *AR10
	.loc 1 206 0
		SMOVIL		1, R10
		SBR		srand
		SMOVIL		.L173, R62
		SMOVIH		.L173, R62
		SMOVIH4.L		.L173, R63
		SNOP		4
.L173:
	.loc 1 207 0
		SMOVIL		-68, R42
		SMOVIL		-1, R43
		SMOVIL		-72, R44
		SMOVIL		-1, R45
		SADDA.M1		R45:R44,AR14,OR11
		SNOP		1
		SADDA.M1		R43:R42,OR11,OR11
		SNOP		1
		SMVAAGL.M1		OR11, R43:R42
		SNOP		1
		SMVAAGH.M1		OR11, R43:R42
		SNOP		1
		SMOVIL		0, R44
		SMVAGA36.M1		R43:R42, AR10
		SNOP		1
		SSTW		R44, *AR10
		SBR		.L61
		SNOP		6
.L64:
	.loc 1 209 0
		SMOVIL		-72, R42
		SMOVIL		-1, R43
		SMOVIL		-72, R44
		SMOVIL		-1, R45
		SADDA.M1		R45:R44,AR14,OR11
		SNOP		1
		SADDA.M1		R43:R42,OR11,OR11
		SNOP		1
		SMVAAGL.M1		OR11, R43:R42
		SNOP		1
		SMVAAGH.M1		OR11, R43:R42
		SNOP		1
		SMOVIL		0, R44
		SMVAGA36.M1		R43:R42, AR10
		SNOP		1
		SSTW		R44, *AR10
		SBR		.L62
		SNOP		6
.L63:
	.loc 1 211 0 discriminator 2
		SMOVIL		-68, R42
		SMOVIL		-1, R43
		SMOVIL		-72, R44
		SMOVIL		-1, R45
		SADDA.M1		R45:R44,AR14,OR11
		SNOP		1
		SADDA.M1		R43:R42,OR11,OR11
		SNOP		1
		SMVAAGL.M1		OR11, R43:R42
		SNOP		1
		SMVAAGH.M1		OR11, R43:R42
		SNOP		1
		SMVAGA36.M1		R43:R42, AR10
		SNOP		1
		SLDW		*AR10, R42
		SNOP		5
		SSHFLL		1, R42, R43
		SMOVIL		-80, R44
		SMOVIL		-1, R45
		SADDA.M1		R45:R44,AR14,AR10
		SNOP		1
		SLDH		*AR10, R42
		SNOP		5
		SSHFLL		16, R42, R42
		SSHFLR		16, R42, R42
		SMULIS.M1		R42,R43,R44
		SNOP		2
		SMOVIL		-72, R42
		SMOVIL		-1, R43
		SMOVIL		-72, R46
		SMOVIL		-1, R47
		SADDA.M1		R47:R46,AR14,OR11
		SNOP		1
		SADDA.M1		R43:R42,OR11,OR11
		SNOP		1
		SMVAAGL.M1		OR11, R43:R42
		SNOP		1
		SMVAAGH.M1		OR11, R43:R42
		SNOP		1
		SMVAGA36.M1		R43:R42, AR10
		SNOP		1
		SLDW		*AR10, R42
		SNOP		5
		SADD.M1		R42,R44,R42
		SMOV.M1		R42, R32
		SSHFAR		31, R42, R42
		SMOV.M1		R42, R33
		SADD.M1		R32,R32,R44
		SLTU		R44, R32, R42
		SADD.M1		R33,R33,R45
		SADD.M1		R45,R42,R42
		SMOV.M1		R42, R45
		SADD.M1		R44,R44,R42
		SLTU		R42, R44, R46
		SADD.M1		R45,R45,R43
		SADD.M1		R43,R46,R44
		SMOV.M1		R44, R43
		SADD.M1		R42,R42,R44
		SLTU		R44, R42, R46
		SADD.M1		R43,R43,R45
		SADD.M1		R45,R46,R42
		SMOV.M1		R42, R45
		SMOVIL		-176, R42
		SMOVIL		-1, R43
		SMOVIL		-72, R46
		SMOVIL		-1, R47
		SADDA.M1		R47:R46,AR14,OR11
		SNOP		1
		SADDA.M1		R43:R42,OR11,OR11
		SNOP		1
		SMVAAGL.M1		OR11, R43:R42
		SNOP		1
		SMVAAGH.M1		OR11, R43:R42
		SNOP		1
	;no-op trunc di R45:R44 to pdi R45:R44
		SMVAGA36.M1		R43:R42, AR10
		SNOP		1
		SLDDW		*AR10, R43:R42
		SNOP		5
		SMVAGA36.M1		R43:R42, OR11
		SNOP		1
		SADDA.M1		R45:R44,OR11,AR8
		SNOP		1
		SBR		rand
		SMOVIL		.L174, R62
		SMOVIH		.L174, R62
		SMOVIH4.L		.L174, R63
		SNOP		4
.L174:
		SMOV.M1		R10, R42
		SFINTD.M1		R42,R45:R44
		SNOP		3
		SMOVIL		1074266368, R42
		SMOVIH		1074266368, R42
		SMOVIL		1061159424, R43
		SMOVIH		1061159424, R43
		SFMULD.M1		R45:R44, R43:R42, R43:R42
		SNOP		5
		SSTDW		R43:R42, *AR8
	.loc 1 209 0 discriminator 2
		SMOVIL		-72, R42
		SMOVIL		-1, R43
		SMOVIL		-72, R46
		SMOVIL		-1, R47
		SADDA.M1		R47:R46,AR14,OR11
		SNOP		1
		SADDA.M1		R43:R42,OR11,OR11
		SNOP		1
		SMVAAGL.M1		OR11, R45:R44
		SNOP		1
		SMVAAGH.M1		OR11, R45:R44
		SNOP		1
		SMOVIL		-72, R42
		SMOVIL		-1, R43
		SMOVIL		-72, R46
		SMOVIL		-1, R47
		SADDA.M1		R47:R46,AR14,OR11
		SNOP		1
		SADDA.M1		R43:R42,OR11,OR11
		SNOP		1
		SMVAAGL.M1		OR11, R43:R42
		SNOP		1
		SMVAAGH.M1		OR11, R43:R42
		SNOP		1
		SMVAGA36.M1		R43:R42, AR10
		SNOP		1
		SLDW		*AR10, R42
		SNOP		5
		SADD.M1		1,R42,R42
		SMVAGA36.M1		R45:R44, AR10
		SNOP		1
		SSTW		R42, *AR10
.L62:
	.loc 1 209 0 is_stmt 0 discriminator 1
		SMOVIL		-80, R44
		SMOVIL		-1, R45
		SADDA.M1		R45:R44,AR14,AR10
		SNOP		1
		SLDH		*AR10, R42
		SNOP		5
		SSHFLL		16, R42, R42
		SSHFLR		16, R42, R42
		SSHFLL		1, R42, R44
		SMOVIL		-72, R42
		SMOVIL		-1, R43
		SMOVIL		-72, R46
		SMOVIL		-1, R47
		SADDA.M1		R47:R46,AR14,OR11
		SNOP		1
		SADDA.M1		R43:R42,OR11,OR11
		SNOP		1
		SMVAAGL.M1		OR11, R43:R42
		SNOP		1
		SMVAAGH.M1		OR11, R43:R42
		SNOP		1
		SMVAGA36.M1		R43:R42, AR10
		SNOP		1
		SLDW		*AR10, R42
		SNOP		5
		SLT		R42, R44, R42
		SMOV.M1		R42, R0
	[R0]	SBR		.L63
		SNOP		6
	.loc 1 213 0 is_stmt 1
		SMOVIL		-68, R42
		SMOVIL		-1, R43
		SMOVIL		-72, R44
		SMOVIL		-1, R45
		SADDA.M1		R45:R44,AR14,OR11
		SNOP		1
		SADDA.M1		R43:R42,OR11,OR11
		SNOP		1
		SMVAAGL.M1		OR11, R43:R42
		SNOP		1
		SMVAAGH.M1		OR11, R43:R42
		SNOP		1
		SMVAGA36.M1		R43:R42, AR10
		SNOP		1
		SLDW		*AR10, R46
		SNOP		5
		SMOVIL		-336, R44
		SMOVIL		-1, R45
		SADDA.M1		R45:R44,AR14,AR10
		SNOP		1
		SSTW		R46, *AR10
		SMVAGA36.M1		R43:R42, AR10
		SNOP		1
		SLDW		*AR10, R42
		SNOP		5
		SSHFAR		31, R42, R42
		SMOVIL		-332, R44
		SMOVIL		-1, R45
		SADDA.M1		R45:R44,AR14,AR10
		SNOP		1
		SSTW		R42, *AR10
		SMOVIL		-336, R44
		SMOVIL		-1, R45
		SADDA.M1		R45:R44,AR14,AR10
		SNOP		1
		SLDW		*AR10, R43
		SNOP		5
		SSHFLR		28, R43, R42
		SMOVIL		-332, R44
		SMOVIL		-1, R45
		SADDA.M1		R45:R44,AR14,AR10
		SNOP		1
		SLDW		*AR10, R43
		SNOP		5
		SSHFLL		4, R43, R43
		SMOVIL		-340, R44
		SMOVIL		-1, R45
		SADDA.M1		R45:R44,AR14,AR10
		SNOP		1
		SSTW		R43, *AR10
		SMOVIL		-340, R44
		SMOVIL		-1, R45
		SADDA.M1		R45:R44,AR14,AR10
		SNOP		1
		SLDW		*AR10, R43
		SNOP		5
		SOR		R43, R42, R43
		SMOVIL		-340, R44
		SMOVIL		-1, R45
		SADDA.M1		R45:R44,AR14,AR10
		SNOP		1
		SSTW		R43, *AR10
		SMOVIL		-336, R42
		SMOVIL		-1, R43
		SADDA.M1		R43:R42,AR14,AR10
		SNOP		1
		SLDW		*AR10, R42
		SNOP		5
		SSHFLL		4, R42, R44
		SMOVIL		-344, R42
		SMOVIL		-1, R43
		SADDA.M1		R43:R42,AR14,AR10
		SNOP		1
		SSTW		R44, *AR10
		SMOVIL		-216, R42
		SMOVIL		-1, R43
		SMOVIL		-72, R44
		SMOVIL		-1, R45
		SADDA.M1		R45:R44,AR14,OR11
		SNOP		1
		SADDA.M1		R43:R42,OR11,OR11
		SNOP		1
		SMVAAGL.M1		OR11, R43:R42
		SNOP		1
		SMVAAGH.M1		OR11, R43:R42
		SNOP		1
		SMOVIL		-344, R46
		SMOVIL		-1, R47
		SADDA.M1		R47:R46,AR14,AR10
		SNOP		1
		SLDDW		*AR10, R45:R44
		SNOP		5
	;no-op trunc di R45:R44 to pdi R45:R44
		SMVAGA36.M1		R43:R42, AR10
		SNOP		1
		SLDDW		*AR10, R43:R42
		SNOP		5
		SMVAGA36.M1		R43:R42, OR11
		SNOP		1
		SADDA.M1		R45:R44,OR11,AR8
		SNOP		1
		SBR		rand
		SMOVIL		.L175, R62
		SMOVIH		.L175, R62
		SMOVIH4.L		.L175, R63
		SNOP		4
.L175:
		SMOV.M1		R10, R42
		SFINTD.M1		R42,R45:R44
		SNOP		3
		SMOVIL		1074266368, R42
		SMOVIH		1074266368, R42
		SMOVIL		1061159424, R43
		SMOVIH		1061159424, R43
		SFMULD.M1		R45:R44, R43:R42, R43:R42
		SNOP		5
		SSTDW		R43:R42, *AR8
	.loc 1 214 0
		SMOVIL		-68, R42
		SMOVIL		-1, R43
		SMOVIL		-72, R44
		SMOVIL		-1, R45
		SADDA.M1		R45:R44,AR14,OR11
		SNOP		1
		SADDA.M1		R43:R42,OR11,OR11
		SNOP		1
		SMVAAGL.M1		OR11, R43:R42
		SNOP		1
		SMVAAGH.M1		OR11, R43:R42
		SNOP		1
		SMVAGA36.M1		R43:R42, AR10
		SNOP		1
		SLDW		*AR10, R46
		SNOP		5
		SMOVIL		-352, R44
		SMOVIL		-1, R45
		SADDA.M1		R45:R44,AR14,AR10
		SNOP		1
		SSTW		R46, *AR10
		SMVAGA36.M1		R43:R42, AR10
		SNOP		1
		SLDW		*AR10, R42
		SNOP		5
		SSHFAR		31, R42, R42
		SMOVIL		-348, R44
		SMOVIL		-1, R45
		SADDA.M1		R45:R44,AR14,AR10
		SNOP		1
		SSTW		R42, *AR10
		SMOVIL		-352, R44
		SMOVIL		-1, R45
		SADDA.M1		R45:R44,AR14,AR10
		SNOP		1
		SLDW		*AR10, R43
		SNOP		5
		SSHFLR		28, R43, R42
		SMOVIL		-348, R44
		SMOVIL		-1, R45
		SADDA.M1		R45:R44,AR14,AR10
		SNOP		1
		SLDW		*AR10, R43
		SNOP		5
		SSHFLL		4, R43, R41
		SOR		R41, R42, R41
		SMOVIL		-352, R42
		SMOVIL		-1, R43
		SADDA.M1		R43:R42,AR14,AR10
		SNOP		1
		SLDW		*AR10, R42
		SNOP		5
		SSHFLL		4, R42, R40
		SMOVIL		8, R42
		SMOVIL		0, R43
		SADD.M1		R42,R40,R44
		SLTU		R44, R40, R46
		SADD.M1		R43,R41,R45
		SADD.M1		R45,R46,R42
		SMOV.M1		R42, R45
		SMOVIL		-216, R42
		SMOVIL		-1, R43
		SMOVIL		-72, R46
		SMOVIL		-1, R47
		SADDA.M1		R47:R46,AR14,OR11
		SNOP		1
		SADDA.M1		R43:R42,OR11,OR11
		SNOP		1
		SMVAAGL.M1		OR11, R43:R42
		SNOP		1
		SMVAAGH.M1		OR11, R43:R42
		SNOP		1
	;no-op trunc di R45:R44 to pdi R45:R44
		SMVAGA36.M1		R43:R42, AR10
		SNOP		1
		SLDDW		*AR10, R43:R42
		SNOP		5
		SMVAGA36.M1		R43:R42, OR11
		SNOP		1
		SADDA.M1		R45:R44,OR11,AR8
		SNOP		1
		SBR		rand
		SMOVIL		.L176, R62
		SMOVIH		.L176, R62
		SMOVIH4.L		.L176, R63
		SNOP		4
.L176:
		SMOV.M1		R10, R42
		SFINTD.M1		R42,R45:R44
		SNOP		3
		SMOVIL		1074266368, R42
		SMOVIH		1074266368, R42
		SMOVIL		1061159424, R43
		SMOVIH		1061159424, R43
		SFMULD.M1		R45:R44, R43:R42, R43:R42
		SNOP		5
		SSTDW		R43:R42, *AR8
	.loc 1 207 0
		SMOVIL		-68, R42
		SMOVIL		-1, R43
		SMOVIL		-72, R46
		SMOVIL		-1, R47
		SADDA.M1		R47:R46,AR14,OR11
		SNOP		1
		SADDA.M1		R43:R42,OR11,OR11
		SNOP		1
		SMVAAGL.M1		OR11, R45:R44
		SNOP		1
		SMVAAGH.M1		OR11, R45:R44
		SNOP		1
		SMOVIL		-68, R42
		SMOVIL		-1, R43
		SMOVIL		-72, R46
		SMOVIL		-1, R47
		SADDA.M1		R47:R46,AR14,OR11
		SNOP		1
		SADDA.M1		R43:R42,OR11,OR11
		SNOP		1
		SMVAAGL.M1		OR11, R43:R42
		SNOP		1
		SMVAAGH.M1		OR11, R43:R42
		SNOP		1
		SMVAGA36.M1		R43:R42, AR10
		SNOP		1
		SLDW		*AR10, R42
		SNOP		5
		SADD.M1		1,R42,R42
		SMVAGA36.M1		R45:R44, AR10
		SNOP		1
		SSTW		R42, *AR10
.L61:
	.loc 1 207 0 is_stmt 0 discriminator 1
		SMOVIL		-78, R44
		SMOVIL		-1, R45
		SADDA.M1		R45:R44,AR14,AR10
		SNOP		1
		SLDH		*AR10, R42
		SNOP		5
		SSHFLL		16, R42, R44
		SSHFLR		16, R44, R44
		SMOVIL		-68, R42
		SMOVIL		-1, R43
		SMOVIL		-72, R46
		SMOVIL		-1, R47
		SADDA.M1		R47:R46,AR14,OR11
		SNOP		1
		SADDA.M1		R43:R42,OR11,OR11
		SNOP		1
		SMVAAGL.M1		OR11, R43:R42
		SNOP		1
		SMVAAGH.M1		OR11, R43:R42
		SNOP		1
		SMVAGA36.M1		R43:R42, AR10
		SNOP		1
		SLDW		*AR10, R42
		SNOP		5
		SLT		R42, R44, R42
		SMOV.M1		R42, R0
	[R0]	SBR		.L64
		SNOP		6
	.loc 1 216 0 is_stmt 1
		SBR		.L53
		SNOP		6
.L56:
	.loc 1 220 0
		SMOVIL		64, R42
		SMOVIL		-78, R44
		SMOVIL		-1, R45
		SADDA.M1		R45:R44,AR14,AR10
		SNOP		1
		SSTH		R42, *AR10
	.loc 1 221 0
		SMOVIL		-78, R44
		SMOVIL		-1, R45
		SADDA.M1		R45:R44,AR14,AR10
		SNOP		1
		SLDH		*AR10, R42
		SNOP		5
		SMOVIL		-80, R44
		SMOVIL		-1, R45
		SADDA.M1		R45:R44,AR14,AR10
		SNOP		1
		SSTH		R42, *AR10
	.loc 1 222 0
		SMOVIL		1, R10
		SBR		srand
		SMOVIL		.L177, R62
		SMOVIH		.L177, R62
		SMOVIH4.L		.L177, R63
		SNOP		4
.L177:
	.loc 1 223 0
		SMOVIL		-68, R42
		SMOVIL		-1, R43
		SMOVIL		-72, R44
		SMOVIL		-1, R45
		SADDA.M1		R45:R44,AR14,OR11
		SNOP		1
		SADDA.M1		R43:R42,OR11,OR11
		SNOP		1
		SMVAAGL.M1		OR11, R43:R42
		SNOP		1
		SMVAAGH.M1		OR11, R43:R42
		SNOP		1
		SMOVIL		0, R44
		SMVAGA36.M1		R43:R42, AR10
		SNOP		1
		SSTW		R44, *AR10
		SBR		.L65
		SNOP		6
.L68:
	.loc 1 225 0
		SMOVIL		-72, R42
		SMOVIL		-1, R43
		SMOVIL		-72, R44
		SMOVIL		-1, R45
		SADDA.M1		R45:R44,AR14,OR11
		SNOP		1
		SADDA.M1		R43:R42,OR11,OR11
		SNOP		1
		SMVAAGL.M1		OR11, R43:R42
		SNOP		1
		SMVAAGH.M1		OR11, R43:R42
		SNOP		1
		SMOVIL		0, R44
		SMVAGA36.M1		R43:R42, AR10
		SNOP		1
		SSTW		R44, *AR10
		SBR		.L66
		SNOP		6
.L67:
	.loc 1 227 0 discriminator 2
		SMOVIL		-68, R42
		SMOVIL		-1, R43
		SMOVIL		-72, R44
		SMOVIL		-1, R45
		SADDA.M1		R45:R44,AR14,OR11
		SNOP		1
		SADDA.M1		R43:R42,OR11,OR11
		SNOP		1
		SMVAAGL.M1		OR11, R43:R42
		SNOP		1
		SMVAAGH.M1		OR11, R43:R42
		SNOP		1
		SMVAGA36.M1		R43:R42, AR10
		SNOP		1
		SLDW		*AR10, R42
		SNOP		5
		SSHFLL		1, R42, R43
		SMOVIL		-80, R44
		SMOVIL		-1, R45
		SADDA.M1		R45:R44,AR14,AR10
		SNOP		1
		SLDH		*AR10, R42
		SNOP		5
		SSHFLL		16, R42, R42
		SSHFLR		16, R42, R42
		SMULIS.M1		R42,R43,R44
		SNOP		2
		SMOVIL		-72, R42
		SMOVIL		-1, R43
		SMOVIL		-72, R46
		SMOVIL		-1, R47
		SADDA.M1		R47:R46,AR14,OR11
		SNOP		1
		SADDA.M1		R43:R42,OR11,OR11
		SNOP		1
		SMVAAGL.M1		OR11, R43:R42
		SNOP		1
		SMVAAGH.M1		OR11, R43:R42
		SNOP		1
		SMVAGA36.M1		R43:R42, AR10
		SNOP		1
		SLDW		*AR10, R42
		SNOP		5
		SADD.M1		R42,R44,R42
		SMOV.M1		R42, R34
		SSHFAR		31, R42, R42
		SMOV.M1		R42, R35
		SADD.M1		R34,R34,R44
		SLTU		R44, R34, R42
		SADD.M1		R35,R35,R45
		SADD.M1		R45,R42,R42
		SMOV.M1		R42, R45
		SADD.M1		R44,R44,R42
		SLTU		R42, R44, R46
		SADD.M1		R45,R45,R43
		SADD.M1		R43,R46,R44
		SMOV.M1		R44, R43
		SADD.M1		R42,R42,R44
		SLTU		R44, R42, R46
		SADD.M1		R43,R43,R45
		SADD.M1		R45,R46,R42
		SMOV.M1		R42, R45
		SMOVIL		-176, R42
		SMOVIL		-1, R43
		SMOVIL		-72, R46
		SMOVIL		-1, R47
		SADDA.M1		R47:R46,AR14,OR11
		SNOP		1
		SADDA.M1		R43:R42,OR11,OR11
		SNOP		1
		SMVAAGL.M1		OR11, R43:R42
		SNOP		1
		SMVAAGH.M1		OR11, R43:R42
		SNOP		1
	;no-op trunc di R45:R44 to pdi R45:R44
		SMVAGA36.M1		R43:R42, AR10
		SNOP		1
		SLDDW		*AR10, R43:R42
		SNOP		5
		SMVAGA36.M1		R43:R42, OR11
		SNOP		1
		SADDA.M1		R45:R44,OR11,AR8
		SNOP		1
		SBR		rand
		SMOVIL		.L178, R62
		SMOVIH		.L178, R62
		SMOVIH4.L		.L178, R63
		SNOP		4
.L178:
		SMOV.M1		R10, R42
		SFINTD.M1		R42,R45:R44
		SNOP		3
		SMOVIL		1074266368, R42
		SMOVIH		1074266368, R42
		SMOVIL		1061159424, R43
		SMOVIH		1061159424, R43
		SFMULD.M1		R45:R44, R43:R42, R43:R42
		SNOP		5
		SSTDW		R43:R42, *AR8
	.loc 1 225 0 discriminator 2
		SMOVIL		-72, R42
		SMOVIL		-1, R43
		SMOVIL		-72, R46
		SMOVIL		-1, R47
		SADDA.M1		R47:R46,AR14,OR11
		SNOP		1
		SADDA.M1		R43:R42,OR11,OR11
		SNOP		1
		SMVAAGL.M1		OR11, R45:R44
		SNOP		1
		SMVAAGH.M1		OR11, R45:R44
		SNOP		1
		SMOVIL		-72, R42
		SMOVIL		-1, R43
		SMOVIL		-72, R46
		SMOVIL		-1, R47
		SADDA.M1		R47:R46,AR14,OR11
		SNOP		1
		SADDA.M1		R43:R42,OR11,OR11
		SNOP		1
		SMVAAGL.M1		OR11, R43:R42
		SNOP		1
		SMVAAGH.M1		OR11, R43:R42
		SNOP		1
		SMVAGA36.M1		R43:R42, AR10
		SNOP		1
		SLDW		*AR10, R42
		SNOP		5
		SADD.M1		1,R42,R42
		SMVAGA36.M1		R45:R44, AR10
		SNOP		1
		SSTW		R42, *AR10
.L66:
	.loc 1 225 0 is_stmt 0 discriminator 1
		SMOVIL		-80, R44
		SMOVIL		-1, R45
		SADDA.M1		R45:R44,AR14,AR10
		SNOP		1
		SLDH		*AR10, R42
		SNOP		5
		SSHFLL		16, R42, R42
		SSHFLR		16, R42, R42
		SSHFLL		1, R42, R44
		SMOVIL		-72, R42
		SMOVIL		-1, R43
		SMOVIL		-72, R46
		SMOVIL		-1, R47
		SADDA.M1		R47:R46,AR14,OR11
		SNOP		1
		SADDA.M1		R43:R42,OR11,OR11
		SNOP		1
		SMVAAGL.M1		OR11, R43:R42
		SNOP		1
		SMVAAGH.M1		OR11, R43:R42
		SNOP		1
		SMVAGA36.M1		R43:R42, AR10
		SNOP		1
		SLDW		*AR10, R42
		SNOP		5
		SLT		R42, R44, R42
		SMOV.M1		R42, R0
	[R0]	SBR		.L67
		SNOP		6
	.loc 1 229 0 is_stmt 1
		SMOVIL		-68, R42
		SMOVIL		-1, R43
		SMOVIL		-72, R44
		SMOVIL		-1, R45
		SADDA.M1		R45:R44,AR14,OR11
		SNOP		1
		SADDA.M1		R43:R42,OR11,OR11
		SNOP		1
		SMVAAGL.M1		OR11, R43:R42
		SNOP		1
		SMVAAGH.M1		OR11, R43:R42
		SNOP		1
		SMVAGA36.M1		R43:R42, AR10
		SNOP		1
		SLDW		*AR10, R46
		SNOP		5
		SMOVIL		-360, R44
		SMOVIL		-1, R45
		SADDA.M1		R45:R44,AR14,AR10
		SNOP		1
		SSTW		R46, *AR10
		SMVAGA36.M1		R43:R42, AR10
		SNOP		1
		SLDW		*AR10, R42
		SNOP		5
		SSHFAR		31, R42, R42
		SMOVIL		-356, R44
		SMOVIL		-1, R45
		SADDA.M1		R45:R44,AR14,AR10
		SNOP		1
		SSTW		R42, *AR10
		SMOVIL		-360, R44
		SMOVIL		-1, R45
		SADDA.M1		R45:R44,AR14,AR10
		SNOP		1
		SLDW		*AR10, R43
		SNOP		5
		SSHFLR		28, R43, R42
		SMOVIL		-356, R44
		SMOVIL		-1, R45
		SADDA.M1		R45:R44,AR14,AR10
		SNOP		1
		SLDW		*AR10, R43
		SNOP		5
		SSHFLL		4, R43, R43
		SMOVIL		-364, R44
		SMOVIL		-1, R45
		SADDA.M1		R45:R44,AR14,AR10
		SNOP		1
		SSTW		R43, *AR10
		SMOVIL		-364, R44
		SMOVIL		-1, R45
		SADDA.M1		R45:R44,AR14,AR10
		SNOP		1
		SLDW		*AR10, R43
		SNOP		5
		SOR		R43, R42, R43
		SMOVIL		-364, R44
		SMOVIL		-1, R45
		SADDA.M1		R45:R44,AR14,AR10
		SNOP		1
		SSTW		R43, *AR10
		SMOVIL		-360, R42
		SMOVIL		-1, R43
		SADDA.M1		R43:R42,AR14,AR10
		SNOP		1
		SLDW		*AR10, R42
		SNOP		5
		SSHFLL		4, R42, R44
		SMOVIL		-368, R42
		SMOVIL		-1, R43
		SADDA.M1		R43:R42,AR14,AR10
		SNOP		1
		SSTW		R44, *AR10
		SMOVIL		-216, R42
		SMOVIL		-1, R43
		SMOVIL		-72, R44
		SMOVIL		-1, R45
		SADDA.M1		R45:R44,AR14,OR11
		SNOP		1
		SADDA.M1		R43:R42,OR11,OR11
		SNOP		1
		SMVAAGL.M1		OR11, R43:R42
		SNOP		1
		SMVAAGH.M1		OR11, R43:R42
		SNOP		1
		SMOVIL		-368, R46
		SMOVIL		-1, R47
		SADDA.M1		R47:R46,AR14,AR10
		SNOP		1
		SLDDW		*AR10, R45:R44
		SNOP		5
	;no-op trunc di R45:R44 to pdi R45:R44
		SMVAGA36.M1		R43:R42, AR10
		SNOP		1
		SLDDW		*AR10, R43:R42
		SNOP		5
		SMVAGA36.M1		R43:R42, OR11
		SNOP		1
		SADDA.M1		R45:R44,OR11,AR8
		SNOP		1
		SBR		rand
		SMOVIL		.L179, R62
		SMOVIH		.L179, R62
		SMOVIH4.L		.L179, R63
		SNOP		4
.L179:
		SMOV.M1		R10, R42
		SFINTD.M1		R42,R45:R44
		SNOP		3
		SMOVIL		1074266368, R42
		SMOVIH		1074266368, R42
		SMOVIL		1061159424, R43
		SMOVIH		1061159424, R43
		SFMULD.M1		R45:R44, R43:R42, R43:R42
		SNOP		5
		SSTDW		R43:R42, *AR8
	.loc 1 230 0
		SMOVIL		-68, R42
		SMOVIL		-1, R43
		SMOVIL		-72, R44
		SMOVIL		-1, R45
		SADDA.M1		R45:R44,AR14,OR11
		SNOP		1
		SADDA.M1		R43:R42,OR11,OR11
		SNOP		1
		SMVAAGL.M1		OR11, R43:R42
		SNOP		1
		SMVAAGH.M1		OR11, R43:R42
		SNOP		1
		SMVAGA36.M1		R43:R42, AR10
		SNOP		1
		SLDW		*AR10, R46
		SNOP		5
		SMOVIL		-376, R44
		SMOVIL		-1, R45
		SADDA.M1		R45:R44,AR14,AR10
		SNOP		1
		SSTW		R46, *AR10
		SMVAGA36.M1		R43:R42, AR10
		SNOP		1
		SLDW		*AR10, R42
		SNOP		5
		SSHFAR		31, R42, R42
		SMOVIL		-372, R44
		SMOVIL		-1, R45
		SADDA.M1		R45:R44,AR14,AR10
		SNOP		1
		SSTW		R42, *AR10
		SMOVIL		-376, R44
		SMOVIL		-1, R45
		SADDA.M1		R45:R44,AR14,AR10
		SNOP		1
		SLDW		*AR10, R43
		SNOP		5
		SSHFLR		28, R43, R42
		SMOVIL		-372, R44
		SMOVIL		-1, R45
		SADDA.M1		R45:R44,AR14,AR10
		SNOP		1
		SLDW		*AR10, R43
		SNOP		5
		SSHFLL		4, R43, R43
		SMOVIL		-380, R44
		SMOVIL		-1, R45
		SADDA.M1		R45:R44,AR14,AR10
		SNOP		1
		SSTW		R43, *AR10
		SMOVIL		-380, R44
		SMOVIL		-1, R45
		SADDA.M1		R45:R44,AR14,AR10
		SNOP		1
		SLDW		*AR10, R43
		SNOP		5
		SOR		R43, R42, R43
		SMOVIL		-380, R44
		SMOVIL		-1, R45
		SADDA.M1		R45:R44,AR14,AR10
		SNOP		1
		SSTW		R43, *AR10
		SMOVIL		-376, R42
		SMOVIL		-1, R43
		SADDA.M1		R43:R42,AR14,AR10
		SNOP		1
		SLDW		*AR10, R42
		SNOP		5
		SSHFLL		4, R42, R44
		SMOVIL		-384, R42
		SMOVIL		-1, R43
		SADDA.M1		R43:R42,AR14,AR10
		SNOP		1
		SSTW		R44, *AR10
		SMOVIL		8, R42
		SMOVIL		0, R43
		SMOVIL		-384, R46
		SMOVIL		-1, R47
		SADDA.M1		R47:R46,AR14,AR10
		SNOP		1
		SLDW		*AR10, R46
		SNOP		5
		SADD.M1		R42,R46,R44
		SMOVIL		-384, R48
		SMOVIL		-1, R49
		SADDA.M1		R49:R48,AR14,AR10
		SNOP		1
		SLDW		*AR10, R47
		SNOP		5
		SLTU		R44, R47, R46
		SMOVIL		-380, R48
		SMOVIL		-1, R49
		SADDA.M1		R49:R48,AR14,AR10
		SNOP		1
		SLDW		*AR10, R47
		SNOP		5
		SADD.M1		R43,R47,R45
		SADD.M1		R45,R46,R42
		SMOV.M1		R42, R45
		SMOVIL		-216, R42
		SMOVIL		-1, R43
		SMOVIL		-72, R48
		SMOVIL		-1, R49
		SADDA.M1		R49:R48,AR14,OR11
		SNOP		1
		SADDA.M1		R43:R42,OR11,OR11
		SNOP		1
		SMVAAGL.M1		OR11, R43:R42
		SNOP		1
		SMVAAGH.M1		OR11, R43:R42
		SNOP		1
	;no-op trunc di R45:R44 to pdi R45:R44
		SMVAGA36.M1		R43:R42, AR10
		SNOP		1
		SLDDW		*AR10, R43:R42
		SNOP		5
		SMVAGA36.M1		R43:R42, OR11
		SNOP		1
		SADDA.M1		R45:R44,OR11,AR8
		SNOP		1
		SBR		rand
		SMOVIL		.L180, R62
		SMOVIH		.L180, R62
		SMOVIH4.L		.L180, R63
		SNOP		4
.L180:
		SMOV.M1		R10, R42
		SFINTD.M1		R42,R45:R44
		SNOP		3
		SMOVIL		1074266368, R42
		SMOVIH		1074266368, R42
		SMOVIL		1061159424, R43
		SMOVIH		1061159424, R43
		SFMULD.M1		R45:R44, R43:R42, R43:R42
		SNOP		5
		SSTDW		R43:R42, *AR8
	.loc 1 223 0
		SMOVIL		-68, R42
		SMOVIL		-1, R43
		SMOVIL		-72, R46
		SMOVIL		-1, R47
		SADDA.M1		R47:R46,AR14,OR11
		SNOP		1
		SADDA.M1		R43:R42,OR11,OR11
		SNOP		1
		SMVAAGL.M1		OR11, R45:R44
		SNOP		1
		SMVAAGH.M1		OR11, R45:R44
		SNOP		1
		SMOVIL		-68, R42
		SMOVIL		-1, R43
		SMOVIL		-72, R46
		SMOVIL		-1, R47
		SADDA.M1		R47:R46,AR14,OR11
		SNOP		1
		SADDA.M1		R43:R42,OR11,OR11
		SNOP		1
		SMVAAGL.M1		OR11, R43:R42
		SNOP		1
		SMVAAGH.M1		OR11, R43:R42
		SNOP		1
		SMVAGA36.M1		R43:R42, AR10
		SNOP		1
		SLDW		*AR10, R42
		SNOP		5
		SADD.M1		1,R42,R42
		SMVAGA36.M1		R45:R44, AR10
		SNOP		1
		SSTW		R42, *AR10
.L65:
	.loc 1 223 0 is_stmt 0 discriminator 1
		SMOVIL		-78, R44
		SMOVIL		-1, R45
		SADDA.M1		R45:R44,AR14,AR10
		SNOP		1
		SLDH		*AR10, R42
		SNOP		5
		SSHFLL		16, R42, R44
		SSHFLR		16, R44, R44
		SMOVIL		-68, R42
		SMOVIL		-1, R43
		SMOVIL		-72, R46
		SMOVIL		-1, R47
		SADDA.M1		R47:R46,AR14,OR11
		SNOP		1
		SADDA.M1		R43:R42,OR11,OR11
		SNOP		1
		SMVAAGL.M1		OR11, R43:R42
		SNOP		1
		SMVAAGH.M1		OR11, R43:R42
		SNOP		1
		SMVAGA36.M1		R43:R42, AR10
		SNOP		1
		SLDW		*AR10, R42
		SNOP		5
		SLT		R42, R44, R42
		SMOV.M1		R42, R0
	[R0]	SBR		.L68
		SNOP		6
	.loc 1 232 0 is_stmt 1
		SNOP		1
.L53:
	.loc 1 239 0
		SMOVIL		-78, R44
		SMOVIL		-1, R45
		SADDA.M1		R45:R44,AR14,AR10
		SNOP		1
		SLDH		*AR10, R42
		SNOP		5
		SSHFLL		16, R42, R55
		SSHFLR		16, R55, R55
		SMOVIL		-80, R44
		SMOVIL		-1, R45
		SADDA.M1		R45:R44,AR14,AR10
		SNOP		1
		SLDH		*AR10, R42
		SNOP		5
		SSHFLL		16, R42, R54
		SSHFLR		16, R54, R54
		SMOVIL		-116, R42
		SMOVIL		-1, R43
		SMOVIL		-72, R44
		SMOVIL		-1, R45
		SADDA.M1		R45:R44,AR14,OR11
		SNOP		1
		SADDA.M1		R43:R42,OR11,AR8
		SNOP		1
		SMOVIL		-164, R42
		SMOVIL		-1, R43
		SMOVIL		-72, R44
		SMOVIL		-1, R45
		SADDA.M1		R45:R44,AR14,OR11
		SNOP		1
		SADDA.M1		R43:R42,OR11,OR11
		SNOP		1
		SMVAAGL.M1		OR11, R53:R52
		SNOP		1
		SMVAAGH.M1		OR11, R53:R52
		SNOP		1
		SMOVIL		-168, R42
		SMOVIL		-1, R43
		SMOVIL		-72, R44
		SMOVIL		-1, R45
		SADDA.M1		R45:R44,AR14,OR11
		SNOP		1
		SADDA.M1		R43:R42,OR11,OR11
		SNOP		1
		SMVAAGL.M1		OR11, R49:R48
		SNOP		1
		SMVAAGH.M1		OR11, R49:R48
		SNOP		1
		SMOVIL		-176, R42
		SMOVIL		-1, R43
		SMOVIL		-72, R44
		SMOVIL		-1, R45
		SADDA.M1		R45:R44,AR14,OR11
		SNOP		1
		SADDA.M1		R43:R42,OR11,OR11
		SNOP		1
		SMVAAGL.M1		OR11, R51:R50
		SNOP		1
		SMVAAGH.M1		OR11, R51:R50
		SNOP		1
		SMOVIL		-184, R42
		SMOVIL		-1, R43
		SMOVIL		-72, R44
		SMOVIL		-1, R45
		SADDA.M1		R45:R44,AR14,OR11
		SNOP		1
		SADDA.M1		R43:R42,OR11,OR11
		SNOP		1
		SMVAAGL.M1		OR11, R47:R46
		SNOP		1
		SMVAAGH.M1		OR11, R47:R46
		SNOP		1
		SMOVIL		-192, R42
		SMOVIL		-1, R43
		SMOVIL		-72, R56
		SMOVIL		-1, R57
		SADDA.M1		R57:R56,AR14,OR11
		SNOP		1
		SADDA.M1		R43:R42,OR11,OR11
		SNOP		1
		SMVAAGL.M1		OR11, R45:R44
		SNOP		1
		SMVAAGH.M1		OR11, R45:R44
		SNOP		1
		SMOVIL		-208, R42
		SMOVIL		-1, R43
		SMOVIL		-72, R56
		SMOVIL		-1, R57
		SADDA.M1		R57:R56,AR14,OR11
		SNOP		1
		SADDA.M1		R43:R42,OR11,OR11
		SNOP		1
		SMVAAGL.M1		OR11, R43:R42
		SNOP		1
		SMVAAGH.M1		OR11, R43:R42
		SNOP		1
		SMVAGA36.M1		R53:R52, OR11
		SNOP		1
		SMVAAGL.M1		OR11, R11:R10
		SNOP		1
		SMVAAGH.M1		OR11, R11:R10
		SNOP		1
		SMVAGA36.M1		R49:R48, OR11
		SNOP		1
		SMVAAGL.M1		OR11, R13:R12
		SNOP		1
		SMVAAGH.M1		OR11, R13:R12
		SNOP		1
		SMOV.M1		R55, R14
		SMOV.M1		R54, R16
		SMVAGA36.M1		R51:R50, AR10
		SNOP		1
		SLDDW		*AR10, R19:R18
		SNOP		5
		SMVAGA36.M1		R47:R46, AR10
		SNOP		1
		SLDDW		*AR10, R21:R20
		SNOP		5
		SMVAGA36.M1		R45:R44, AR10
		SNOP		1
		SLDDW		*AR10, R23:R22
		SNOP		5
		SMVAGA36.M1		R43:R42, AR10
		SNOP		1
		SLDDW		*AR10, R25:R24
		SNOP		5
		SBR		DSPF_sp_qrd_cmplx_wrapper
		SMOVIL		.L181, R62
		SMOVIH		.L181, R62
		SMOVIH4.L		.L181, R63
		SNOP		4
.L181:
		SSTW		R10, *AR8
	.loc 1 240 0
		SMOVIL		-168, R42
		SMOVIL		-1, R43
		SMOVIL		-72, R44
		SMOVIL		-1, R45
		SADDA.M1		R45:R44,AR14,OR11
		SNOP		1
		SADDA.M1		R43:R42,OR11,OR11
		SNOP		1
		SMVAAGL.M1		OR11, R43:R42
		SNOP		1
		SMVAAGH.M1		OR11, R43:R42
		SNOP		1
		SMVAGA36.M1		R43:R42, AR10
		SNOP		1
		SLDW		*AR10, R44
		SNOP		5
		SMOVIL		-164, R42
		SMOVIL		-1, R43
		SMOVIL		-72, R46
		SMOVIL		-1, R47
		SADDA.M1		R47:R46,AR14,OR11
		SNOP		1
		SADDA.M1		R43:R42,OR11,OR11
		SNOP		1
		SMVAAGL.M1		OR11, R43:R42
		SNOP		1
		SMVAAGH.M1		OR11, R43:R42
		SNOP		1
		SMVAGA36.M1		R43:R42, AR10
		SNOP		1
		SLDW		*AR10, R42
		SNOP		5
		SSUB.M1		R42, R44, R45
		SMOVIL		-104, R42
		SMOVIL		-1, R43
		SMOVIL		-72, R46
		SMOVIL		-1, R47
		SADDA.M1		R47:R46,AR14,OR11
		SNOP		1
		SADDA.M1		R43:R42,OR11,OR11
		SNOP		1
		SMVAAGL.M1		OR11, R43:R42
		SNOP		1
		SMVAAGH.M1		OR11, R43:R42
		SNOP		1
		SMVAGA36.M1		R43:R42, AR10
		SNOP		1
		SLDW		*AR10, R44
		SNOP		5
		SMOVIL		-120, R42
		SMOVIL		-1, R43
		SMOVIL		-72, R46
		SMOVIL		-1, R47
		SADDA.M1		R47:R46,AR14,OR11
		SNOP		1
		SADDA.M1		R43:R42,OR11,OR11
		SNOP		1
		SMVAAGL.M1		OR11, R43:R42
		SNOP		1
		SMVAAGH.M1		OR11, R43:R42
		SNOP		1
		SSUB.M1		R44, R45, R44
		SMVAGA36.M1		R43:R42, AR10
		SNOP		1
		SSTW		R44, *AR10
	.loc 1 241 0
		SMOVIL		-116, R42
		SMOVIL		-1, R43
		SMOVIL		-72, R44
		SMOVIL		-1, R45
		SADDA.M1		R45:R44,AR14,OR11
		SNOP		1
		SADDA.M1		R43:R42,OR11,OR11
		SNOP		1
		SMVAAGL.M1		OR11, R43:R42
		SNOP		1
		SMVAAGH.M1		OR11, R43:R42
		SNOP		1
		SMVAGA36.M1		R43:R42, AR10
		SNOP		1
		SLDW		*AR10, R42
		SNOP		5
		SMOVIL		-1, R0
		SEQ		R0, R42, R42
		SMOV.M1		R42, R0
	[!R0]	SBR		.L69
		SNOP		6
	.loc 1 243 0
		SMOVIL.L		.LC10, R10
		SMOVIH.L		.LC10, R10
		SMOVIH4.L		.LC10, R11
		SBR		puts
		SMOVIL		.L182, R62
		SMOVIH		.L182, R62
		SMOVIH4.L		.L182, R63
		SNOP		4
.L182:
.L69:
	.loc 1 249 0
		SMOVIL		-92, R42
		SMOVIL		-1, R43
		SMOVIL		-72, R44
		SMOVIL		-1, R45
		SADDA.M1		R45:R44,AR14,OR11
		SNOP		1
		SADDA.M1		R43:R42,OR11,OR11
		SNOP		1
		SMVAAGL.M1		OR11, R43:R42
		SNOP		1
		SMVAAGH.M1		OR11, R43:R42
		SNOP		1
		SMVAGA36.M1		R43:R42, AR10
		SNOP		1
		SLDW		*AR10, R42
		SNOP		5
		SMOV.M1		R42, R0
	[!R0]	SBR		.L70
		SNOP		6
	.loc 1 251 0
		SMOVIL		0, R42
		SMOVIL		0, R43
		SSTDW		R43:R42, *-AR14[14]
	.loc 1 252 0
		SMOVIL		-68, R42
		SMOVIL		-1, R43
		SMOVIL		-72, R44
		SMOVIL		-1, R45
		SADDA.M1		R45:R44,AR14,OR11
		SNOP		1
		SADDA.M1		R43:R42,OR11,OR11
		SNOP		1
		SMVAAGL.M1		OR11, R43:R42
		SNOP		1
		SMVAAGH.M1		OR11, R43:R42
		SNOP		1
		SMOVIL		0, R44
		SMVAGA36.M1		R43:R42, AR10
		SNOP		1
		SSTW		R44, *AR10
		SBR		.L71
		SNOP		6
.L85:
	.loc 1 254 0
		SMOVIL		-72, R42
		SMOVIL		-1, R43
		SMOVIL		-72, R44
		SMOVIL		-1, R45
		SADDA.M1		R45:R44,AR14,OR11
		SNOP		1
		SADDA.M1		R43:R42,OR11,OR11
		SNOP		1
		SMVAAGL.M1		OR11, R43:R42
		SNOP		1
		SMVAAGH.M1		OR11, R43:R42
		SNOP		1
		SMOVIL		0, R44
		SMVAGA36.M1		R43:R42, AR10
		SNOP		1
		SSTW		R44, *AR10
		SBR		.L72
		SNOP		6
.L84:
	.loc 1 256 0
		SMOVIL		0, R42
		SMOVIL		0, R43
		SSTDW		R43:R42, *-AR14[11]
	.loc 1 257 0
		SMOVIL		0, R42
		SMOVIL		0, R43
		SSTDW		R43:R42, *-AR14[12]
	.loc 1 258 0
		SMOVIL		-76, R42
		SMOVIL		-1, R43
		SMOVIL		-72, R44
		SMOVIL		-1, R45
		SADDA.M1		R45:R44,AR14,OR11
		SNOP		1
		SADDA.M1		R43:R42,OR11,OR11
		SNOP		1
		SMVAAGL.M1		OR11, R43:R42
		SNOP		1
		SMVAAGH.M1		OR11, R43:R42
		SNOP		1
		SMOVIL		0, R44
		SMVAGA36.M1		R43:R42, AR10
		SNOP		1
		SSTW		R44, *AR10
		SBR		.L73
		SNOP		6
.L74:
	.loc 1 260 0 discriminator 2
		SMOVIL		-76, R42
		SMOVIL		-1, R43
		SMOVIL		-72, R44
		SMOVIL		-1, R45
		SADDA.M1		R45:R44,AR14,OR11
		SNOP		1
		SADDA.M1		R43:R42,OR11,OR11
		SNOP		1
		SMVAAGL.M1		OR11, R43:R42
		SNOP		1
		SMVAAGH.M1		OR11, R43:R42
		SNOP		1
		SMVAGA36.M1		R43:R42, AR10
		SNOP		1
		SLDW		*AR10, R46
		SNOP		5
		SMOVIL		-392, R44
		SMOVIL		-1, R45
		SADDA.M1		R45:R44,AR14,AR10
		SNOP		1
		SSTW		R46, *AR10
		SMVAGA36.M1		R43:R42, AR10
		SNOP		1
		SLDW		*AR10, R42
		SNOP		5
		SSHFAR		31, R42, R42
		SMOVIL		-388, R44
		SMOVIL		-1, R45
		SADDA.M1		R45:R44,AR14,AR10
		SNOP		1
		SSTW		R42, *AR10
		SMOVIL		-68, R42
		SMOVIL		-1, R43
		SMOVIL		-72, R44
		SMOVIL		-1, R45
		SADDA.M1		R45:R44,AR14,OR11
		SNOP		1
		SADDA.M1		R43:R42,OR11,OR11
		SNOP		1
		SMVAAGL.M1		OR11, R43:R42
		SNOP		1
		SMVAAGH.M1		OR11, R43:R42
		SNOP		1
		SMVAGA36.M1		R43:R42, AR10
		SNOP		1
		SLDW		*AR10, R46
		SNOP		5
		SMOVIL		-400, R44
		SMOVIL		-1, R45
		SADDA.M1		R45:R44,AR14,AR10
		SNOP		1
		SSTW		R46, *AR10
		SMVAGA36.M1		R43:R42, AR10
		SNOP		1
		SLDW		*AR10, R42
		SNOP		5
		SSHFAR		31, R42, R42
		SMOVIL		-396, R44
		SMOVIL		-1, R45
		SADDA.M1		R45:R44,AR14,AR10
		SNOP		1
		SSTW		R42, *AR10
		SMOVIL		-78, R44
		SMOVIL		-1, R45
		SADDA.M1		R45:R44,AR14,AR10
		SNOP		1
		SLDH		*AR10, R42
		SNOP		5
		SSHFLL		16, R42, R42
		SSHFLR		16, R42, R42
		SMOVIL		-408, R44
		SMOVIL		-1, R45
		SADDA.M1		R45:R44,AR14,AR10
		SNOP		1
		SSTW		R42, *AR10
		SMOVIL		0, R44
		SMOVIL		-404, R42
		SMOVIL		-1, R43
		SADDA.M1		R43:R42,AR14,AR10
		SNOP		1
		SSTW		R44, *AR10
		SMOVIL		-396, R44
		SMOVIL		-1, R45
		SADDA.M1		R45:R44,AR14,AR10
		SNOP		1
		SLDW		*AR10, R42
		SNOP		5
		SMOVIL		-408, R44
		SMOVIL		-1, R45
		SADDA.M1		R45:R44,AR14,AR10
		SNOP		1
		SLDW		*AR10, R44
		SNOP		5
		SMULIS.M1		R44,R42,R43
		SNOP		2
		SMOVIL		-404, R44
		SMOVIL		-1, R45
		SADDA.M1		R45:R44,AR14,AR10
		SNOP		1
		SLDW		*AR10, R46
		SNOP		5
		SMOVIL		-400, R44
		SMOVIL		-1, R45
		SADDA.M1		R45:R44,AR14,AR10
		SNOP		1
		SLDW		*AR10, R44
		SNOP		5
		SMULIS.M1		R44,R46,R42
		SNOP		2
		SADD.M1		R42,R43,R44
		SMOVIL		-400, R46
		SMOVIL		-1, R47
		SADDA.M1		R47:R46,AR14,AR10
		SNOP		1
		SLDW		*AR10, R45
		SNOP		5
		SMOVIL		-408, R46
		SMOVIL		-1, R47
		SADDA.M1		R47:R46,AR14,AR10
		SNOP		1
		SLDW		*AR10, R46
		SNOP		5
		SMULU.M1		R46,R45,R43:R42
		SNOP		3
		SADD.M1		R43,R44,R44
		SMOV.M1		R44, R43
		SMOVIL		-392, R46
		SMOVIL		-1, R47
		SADDA.M1		R47:R46,AR14,AR10
		SNOP		1
		SLDW		*AR10, R46
		SNOP		5
		SADD.M1		R42,R46,R44
		SMOVIL		-392, R48
		SMOVIL		-1, R49
		SADDA.M1		R49:R48,AR14,AR10
		SNOP		1
		SLDW		*AR10, R47
		SNOP		5
		SLTU		R44, R47, R46
		SMOVIL		-388, R48
		SMOVIL		-1, R49
		SADDA.M1		R49:R48,AR14,AR10
		SNOP		1
		SLDW		*AR10, R47
		SNOP		5
		SADD.M1		R43,R47,R45
		SADD.M1		R45,R46,R42
		SMOV.M1		R42, R45
		SMOV.M1		R44, R42
		SMOV.M1		R45, R43
		SSHFLR		28, R42, R44
		SSHFLL		4, R43, R45
		SMOVIL		-412, R46
		SMOVIL		-1, R47
		SADDA.M1		R47:R46,AR14,AR10
		SNOP		1
		SSTW		R45, *AR10
		SMOVIL		-412, R46
		SMOVIL		-1, R47
		SADDA.M1		R47:R46,AR14,AR10
		SNOP		1
		SLDW		*AR10, R45
		SNOP		5
		SOR		R45, R44, R45
		SMOVIL		-412, R46
		SMOVIL		-1, R47
		SADDA.M1		R47:R46,AR14,AR10
		SNOP		1
		SSTW		R45, *AR10
		SSHFLL		4, R42, R46
		SMOVIL		-416, R44
		SMOVIL		-1, R45
		SADDA.M1		R45:R44,AR14,AR10
		SNOP		1
		SSTW		R46, *AR10
		SMOVIL		-184, R42
		SMOVIL		-1, R43
		SMOVIL		-72, R48
		SMOVIL		-1, R49
		SADDA.M1		R49:R48,AR14,OR11
		SNOP		1
		SADDA.M1		R43:R42,OR11,OR11
		SNOP		1
		SMVAAGL.M1		OR11, R43:R42
		SNOP		1
		SMVAAGH.M1		OR11, R43:R42
		SNOP		1
		SMOVIL		-416, R46
		SMOVIL		-1, R47
		SADDA.M1		R47:R46,AR14,AR10
		SNOP		1
		SLDDW		*AR10, R45:R44
		SNOP		5
	;no-op trunc di R45:R44 to pdi R45:R44
		SMVAGA36.M1		R43:R42, AR10
		SNOP		1
		SLDDW		*AR10, R43:R42
		SNOP		5
		SMVAGA36.M1		R43:R42, OR11
		SNOP		1
		SADDA.M1		R45:R44,OR11,OR11
		SNOP		1
		SMVAAGL.M1		OR11, R47:R46
		SNOP		1
		SMVAAGH.M1		OR11, R47:R46
		SNOP		1
		SMOVIL		-128, R42
		SMOVIL		-1, R43
		SMOVIL		-72, R48
		SMOVIL		-1, R49
		SADDA.M1		R49:R48,AR14,OR11
		SNOP		1
		SADDA.M1		R43:R42,OR11,OR11
		SNOP		1
		SMVAAGL.M1		OR11, R45:R44
		SNOP		1
		SMVAAGH.M1		OR11, R45:R44
		SNOP		1
		SMVAGA36.M1		R47:R46, AR10
		SNOP		1
		SLDDW		*AR10, R43:R42
		SNOP		5
		SMVAGA36.M1		R45:R44, AR10
		SNOP		1
		SSTDW		R43:R42, *AR10
	.loc 1 261 0 discriminator 2
		SMOVIL		-76, R42
		SMOVIL		-1, R43
		SMOVIL		-72, R44
		SMOVIL		-1, R45
		SADDA.M1		R45:R44,AR14,OR11
		SNOP		1
		SADDA.M1		R43:R42,OR11,OR11
		SNOP		1
		SMVAAGL.M1		OR11, R43:R42
		SNOP		1
		SMVAAGH.M1		OR11, R43:R42
		SNOP		1
		SMVAGA36.M1		R43:R42, AR10
		SNOP		1
		SLDW		*AR10, R46
		SNOP		5
		SMOVIL		-424, R44
		SMOVIL		-1, R45
		SADDA.M1		R45:R44,AR14,AR10
		SNOP		1
		SSTW		R46, *AR10
		SMVAGA36.M1		R43:R42, AR10
		SNOP		1
		SLDW		*AR10, R42
		SNOP		5
		SSHFAR		31, R42, R42
		SMOVIL		-420, R44
		SMOVIL		-1, R45
		SADDA.M1		R45:R44,AR14,AR10
		SNOP		1
		SSTW		R42, *AR10
		SMOVIL		-68, R42
		SMOVIL		-1, R43
		SMOVIL		-72, R44
		SMOVIL		-1, R45
		SADDA.M1		R45:R44,AR14,OR11
		SNOP		1
		SADDA.M1		R43:R42,OR11,OR11
		SNOP		1
		SMVAAGL.M1		OR11, R43:R42
		SNOP		1
		SMVAAGH.M1		OR11, R43:R42
		SNOP		1
		SMVAGA36.M1		R43:R42, AR10
		SNOP		1
		SLDW		*AR10, R46
		SNOP		5
		SMOVIL		-432, R44
		SMOVIL		-1, R45
		SADDA.M1		R45:R44,AR14,AR10
		SNOP		1
		SSTW		R46, *AR10
		SMVAGA36.M1		R43:R42, AR10
		SNOP		1
		SLDW		*AR10, R42
		SNOP		5
		SSHFAR		31, R42, R42
		SMOVIL		-428, R44
		SMOVIL		-1, R45
		SADDA.M1		R45:R44,AR14,AR10
		SNOP		1
		SSTW		R42, *AR10
		SMOVIL		-78, R44
		SMOVIL		-1, R45
		SADDA.M1		R45:R44,AR14,AR10
		SNOP		1
		SLDH		*AR10, R42
		SNOP		5
		SSHFLL		16, R42, R42
		SSHFLR		16, R42, R42
		SMOVIL		-440, R44
		SMOVIL		-1, R45
		SADDA.M1		R45:R44,AR14,AR10
		SNOP		1
		SSTW		R42, *AR10
		SMOVIL		0, R44
		SMOVIL		-436, R42
		SMOVIL		-1, R43
		SADDA.M1		R43:R42,AR14,AR10
		SNOP		1
		SSTW		R44, *AR10
		SMOVIL		-428, R44
		SMOVIL		-1, R45
		SADDA.M1		R45:R44,AR14,AR10
		SNOP		1
		SLDW		*AR10, R42
		SNOP		5
		SMOVIL		-440, R44
		SMOVIL		-1, R45
		SADDA.M1		R45:R44,AR14,AR10
		SNOP		1
		SLDW		*AR10, R44
		SNOP		5
		SMULIS.M1		R44,R42,R43
		SNOP		2
		SMOVIL		-436, R44
		SMOVIL		-1, R45
		SADDA.M1		R45:R44,AR14,AR10
		SNOP		1
		SLDW		*AR10, R46
		SNOP		5
		SMOVIL		-432, R44
		SMOVIL		-1, R45
		SADDA.M1		R45:R44,AR14,AR10
		SNOP		1
		SLDW		*AR10, R44
		SNOP		5
		SMULIS.M1		R44,R46,R42
		SNOP		2
		SADD.M1		R42,R43,R44
		SMOVIL		-432, R46
		SMOVIL		-1, R47
		SADDA.M1		R47:R46,AR14,AR10
		SNOP		1
		SLDW		*AR10, R45
		SNOP		5
		SMOVIL		-440, R46
		SMOVIL		-1, R47
		SADDA.M1		R47:R46,AR14,AR10
		SNOP		1
		SLDW		*AR10, R46
		SNOP		5
		SMULU.M1		R46,R45,R43:R42
		SNOP		3
		SADD.M1		R43,R44,R44
		SMOV.M1		R44, R43
		SMOVIL		-424, R46
		SMOVIL		-1, R47
		SADDA.M1		R47:R46,AR14,AR10
		SNOP		1
		SLDW		*AR10, R46
		SNOP		5
		SADD.M1		R42,R46,R44
		SMOVIL		-424, R48
		SMOVIL		-1, R49
		SADDA.M1		R49:R48,AR14,AR10
		SNOP		1
		SLDW		*AR10, R47
		SNOP		5
		SLTU		R44, R47, R46
		SMOVIL		-420, R48
		SMOVIL		-1, R49
		SADDA.M1		R49:R48,AR14,AR10
		SNOP		1
		SLDW		*AR10, R47
		SNOP		5
		SADD.M1		R43,R47,R45
		SADD.M1		R45,R46,R42
		SMOV.M1		R42, R45
		SMOV.M1		R44, R42
		SMOV.M1		R45, R43
		SSHFLR		28, R42, R44
		SSHFLL		4, R43, R45
		SMOVIL		-444, R46
		SMOVIL		-1, R47
		SADDA.M1		R47:R46,AR14,AR10
		SNOP		1
		SSTW		R45, *AR10
		SMOVIL		-444, R46
		SMOVIL		-1, R47
		SADDA.M1		R47:R46,AR14,AR10
		SNOP		1
		SLDW		*AR10, R45
		SNOP		5
		SOR		R45, R44, R45
		SMOVIL		-444, R46
		SMOVIL		-1, R47
		SADDA.M1		R47:R46,AR14,AR10
		SNOP		1
		SSTW		R45, *AR10
		SSHFLL		4, R42, R46
		SMOVIL		-448, R44
		SMOVIL		-1, R45
		SADDA.M1		R45:R44,AR14,AR10
		SNOP		1
		SSTW		R46, *AR10
		SMOVIL		8, R42
		SMOVIL		0, R43
		SMOVIL		-448, R46
		SMOVIL		-1, R47
		SADDA.M1		R47:R46,AR14,AR10
		SNOP		1
		SLDW		*AR10, R46
		SNOP		5
		SADD.M1		R42,R46,R44
		SMOVIL		-448, R48
		SMOVIL		-1, R49
		SADDA.M1		R49:R48,AR14,AR10
		SNOP		1
		SLDW		*AR10, R47
		SNOP		5
		SLTU		R44, R47, R46
		SMOVIL		-444, R48
		SMOVIL		-1, R49
		SADDA.M1		R49:R48,AR14,AR10
		SNOP		1
		SLDW		*AR10, R47
		SNOP		5
		SADD.M1		R43,R47,R45
		SADD.M1		R45,R46,R42
		SMOV.M1		R42, R45
		SMOVIL		-184, R42
		SMOVIL		-1, R43
		SMOVIL		-72, R48
		SMOVIL		-1, R49
		SADDA.M1		R49:R48,AR14,OR11
		SNOP		1
		SADDA.M1		R43:R42,OR11,OR11
		SNOP		1
		SMVAAGL.M1		OR11, R43:R42
		SNOP		1
		SMVAAGH.M1		OR11, R43:R42
		SNOP		1
	;no-op trunc di R45:R44 to pdi R45:R44
		SMVAGA36.M1		R43:R42, AR10
		SNOP		1
		SLDDW		*AR10, R43:R42
		SNOP		5
		SMVAGA36.M1		R43:R42, OR11
		SNOP		1
		SADDA.M1		R45:R44,OR11,OR11
		SNOP		1
		SMVAAGL.M1		OR11, R47:R46
		SNOP		1
		SMVAAGH.M1		OR11, R47:R46
		SNOP		1
		SMOVIL		-136, R42
		SMOVIL		-1, R43
		SMOVIL		-72, R48
		SMOVIL		-1, R49
		SADDA.M1		R49:R48,AR14,OR11
		SNOP		1
		SADDA.M1		R43:R42,OR11,OR11
		SNOP		1
		SMVAAGL.M1		OR11, R45:R44
		SNOP		1
		SMVAAGH.M1		OR11, R45:R44
		SNOP		1
		SMVAGA36.M1		R47:R46, AR10
		SNOP		1
		SLDDW		*AR10, R43:R42
		SNOP		5
		SMVAGA36.M1		R45:R44, AR10
		SNOP		1
		SSTDW		R43:R42, *AR10
	.loc 1 262 0 discriminator 2
		SMOVIL		-72, R42
		SMOVIL		-1, R43
		SMOVIL		-72, R44
		SMOVIL		-1, R45
		SADDA.M1		R45:R44,AR14,OR11
		SNOP		1
		SADDA.M1		R43:R42,OR11,OR11
		SNOP		1
		SMVAAGL.M1		OR11, R43:R42
		SNOP		1
		SMVAAGH.M1		OR11, R43:R42
		SNOP		1
		SMVAGA36.M1		R43:R42, AR10
		SNOP		1
		SLDW		*AR10, R46
		SNOP		5
		SMOVIL		-456, R44
		SMOVIL		-1, R45
		SADDA.M1		R45:R44,AR14,AR10
		SNOP		1
		SSTW		R46, *AR10
		SMVAGA36.M1		R43:R42, AR10
		SNOP		1
		SLDW		*AR10, R42
		SNOP		5
		SSHFAR		31, R42, R42
		SMOVIL		-452, R44
		SMOVIL		-1, R45
		SADDA.M1		R45:R44,AR14,AR10
		SNOP		1
		SSTW		R42, *AR10
		SMOVIL		-76, R42
		SMOVIL		-1, R43
		SMOVIL		-72, R44
		SMOVIL		-1, R45
		SADDA.M1		R45:R44,AR14,OR11
		SNOP		1
		SADDA.M1		R43:R42,OR11,OR11
		SNOP		1
		SMVAAGL.M1		OR11, R43:R42
		SNOP		1
		SMVAAGH.M1		OR11, R43:R42
		SNOP		1
		SMVAGA36.M1		R43:R42, AR10
		SNOP		1
		SLDW		*AR10, R46
		SNOP		5
		SMOVIL		-464, R44
		SMOVIL		-1, R45
		SADDA.M1		R45:R44,AR14,AR10
		SNOP		1
		SSTW		R46, *AR10
		SMVAGA36.M1		R43:R42, AR10
		SNOP		1
		SLDW		*AR10, R42
		SNOP		5
		SSHFAR		31, R42, R42
		SMOVIL		-460, R44
		SMOVIL		-1, R45
		SADDA.M1		R45:R44,AR14,AR10
		SNOP		1
		SSTW		R42, *AR10
		SMOVIL		-80, R44
		SMOVIL		-1, R45
		SADDA.M1		R45:R44,AR14,AR10
		SNOP		1
		SLDH		*AR10, R42
		SNOP		5
		SSHFLL		16, R42, R42
		SSHFLR		16, R42, R42
		SMOVIL		-472, R44
		SMOVIL		-1, R45
		SADDA.M1		R45:R44,AR14,AR10
		SNOP		1
		SSTW		R42, *AR10
		SMOVIL		0, R44
		SMOVIL		-468, R42
		SMOVIL		-1, R43
		SADDA.M1		R43:R42,AR14,AR10
		SNOP		1
		SSTW		R44, *AR10
		SMOVIL		-460, R44
		SMOVIL		-1, R45
		SADDA.M1		R45:R44,AR14,AR10
		SNOP		1
		SLDW		*AR10, R42
		SNOP		5
		SMOVIL		-472, R44
		SMOVIL		-1, R45
		SADDA.M1		R45:R44,AR14,AR10
		SNOP		1
		SLDW		*AR10, R44
		SNOP		5
		SMULIS.M1		R44,R42,R43
		SNOP		2
		SMOVIL		-468, R44
		SMOVIL		-1, R45
		SADDA.M1		R45:R44,AR14,AR10
		SNOP		1
		SLDW		*AR10, R46
		SNOP		5
		SMOVIL		-464, R44
		SMOVIL		-1, R45
		SADDA.M1		R45:R44,AR14,AR10
		SNOP		1
		SLDW		*AR10, R44
		SNOP		5
		SMULIS.M1		R44,R46,R42
		SNOP		2
		SADD.M1		R42,R43,R44
		SMOVIL		-464, R46
		SMOVIL		-1, R47
		SADDA.M1		R47:R46,AR14,AR10
		SNOP		1
		SLDW		*AR10, R45
		SNOP		5
		SMOVIL		-472, R46
		SMOVIL		-1, R47
		SADDA.M1		R47:R46,AR14,AR10
		SNOP		1
		SLDW		*AR10, R46
		SNOP		5
		SMULU.M1		R46,R45,R43:R42
		SNOP		3
		SADD.M1		R43,R44,R44
		SMOV.M1		R44, R43
		SMOVIL		-456, R46
		SMOVIL		-1, R47
		SADDA.M1		R47:R46,AR14,AR10
		SNOP		1
		SLDW		*AR10, R46
		SNOP		5
		SADD.M1		R42,R46,R44
		SMOVIL		-456, R48
		SMOVIL		-1, R49
		SADDA.M1		R49:R48,AR14,AR10
		SNOP		1
		SLDW		*AR10, R47
		SNOP		5
		SLTU		R44, R47, R46
		SMOVIL		-452, R48
		SMOVIL		-1, R49
		SADDA.M1		R49:R48,AR14,AR10
		SNOP		1
		SLDW		*AR10, R47
		SNOP		5
		SADD.M1		R43,R47,R45
		SADD.M1		R45,R46,R42
		SMOV.M1		R42, R45
		SMOV.M1		R44, R42
		SMOV.M1		R45, R43
		SSHFLR		28, R42, R44
		SSHFLL		4, R43, R45
		SMOVIL		-476, R46
		SMOVIL		-1, R47
		SADDA.M1		R47:R46,AR14,AR10
		SNOP		1
		SSTW		R45, *AR10
		SMOVIL		-476, R46
		SMOVIL		-1, R47
		SADDA.M1		R47:R46,AR14,AR10
		SNOP		1
		SLDW		*AR10, R45
		SNOP		5
		SOR		R45, R44, R45
		SMOVIL		-476, R46
		SMOVIL		-1, R47
		SADDA.M1		R47:R46,AR14,AR10
		SNOP		1
		SSTW		R45, *AR10
		SSHFLL		4, R42, R46
		SMOVIL		-480, R44
		SMOVIL		-1, R45
		SADDA.M1		R45:R44,AR14,AR10
		SNOP		1
		SSTW		R46, *AR10
		SMOVIL		-192, R42
		SMOVIL		-1, R43
		SMOVIL		-72, R48
		SMOVIL		-1, R49
		SADDA.M1		R49:R48,AR14,OR11
		SNOP		1
		SADDA.M1		R43:R42,OR11,OR11
		SNOP		1
		SMVAAGL.M1		OR11, R43:R42
		SNOP		1
		SMVAAGH.M1		OR11, R43:R42
		SNOP		1
		SMOVIL		-480, R46
		SMOVIL		-1, R47
		SADDA.M1		R47:R46,AR14,AR10
		SNOP		1
		SLDDW		*AR10, R45:R44
		SNOP		5
	;no-op trunc di R45:R44 to pdi R45:R44
		SMVAGA36.M1		R43:R42, AR10
		SNOP		1
		SLDDW		*AR10, R43:R42
		SNOP		5
		SMVAGA36.M1		R43:R42, OR11
		SNOP		1
		SADDA.M1		R45:R44,OR11,OR11
		SNOP		1
		SMVAAGL.M1		OR11, R47:R46
		SNOP		1
		SMVAAGH.M1		OR11, R47:R46
		SNOP		1
		SMOVIL		-144, R42
		SMOVIL		-1, R43
		SMOVIL		-72, R48
		SMOVIL		-1, R49
		SADDA.M1		R49:R48,AR14,OR11
		SNOP		1
		SADDA.M1		R43:R42,OR11,OR11
		SNOP		1
		SMVAAGL.M1		OR11, R45:R44
		SNOP		1
		SMVAAGH.M1		OR11, R45:R44
		SNOP		1
		SMVAGA36.M1		R47:R46, AR10
		SNOP		1
		SLDDW		*AR10, R43:R42
		SNOP		5
		SMVAGA36.M1		R45:R44, AR10
		SNOP		1
		SSTDW		R43:R42, *AR10
	.loc 1 263 0 discriminator 2
		SMOVIL		-72, R42
		SMOVIL		-1, R43
		SMOVIL		-72, R44
		SMOVIL		-1, R45
		SADDA.M1		R45:R44,AR14,OR11
		SNOP		1
		SADDA.M1		R43:R42,OR11,OR11
		SNOP		1
		SMVAAGL.M1		OR11, R43:R42
		SNOP		1
		SMVAAGH.M1		OR11, R43:R42
		SNOP		1
		SMVAGA36.M1		R43:R42, AR10
		SNOP		1
		SLDW		*AR10, R46
		SNOP		5
		SMOVIL		-488, R44
		SMOVIL		-1, R45
		SADDA.M1		R45:R44,AR14,AR10
		SNOP		1
		SSTW		R46, *AR10
		SMVAGA36.M1		R43:R42, AR10
		SNOP		1
		SLDW		*AR10, R42
		SNOP		5
		SSHFAR		31, R42, R42
		SMOVIL		-484, R44
		SMOVIL		-1, R45
		SADDA.M1		R45:R44,AR14,AR10
		SNOP		1
		SSTW		R42, *AR10
		SMOVIL		-76, R42
		SMOVIL		-1, R43
		SMOVIL		-72, R44
		SMOVIL		-1, R45
		SADDA.M1		R45:R44,AR14,OR11
		SNOP		1
		SADDA.M1		R43:R42,OR11,OR11
		SNOP		1
		SMVAAGL.M1		OR11, R43:R42
		SNOP		1
		SMVAAGH.M1		OR11, R43:R42
		SNOP		1
		SMVAGA36.M1		R43:R42, AR10
		SNOP		1
		SLDW		*AR10, R46
		SNOP		5
		SMOVIL		-496, R44
		SMOVIL		-1, R45
		SADDA.M1		R45:R44,AR14,AR10
		SNOP		1
		SSTW		R46, *AR10
		SMVAGA36.M1		R43:R42, AR10
		SNOP		1
		SLDW		*AR10, R42
		SNOP		5
		SSHFAR		31, R42, R42
		SMOVIL		-492, R44
		SMOVIL		-1, R45
		SADDA.M1		R45:R44,AR14,AR10
		SNOP		1
		SSTW		R42, *AR10
		SMOVIL		-80, R44
		SMOVIL		-1, R45
		SADDA.M1		R45:R44,AR14,AR10
		SNOP		1
		SLDH		*AR10, R42
		SNOP		5
		SSHFLL		16, R42, R42
		SSHFLR		16, R42, R42
		SMOVIL		-504, R44
		SMOVIL		-1, R45
		SADDA.M1		R45:R44,AR14,AR10
		SNOP		1
		SSTW		R42, *AR10
		SMOVIL		0, R44
		SMOVIL		-500, R42
		SMOVIL		-1, R43
		SADDA.M1		R43:R42,AR14,AR10
		SNOP		1
		SSTW		R44, *AR10
		SMOVIL		-492, R44
		SMOVIL		-1, R45
		SADDA.M1		R45:R44,AR14,AR10
		SNOP		1
		SLDW		*AR10, R42
		SNOP		5
		SMOVIL		-504, R44
		SMOVIL		-1, R45
		SADDA.M1		R45:R44,AR14,AR10
		SNOP		1
		SLDW		*AR10, R44
		SNOP		5
		SMULIS.M1		R44,R42,R43
		SNOP		2
		SMOVIL		-500, R44
		SMOVIL		-1, R45
		SADDA.M1		R45:R44,AR14,AR10
		SNOP		1
		SLDW		*AR10, R46
		SNOP		5
		SMOVIL		-496, R44
		SMOVIL		-1, R45
		SADDA.M1		R45:R44,AR14,AR10
		SNOP		1
		SLDW		*AR10, R44
		SNOP		5
		SMULIS.M1		R44,R46,R42
		SNOP		2
		SADD.M1		R42,R43,R44
		SMOVIL		-496, R46
		SMOVIL		-1, R47
		SADDA.M1		R47:R46,AR14,AR10
		SNOP		1
		SLDW		*AR10, R45
		SNOP		5
		SMOVIL		-504, R46
		SMOVIL		-1, R47
		SADDA.M1		R47:R46,AR14,AR10
		SNOP		1
		SLDW		*AR10, R46
		SNOP		5
		SMULU.M1		R46,R45,R43:R42
		SNOP		3
		SADD.M1		R43,R44,R44
		SMOV.M1		R44, R43
		SMOVIL		-488, R46
		SMOVIL		-1, R47
		SADDA.M1		R47:R46,AR14,AR10
		SNOP		1
		SLDW		*AR10, R46
		SNOP		5
		SADD.M1		R42,R46,R44
		SMOVIL		-488, R48
		SMOVIL		-1, R49
		SADDA.M1		R49:R48,AR14,AR10
		SNOP		1
		SLDW		*AR10, R47
		SNOP		5
		SLTU		R44, R47, R46
		SMOVIL		-484, R48
		SMOVIL		-1, R49
		SADDA.M1		R49:R48,AR14,AR10
		SNOP		1
		SLDW		*AR10, R47
		SNOP		5
		SADD.M1		R43,R47,R45
		SADD.M1		R45,R46,R42
		SMOV.M1		R42, R45
		SMOV.M1		R44, R42
		SMOV.M1		R45, R43
		SSHFLR		28, R42, R44
		SSHFLL		4, R43, R45
		SMOVIL		-508, R46
		SMOVIL		-1, R47
		SADDA.M1		R47:R46,AR14,AR10
		SNOP		1
		SSTW		R45, *AR10
		SMOVIL		-508, R46
		SMOVIL		-1, R47
		SADDA.M1		R47:R46,AR14,AR10
		SNOP		1
		SLDW		*AR10, R45
		SNOP		5
		SOR		R45, R44, R45
		SMOVIL		-508, R46
		SMOVIL		-1, R47
		SADDA.M1		R47:R46,AR14,AR10
		SNOP		1
		SSTW		R45, *AR10
		SSHFLL		4, R42, R46
		SMOVIL		-512, R44
		SMOVIL		-1, R45
		SADDA.M1		R45:R44,AR14,AR10
		SNOP		1
		SSTW		R46, *AR10
		SMOVIL		8, R42
		SMOVIL		0, R43
		SMOVIL		-512, R46
		SMOVIL		-1, R47
		SADDA.M1		R47:R46,AR14,AR10
		SNOP		1
		SLDW		*AR10, R46
		SNOP		5
		SADD.M1		R42,R46,R44
		SMOVIL		-512, R48
		SMOVIL		-1, R49
		SADDA.M1		R49:R48,AR14,AR10
		SNOP		1
		SLDW		*AR10, R47
		SNOP		5
		SLTU		R44, R47, R46
		SMOVIL		-508, R48
		SMOVIL		-1, R49
		SADDA.M1		R49:R48,AR14,AR10
		SNOP		1
		SLDW		*AR10, R47
		SNOP		5
		SADD.M1		R43,R47,R45
		SADD.M1		R45,R46,R42
		SMOV.M1		R42, R45
		SMOVIL		-192, R42
		SMOVIL		-1, R43
		SMOVIL		-72, R48
		SMOVIL		-1, R49
		SADDA.M1		R49:R48,AR14,OR11
		SNOP		1
		SADDA.M1		R43:R42,OR11,OR11
		SNOP		1
		SMVAAGL.M1		OR11, R43:R42
		SNOP		1
		SMVAAGH.M1		OR11, R43:R42
		SNOP		1
	;no-op trunc di R45:R44 to pdi R45:R44
		SMVAGA36.M1		R43:R42, AR10
		SNOP		1
		SLDDW		*AR10, R43:R42
		SNOP		5
		SMVAGA36.M1		R43:R42, OR11
		SNOP		1
		SADDA.M1		R45:R44,OR11,OR11
		SNOP		1
		SMVAAGL.M1		OR11, R47:R46
		SNOP		1
		SMVAAGH.M1		OR11, R47:R46
		SNOP		1
		SMOVIL		-152, R42
		SMOVIL		-1, R43
		SMOVIL		-72, R48
		SMOVIL		-1, R49
		SADDA.M1		R49:R48,AR14,OR11
		SNOP		1
		SADDA.M1		R43:R42,OR11,OR11
		SNOP		1
		SMVAAGL.M1		OR11, R45:R44
		SNOP		1
		SMVAAGH.M1		OR11, R45:R44
		SNOP		1
		SMVAGA36.M1		R47:R46, AR10
		SNOP		1
		SLDDW		*AR10, R43:R42
		SNOP		5
		SMVAGA36.M1		R45:R44, AR10
		SNOP		1
		SSTDW		R43:R42, *AR10
	.loc 1 264 0 discriminator 2
		SMOVIL		-128, R42
		SMOVIL		-1, R43
		SMOVIL		-72, R46
		SMOVIL		-1, R47
		SADDA.M1		R47:R46,AR14,OR11
		SNOP		1
		SADDA.M1		R43:R42,OR11,OR11
		SNOP		1
		SMVAAGL.M1		OR11, R45:R44
		SNOP		1
		SMVAAGH.M1		OR11, R45:R44
		SNOP		1
		SMOVIL		-144, R42
		SMOVIL		-1, R43
		SMOVIL		-72, R46
		SMOVIL		-1, R47
		SADDA.M1		R47:R46,AR14,OR11
		SNOP		1
		SADDA.M1		R43:R42,OR11,OR11
		SNOP		1
		SMVAAGL.M1		OR11, R43:R42
		SNOP		1
		SMVAAGH.M1		OR11, R43:R42
		SNOP		1
		SMVAGA36.M1		R45:R44, AR10
		SNOP		1
		SLDDW		*AR10, R45:R44
		SNOP		5
		SMVAGA36.M1		R43:R42, AR10
		SNOP		1
		SLDDW		*AR10, R43:R42
		SNOP		5
		SFMULD.M1		R45:R44, R43:R42, R47:R46
		SNOP		5
		SMOVIL		-136, R42
		SMOVIL		-1, R43
		SMOVIL		-72, R48
		SMOVIL		-1, R49
		SADDA.M1		R49:R48,AR14,OR11
		SNOP		1
		SADDA.M1		R43:R42,OR11,OR11
		SNOP		1
		SMVAAGL.M1		OR11, R45:R44
		SNOP		1
		SMVAAGH.M1		OR11, R45:R44
		SNOP		1
		SMOVIL		-152, R42
		SMOVIL		-1, R43
		SMOVIL		-72, R48
		SMOVIL		-1, R49
		SADDA.M1		R49:R48,AR14,OR11
		SNOP		1
		SADDA.M1		R43:R42,OR11,OR11
		SNOP		1
		SMVAAGL.M1		OR11, R43:R42
		SNOP		1
		SMVAAGH.M1		OR11, R43:R42
		SNOP		1
		SMVAGA36.M1		R45:R44, AR10
		SNOP		1
		SLDDW		*AR10, R45:R44
		SNOP		5
		SMVAGA36.M1		R43:R42, AR10
		SNOP		1
		SLDDW		*AR10, R43:R42
		SNOP		5
		SFMULD.M1		R45:R44, R43:R42, R43:R42
		SNOP		5
		SFSUBD.M1	R43:R42, R47:R46, R45:R44
		SNOP		4
		SLDDW		*-AR14[11], R43:R42
		SNOP		5
		SFADDD.M1		R43:R42, R45:R44, R43:R42
		SNOP		4
		SSTDW		R43:R42, *-AR14[11]
	.loc 1 265 0 discriminator 2
		SMOVIL		-128, R42
		SMOVIL		-1, R43
		SMOVIL		-72, R46
		SMOVIL		-1, R47
		SADDA.M1		R47:R46,AR14,OR11
		SNOP		1
		SADDA.M1		R43:R42,OR11,OR11
		SNOP		1
		SMVAAGL.M1		OR11, R45:R44
		SNOP		1
		SMVAAGH.M1		OR11, R45:R44
		SNOP		1
		SMOVIL		-152, R42
		SMOVIL		-1, R43
		SMOVIL		-72, R46
		SMOVIL		-1, R47
		SADDA.M1		R47:R46,AR14,OR11
		SNOP		1
		SADDA.M1		R43:R42,OR11,OR11
		SNOP		1
		SMVAAGL.M1		OR11, R43:R42
		SNOP		1
		SMVAAGH.M1		OR11, R43:R42
		SNOP		1
		SMVAGA36.M1		R45:R44, AR10
		SNOP		1
		SLDDW		*AR10, R45:R44
		SNOP		5
		SMVAGA36.M1		R43:R42, AR10
		SNOP		1
		SLDDW		*AR10, R43:R42
		SNOP		5
		SFMULD.M1		R45:R44, R43:R42, R47:R46
		SNOP		5
		SMOVIL		-136, R42
		SMOVIL		-1, R43
		SMOVIL		-72, R48
		SMOVIL		-1, R49
		SADDA.M1		R49:R48,AR14,OR11
		SNOP		1
		SADDA.M1		R43:R42,OR11,OR11
		SNOP		1
		SMVAAGL.M1		OR11, R45:R44
		SNOP		1
		SMVAAGH.M1		OR11, R45:R44
		SNOP		1
		SMOVIL		-144, R42
		SMOVIL		-1, R43
		SMOVIL		-72, R48
		SMOVIL		-1, R49
		SADDA.M1		R49:R48,AR14,OR11
		SNOP		1
		SADDA.M1		R43:R42,OR11,OR11
		SNOP		1
		SMVAAGL.M1		OR11, R43:R42
		SNOP		1
		SMVAAGH.M1		OR11, R43:R42
		SNOP		1
		SMVAGA36.M1		R45:R44, AR10
		SNOP		1
		SLDDW		*AR10, R45:R44
		SNOP		5
		SMVAGA36.M1		R43:R42, AR10
		SNOP		1
		SLDDW		*AR10, R43:R42
		SNOP		5
		SFMULD.M1		R45:R44, R43:R42, R43:R42
		SNOP		5
		SFADDD.M1		R47:R46, R43:R42, R45:R44
		SNOP		4
		SLDDW		*-AR14[12], R43:R42
		SNOP		5
		SFADDD.M1		R43:R42, R45:R44, R43:R42
		SNOP		4
		SSTDW		R43:R42, *-AR14[12]
	.loc 1 258 0 discriminator 2
		SMOVIL		-76, R42
		SMOVIL		-1, R43
		SMOVIL		-72, R46
		SMOVIL		-1, R47
		SADDA.M1		R47:R46,AR14,OR11
		SNOP		1
		SADDA.M1		R43:R42,OR11,OR11
		SNOP		1
		SMVAAGL.M1		OR11, R45:R44
		SNOP		1
		SMVAAGH.M1		OR11, R45:R44
		SNOP		1
		SMOVIL		-76, R42
		SMOVIL		-1, R43
		SMOVIL		-72, R46
		SMOVIL		-1, R47
		SADDA.M1		R47:R46,AR14,OR11
		SNOP		1
		SADDA.M1		R43:R42,OR11,OR11
		SNOP		1
		SMVAAGL.M1		OR11, R43:R42
		SNOP		1
		SMVAAGH.M1		OR11, R43:R42
		SNOP		1
		SMVAGA36.M1		R43:R42, AR10
		SNOP		1
		SLDW		*AR10, R42
		SNOP		5
		SADD.M1		1,R42,R42
		SMVAGA36.M1		R45:R44, AR10
		SNOP		1
		SSTW		R42, *AR10
.L73:
	.loc 1 258 0 is_stmt 0 discriminator 1
		SMOVIL		-78, R44
		SMOVIL		-1, R45
		SADDA.M1		R45:R44,AR14,AR10
		SNOP		1
		SLDH		*AR10, R42
		SNOP		5
		SSHFLL		16, R42, R44
		SSHFLR		16, R44, R44
		SMOVIL		-76, R42
		SMOVIL		-1, R43
		SMOVIL		-72, R46
		SMOVIL		-1, R47
		SADDA.M1		R47:R46,AR14,OR11
		SNOP		1
		SADDA.M1		R43:R42,OR11,OR11
		SNOP		1
		SMVAAGL.M1		OR11, R43:R42
		SNOP		1
		SMVAAGH.M1		OR11, R43:R42
		SNOP		1
		SMVAGA36.M1		R43:R42, AR10
		SNOP		1
		SLDW		*AR10, R42
		SNOP		5
		SLT		R42, R44, R42
		SMOV.M1		R42, R0
	[R0]	SBR		.L74
		SNOP		6
	.loc 1 267 0 is_stmt 1
		SMOVIL		-72, R42
		SMOVIL		-1, R43
		SMOVIL		-72, R44
		SMOVIL		-1, R45
		SADDA.M1		R45:R44,AR14,OR11
		SNOP		1
		SADDA.M1		R43:R42,OR11,OR11
		SNOP		1
		SMVAAGL.M1		OR11, R43:R42
		SNOP		1
		SMVAAGH.M1		OR11, R43:R42
		SNOP		1
		SMVAGA36.M1		R43:R42, AR10
		SNOP		1
		SLDW		*AR10, R46
		SNOP		5
		SMOVIL		-520, R44
		SMOVIL		-1, R45
		SADDA.M1		R45:R44,AR14,AR10
		SNOP		1
		SSTW		R46, *AR10
		SMVAGA36.M1		R43:R42, AR10
		SNOP		1
		SLDW		*AR10, R42
		SNOP		5
		SSHFAR		31, R42, R42
		SMOVIL		-516, R44
		SMOVIL		-1, R45
		SADDA.M1		R45:R44,AR14,AR10
		SNOP		1
		SSTW		R42, *AR10
		SMOVIL		-68, R42
		SMOVIL		-1, R43
		SMOVIL		-72, R44
		SMOVIL		-1, R45
		SADDA.M1		R45:R44,AR14,OR11
		SNOP		1
		SADDA.M1		R43:R42,OR11,OR11
		SNOP		1
		SMVAAGL.M1		OR11, R43:R42
		SNOP		1
		SMVAAGH.M1		OR11, R43:R42
		SNOP		1
		SMVAGA36.M1		R43:R42, AR10
		SNOP		1
		SLDW		*AR10, R46
		SNOP		5
		SMOVIL		-528, R44
		SMOVIL		-1, R45
		SADDA.M1		R45:R44,AR14,AR10
		SNOP		1
		SSTW		R46, *AR10
		SMVAGA36.M1		R43:R42, AR10
		SNOP		1
		SLDW		*AR10, R42
		SNOP		5
		SSHFAR		31, R42, R42
		SMOVIL		-524, R44
		SMOVIL		-1, R45
		SADDA.M1		R45:R44,AR14,AR10
		SNOP		1
		SSTW		R42, *AR10
		SMOVIL		-80, R44
		SMOVIL		-1, R45
		SADDA.M1		R45:R44,AR14,AR10
		SNOP		1
		SLDH		*AR10, R42
		SNOP		5
		SSHFLL		16, R42, R42
		SSHFLR		16, R42, R42
		SMOVIL		-536, R44
		SMOVIL		-1, R45
		SADDA.M1		R45:R44,AR14,AR10
		SNOP		1
		SSTW		R42, *AR10
		SMOVIL		0, R44
		SMOVIL		-532, R42
		SMOVIL		-1, R43
		SADDA.M1		R43:R42,AR14,AR10
		SNOP		1
		SSTW		R44, *AR10
		SMOVIL		-524, R44
		SMOVIL		-1, R45
		SADDA.M1		R45:R44,AR14,AR10
		SNOP		1
		SLDW		*AR10, R42
		SNOP		5
		SMOVIL		-536, R44
		SMOVIL		-1, R45
		SADDA.M1		R45:R44,AR14,AR10
		SNOP		1
		SLDW		*AR10, R44
		SNOP		5
		SMULIS.M1		R44,R42,R43
		SNOP		2
		SMOVIL		-532, R44
		SMOVIL		-1, R45
		SADDA.M1		R45:R44,AR14,AR10
		SNOP		1
		SLDW		*AR10, R46
		SNOP		5
		SMOVIL		-528, R44
		SMOVIL		-1, R45
		SADDA.M1		R45:R44,AR14,AR10
		SNOP		1
		SLDW		*AR10, R44
		SNOP		5
		SMULIS.M1		R44,R46,R42
		SNOP		2
		SADD.M1		R42,R43,R44
		SMOVIL		-528, R46
		SMOVIL		-1, R47
		SADDA.M1		R47:R46,AR14,AR10
		SNOP		1
		SLDW		*AR10, R45
		SNOP		5
		SMOVIL		-536, R46
		SMOVIL		-1, R47
		SADDA.M1		R47:R46,AR14,AR10
		SNOP		1
		SLDW		*AR10, R46
		SNOP		5
		SMULU.M1		R46,R45,R43:R42
		SNOP		3
		SADD.M1		R43,R44,R44
		SMOV.M1		R44, R43
		SMOVIL		-520, R46
		SMOVIL		-1, R47
		SADDA.M1		R47:R46,AR14,AR10
		SNOP		1
		SLDW		*AR10, R46
		SNOP		5
		SADD.M1		R42,R46,R44
		SMOVIL		-520, R48
		SMOVIL		-1, R49
		SADDA.M1		R49:R48,AR14,AR10
		SNOP		1
		SLDW		*AR10, R47
		SNOP		5
		SLTU		R44, R47, R46
		SMOVIL		-516, R48
		SMOVIL		-1, R49
		SADDA.M1		R49:R48,AR14,AR10
		SNOP		1
		SLDW		*AR10, R47
		SNOP		5
		SADD.M1		R43,R47,R45
		SADD.M1		R45,R46,R42
		SMOV.M1		R42, R45
		SMOV.M1		R44, R42
		SMOV.M1		R45, R43
		SSHFLR		28, R42, R44
		SSHFLL		4, R43, R45
		SMOVIL		-540, R46
		SMOVIL		-1, R47
		SADDA.M1		R47:R46,AR14,AR10
		SNOP		1
		SSTW		R45, *AR10
		SMOVIL		-540, R46
		SMOVIL		-1, R47
		SADDA.M1		R47:R46,AR14,AR10
		SNOP		1
		SLDW		*AR10, R45
		SNOP		5
		SOR		R45, R44, R45
		SMOVIL		-540, R46
		SMOVIL		-1, R47
		SADDA.M1		R47:R46,AR14,AR10
		SNOP		1
		SSTW		R45, *AR10
		SSHFLL		4, R42, R46
		SMOVIL		-544, R44
		SMOVIL		-1, R45
		SADDA.M1		R45:R44,AR14,AR10
		SNOP		1
		SSTW		R46, *AR10
		SMOVIL		8, R42
		SMOVIL		0, R43
		SMOVIL		-544, R46
		SMOVIL		-1, R47
		SADDA.M1		R47:R46,AR14,AR10
		SNOP		1
		SLDW		*AR10, R46
		SNOP		5
		SADD.M1		R42,R46,R44
		SMOVIL		-544, R48
		SMOVIL		-1, R49
		SADDA.M1		R49:R48,AR14,AR10
		SNOP		1
		SLDW		*AR10, R47
		SNOP		5
		SLTU		R44, R47, R46
		SMOVIL		-540, R48
		SMOVIL		-1, R49
		SADDA.M1		R49:R48,AR14,AR10
		SNOP		1
		SLDW		*AR10, R47
		SNOP		5
		SADD.M1		R43,R47,R45
		SADD.M1		R45,R46,R42
		SMOV.M1		R42, R45
		SMOVIL		-176, R42
		SMOVIL		-1, R43
		SMOVIL		-72, R48
		SMOVIL		-1, R49
		SADDA.M1		R49:R48,AR14,OR11
		SNOP		1
		SADDA.M1		R43:R42,OR11,OR11
		SNOP		1
		SMVAAGL.M1		OR11, R43:R42
		SNOP		1
		SMVAAGH.M1		OR11, R43:R42
		SNOP		1
	;no-op trunc di R45:R44 to pdi R45:R44
		SMVAGA36.M1		R43:R42, AR10
		SNOP		1
		SLDDW		*AR10, R43:R42
		SNOP		5
		SMVAGA36.M1		R43:R42, OR11
		SNOP		1
		SADDA.M1		R45:R44,OR11,OR11
		SNOP		1
		SMVAAGL.M1		OR11, R43:R42
		SNOP		1
		SMVAAGH.M1		OR11, R43:R42
		SNOP		1
		SMVAGA36.M1		R43:R42, AR10
		SNOP		1
		SLDDW		*AR10, R45:R44
		SNOP		5
		SLDDW		*-AR14[12], R43:R42
		SNOP		5
		SFSUBD.M1	R43:R42, R45:R44, R47:R46
		SNOP		4
		SMOVIL		-160, R42
		SMOVIL		-1, R43
		SMOVIL		-72, R48
		SMOVIL		-1, R49
		SADDA.M1		R49:R48,AR14,OR11
		SNOP		1
		SADDA.M1		R43:R42,OR11,OR11
		SNOP		1
		SMVAAGL.M1		OR11, R45:R44
		SNOP		1
		SMVAAGH.M1		OR11, R45:R44
		SNOP		1
		SFABSD.M1		R47:R46, R43:R42
		SNOP		1
		SMVAGA36.M1		R45:R44, AR10
		SNOP		1
		SSTDW		R43:R42, *AR10
	.loc 1 268 0
		SMOVIL		-160, R42
		SMOVIL		-1, R43
		SMOVIL		-72, R44
		SMOVIL		-1, R45
		SADDA.M1		R45:R44,AR14,OR11
		SNOP		1
		SADDA.M1		R43:R42,OR11,OR11
		SNOP		1
		SMVAAGL.M1		OR11, R43:R42
		SNOP		1
		SMVAAGH.M1		OR11, R43:R42
		SNOP		1
		SMVAGA36.M1		R43:R42, AR10
		SNOP		1
		SLDDW		*AR10, R45:R44
		SNOP		5
		SLDDW		*-AR14[14], R43:R42
		SNOP		5
		SFCMPGD.M1		R45:R44, R43:R42, R42
		SNOP		1
		SMOV.M1		R42, R0
	[!R0]	SBR		.L75
		SNOP		6
.L144:
	.loc 1 270 0
		SMOVIL		-160, R42
		SMOVIL		-1, R43
		SMOVIL		-72, R44
		SMOVIL		-1, R45
		SADDA.M1		R45:R44,AR14,OR11
		SNOP		1
		SADDA.M1		R43:R42,OR11,OR11
		SNOP		1
		SMVAAGL.M1		OR11, R43:R42
		SNOP		1
		SMVAAGH.M1		OR11, R43:R42
		SNOP		1
		SMVAGA36.M1		R43:R42, AR10
		SNOP		1
		SLDDW		*AR10, R43:R42
		SNOP		5
		SSTDW		R43:R42, *-AR14[14]
.L75:
	.loc 1 272 0
		SMOVIL		-72, R42
		SMOVIL		-1, R43
		SMOVIL		-72, R44
		SMOVIL		-1, R45
		SADDA.M1		R45:R44,AR14,OR11
		SNOP		1
		SADDA.M1		R43:R42,OR11,OR11
		SNOP		1
		SMVAAGL.M1		OR11, R43:R42
		SNOP		1
		SMVAAGH.M1		OR11, R43:R42
		SNOP		1
		SMVAGA36.M1		R43:R42, AR10
		SNOP		1
		SLDW		*AR10, R46
		SNOP		5
		SMOVIL		-552, R44
		SMOVIL		-1, R45
		SADDA.M1		R45:R44,AR14,AR10
		SNOP		1
		SSTW		R46, *AR10
		SMVAGA36.M1		R43:R42, AR10
		SNOP		1
		SLDW		*AR10, R42
		SNOP		5
		SSHFAR		31, R42, R42
		SMOVIL		-548, R44
		SMOVIL		-1, R45
		SADDA.M1		R45:R44,AR14,AR10
		SNOP		1
		SSTW		R42, *AR10
		SMOVIL		-68, R42
		SMOVIL		-1, R43
		SMOVIL		-72, R44
		SMOVIL		-1, R45
		SADDA.M1		R45:R44,AR14,OR11
		SNOP		1
		SADDA.M1		R43:R42,OR11,OR11
		SNOP		1
		SMVAAGL.M1		OR11, R43:R42
		SNOP		1
		SMVAAGH.M1		OR11, R43:R42
		SNOP		1
		SMVAGA36.M1		R43:R42, AR10
		SNOP		1
		SLDW		*AR10, R46
		SNOP		5
		SMOVIL		-560, R44
		SMOVIL		-1, R45
		SADDA.M1		R45:R44,AR14,AR10
		SNOP		1
		SSTW		R46, *AR10
		SMVAGA36.M1		R43:R42, AR10
		SNOP		1
		SLDW		*AR10, R42
		SNOP		5
		SSHFAR		31, R42, R42
		SMOVIL		-556, R44
		SMOVIL		-1, R45
		SADDA.M1		R45:R44,AR14,AR10
		SNOP		1
		SSTW		R42, *AR10
		SMOVIL		-80, R44
		SMOVIL		-1, R45
		SADDA.M1		R45:R44,AR14,AR10
		SNOP		1
		SLDH		*AR10, R42
		SNOP		5
		SSHFLL		16, R42, R42
		SSHFLR		16, R42, R42
		SMOVIL		-568, R44
		SMOVIL		-1, R45
		SADDA.M1		R45:R44,AR14,AR10
		SNOP		1
		SSTW		R42, *AR10
		SMOVIL		0, R44
		SMOVIL		-564, R42
		SMOVIL		-1, R43
		SADDA.M1		R43:R42,AR14,AR10
		SNOP		1
		SSTW		R44, *AR10
		SMOVIL		-556, R44
		SMOVIL		-1, R45
		SADDA.M1		R45:R44,AR14,AR10
		SNOP		1
		SLDW		*AR10, R42
		SNOP		5
		SMOVIL		-568, R44
		SMOVIL		-1, R45
		SADDA.M1		R45:R44,AR14,AR10
		SNOP		1
		SLDW		*AR10, R44
		SNOP		5
		SMULIS.M1		R44,R42,R43
		SNOP		2
		SMOVIL		-564, R44
		SMOVIL		-1, R45
		SADDA.M1		R45:R44,AR14,AR10
		SNOP		1
		SLDW		*AR10, R46
		SNOP		5
		SMOVIL		-560, R44
		SMOVIL		-1, R45
		SADDA.M1		R45:R44,AR14,AR10
		SNOP		1
		SLDW		*AR10, R44
		SNOP		5
		SMULIS.M1		R44,R46,R42
		SNOP		2
		SADD.M1		R42,R43,R44
		SMOVIL		-560, R46
		SMOVIL		-1, R47
		SADDA.M1		R47:R46,AR14,AR10
		SNOP		1
		SLDW		*AR10, R45
		SNOP		5
		SMOVIL		-568, R46
		SMOVIL		-1, R47
		SADDA.M1		R47:R46,AR14,AR10
		SNOP		1
		SLDW		*AR10, R46
		SNOP		5
		SMULU.M1		R46,R45,R43:R42
		SNOP		3
		SADD.M1		R43,R44,R44
		SMOV.M1		R44, R43
		SMOVIL		-552, R46
		SMOVIL		-1, R47
		SADDA.M1		R47:R46,AR14,AR10
		SNOP		1
		SLDW		*AR10, R46
		SNOP		5
		SADD.M1		R42,R46,R44
		SMOVIL		-552, R48
		SMOVIL		-1, R49
		SADDA.M1		R49:R48,AR14,AR10
		SNOP		1
		SLDW		*AR10, R47
		SNOP		5
		SLTU		R44, R47, R46
		SMOVIL		-548, R48
		SMOVIL		-1, R49
		SADDA.M1		R49:R48,AR14,AR10
		SNOP		1
		SLDW		*AR10, R47
		SNOP		5
		SADD.M1		R43,R47,R45
		SADD.M1		R45,R46,R42
		SMOV.M1		R42, R45
		SMOV.M1		R44, R42
		SMOV.M1		R45, R43
		SSHFLR		28, R42, R44
		SSHFLL		4, R43, R45
		SMOVIL		-572, R46
		SMOVIL		-1, R47
		SADDA.M1		R47:R46,AR14,AR10
		SNOP		1
		SSTW		R45, *AR10
		SMOVIL		-572, R46
		SMOVIL		-1, R47
		SADDA.M1		R47:R46,AR14,AR10
		SNOP		1
		SLDW		*AR10, R45
		SNOP		5
		SOR		R45, R44, R45
		SMOVIL		-572, R46
		SMOVIL		-1, R47
		SADDA.M1		R47:R46,AR14,AR10
		SNOP		1
		SSTW		R45, *AR10
		SSHFLL		4, R42, R46
		SMOVIL		-576, R44
		SMOVIL		-1, R45
		SADDA.M1		R45:R44,AR14,AR10
		SNOP		1
		SSTW		R46, *AR10
		SMOVIL		-176, R42
		SMOVIL		-1, R43
		SMOVIL		-72, R48
		SMOVIL		-1, R49
		SADDA.M1		R49:R48,AR14,OR11
		SNOP		1
		SADDA.M1		R43:R42,OR11,OR11
		SNOP		1
		SMVAAGL.M1		OR11, R43:R42
		SNOP		1
		SMVAAGH.M1		OR11, R43:R42
		SNOP		1
		SMOVIL		-576, R46
		SMOVIL		-1, R47
		SADDA.M1		R47:R46,AR14,AR10
		SNOP		1
		SLDDW		*AR10, R45:R44
		SNOP		5
	;no-op trunc di R45:R44 to pdi R45:R44
		SMVAGA36.M1		R43:R42, AR10
		SNOP		1
		SLDDW		*AR10, R43:R42
		SNOP		5
		SMVAGA36.M1		R43:R42, OR11
		SNOP		1
		SADDA.M1		R45:R44,OR11,OR11
		SNOP		1
		SMVAAGL.M1		OR11, R43:R42
		SNOP		1
		SMVAAGH.M1		OR11, R43:R42
		SNOP		1
		SMVAGA36.M1		R43:R42, AR10
		SNOP		1
		SLDDW		*AR10, R45:R44
		SNOP		5
		SLDDW		*-AR14[11], R43:R42
		SNOP		5
		SFSUBD.M1	R43:R42, R45:R44, R43:R42
		SNOP		4
		SFABSD.M1		R43:R42, R43:R42
		SNOP		1
		SSTDW		R43:R42, *-AR14[13]
	.loc 1 273 0
		SLDDW		*-AR14[13], R45:R44
		SNOP		5
		SLDDW		*-AR14[14], R43:R42
		SNOP		5
		SFCMPGD.M1		R45:R44, R43:R42, R42
		SNOP		1
		SMOV.M1		R42, R0
	[!R0]	SBR		.L77
		SNOP		6
.L145:
	.loc 1 275 0
		SLDDW		*-AR14[13], R43:R42
		SNOP		5
		SSTDW		R43:R42, *-AR14[14]
.L77:
	.loc 1 277 0
		SLDDW		*-AR14[13], R45:R44
		SNOP		5
		SMOVIL		-184, R46
		SMOVIL		-1, R47
		SADDA.M1		R47:R46,AR14,AR10
		SNOP		1
		SLDDW		*AR10, R43:R42
		SNOP		5
		SFCMPGD.M1		R45:R44, R43:R42, R42
		SNOP		1
		SMOV.M1		R42, R0
	[!R0]	SBR		.L160
		SNOP		6
.L146:
	.loc 1 279 0
		SMOVIL		0, R42
		SMOVIL		-76, R44
		SMOVIL		-1, R45
		SADDA.M1		R45:R44,AR14,AR10
		SNOP		1
		SSTH		R42, *AR10
	.loc 1 280 0
		SMOVIL.L		.LC11, R42
		SMOVIH.L		.LC11, R42
		SMOVIH4.L		.LC11, R43
		SSTDW		R43:R42, *+AR15[1]
		SLDDW		*-AR14[13], R43:R42
		SNOP		5
		SSTDW		R43:R42, *+AR15[2]
		SBR		printf
		SMOVIL		.L183, R62
		SMOVIH		.L183, R62
		SMOVIH4.L		.L183, R63
		SNOP		4
.L183:
	.loc 1 281 0
		SBR		.L81
		SNOP		6
.L160:
	.loc 1 283 0
		SMOVIL		-160, R42
		SMOVIL		-1, R43
		SMOVIL		-72, R44
		SMOVIL		-1, R45
		SADDA.M1		R45:R44,AR14,OR11
		SNOP		1
		SADDA.M1		R43:R42,OR11,OR11
		SNOP		1
		SMVAAGL.M1		OR11, R43:R42
		SNOP		1
		SMVAAGH.M1		OR11, R43:R42
		SNOP		1
		SMVAGA36.M1		R43:R42, AR10
		SNOP		1
		SLDDW		*AR10, R45:R44
		SNOP		5
		SMOVIL		-184, R46
		SMOVIL		-1, R47
		SADDA.M1		R47:R46,AR14,AR10
		SNOP		1
		SLDDW		*AR10, R43:R42
		SNOP		5
		SFCMPGD.M1		R45:R44, R43:R42, R42
		SNOP		1
		SMOV.M1		R42, R0
	[!R0]	SBR		.L161
		SNOP		6
.L147:
	.loc 1 285 0
		SMOVIL		0, R42
		SMOVIL		-76, R44
		SMOVIL		-1, R45
		SADDA.M1		R45:R44,AR14,AR10
		SNOP		1
		SSTH		R42, *AR10
	.loc 1 286 0
		SMOVIL.L		.LC12, R42
		SMOVIH.L		.LC12, R42
		SMOVIH4.L		.LC12, R43
		SSTDW		R43:R42, *+AR15[1]
		SMOVIL		-160, R42
		SMOVIL		-1, R43
		SMOVIL		-72, R44
		SMOVIL		-1, R45
		SADDA.M1		R45:R44,AR14,OR11
		SNOP		1
		SADDA.M1		R43:R42,OR11,OR11
		SNOP		1
		SMVAAGL.M1		OR11, R43:R42
		SNOP		1
		SMVAAGH.M1		OR11, R43:R42
		SNOP		1
		SMVAGA36.M1		R43:R42, AR10
		SNOP		1
		SLDDW		*AR10, R43:R42
		SNOP		5
		SSTDW		R43:R42, *+AR15[2]
		SBR		printf
		SMOVIL		.L184, R62
		SMOVIH		.L184, R62
		SMOVIH4.L		.L184, R63
		SNOP		4
.L184:
	.loc 1 287 0
		SBR		.L81
		SNOP		6
.L161:
	.loc 1 254 0
		SMOVIL		-72, R42
		SMOVIL		-1, R43
		SMOVIL		-72, R46
		SMOVIL		-1, R47
		SADDA.M1		R47:R46,AR14,OR11
		SNOP		1
		SADDA.M1		R43:R42,OR11,OR11
		SNOP		1
		SMVAAGL.M1		OR11, R45:R44
		SNOP		1
		SMVAAGH.M1		OR11, R45:R44
		SNOP		1
		SMOVIL		-72, R42
		SMOVIL		-1, R43
		SMOVIL		-72, R46
		SMOVIL		-1, R47
		SADDA.M1		R47:R46,AR14,OR11
		SNOP		1
		SADDA.M1		R43:R42,OR11,OR11
		SNOP		1
		SMVAAGL.M1		OR11, R43:R42
		SNOP		1
		SMVAAGH.M1		OR11, R43:R42
		SNOP		1
		SMVAGA36.M1		R43:R42, AR10
		SNOP		1
		SLDW		*AR10, R42
		SNOP		5
		SADD.M1		1,R42,R42
		SMVAGA36.M1		R45:R44, AR10
		SNOP		1
		SSTW		R42, *AR10
.L72:
	.loc 1 254 0 is_stmt 0 discriminator 1
		SMOVIL		-80, R44
		SMOVIL		-1, R45
		SADDA.M1		R45:R44,AR14,AR10
		SNOP		1
		SLDH		*AR10, R42
		SNOP		5
		SSHFLL		16, R42, R44
		SSHFLR		16, R44, R44
		SMOVIL		-72, R42
		SMOVIL		-1, R43
		SMOVIL		-72, R46
		SMOVIL		-1, R47
		SADDA.M1		R47:R46,AR14,OR11
		SNOP		1
		SADDA.M1		R43:R42,OR11,OR11
		SNOP		1
		SMVAAGL.M1		OR11, R43:R42
		SNOP		1
		SMVAAGH.M1		OR11, R43:R42
		SNOP		1
		SMVAGA36.M1		R43:R42, AR10
		SNOP		1
		SLDW		*AR10, R42
		SNOP		5
		SLT		R42, R44, R42
		SMOV.M1		R42, R0
	[R0]	SBR		.L84
		SNOP		6
.L81:
	.loc 1 252 0 is_stmt 1
		SMOVIL		-68, R42
		SMOVIL		-1, R43
		SMOVIL		-72, R46
		SMOVIL		-1, R47
		SADDA.M1		R47:R46,AR14,OR11
		SNOP		1
		SADDA.M1		R43:R42,OR11,OR11
		SNOP		1
		SMVAAGL.M1		OR11, R45:R44
		SNOP		1
		SMVAAGH.M1		OR11, R45:R44
		SNOP		1
		SMOVIL		-68, R42
		SMOVIL		-1, R43
		SMOVIL		-72, R46
		SMOVIL		-1, R47
		SADDA.M1		R47:R46,AR14,OR11
		SNOP		1
		SADDA.M1		R43:R42,OR11,OR11
		SNOP		1
		SMVAAGL.M1		OR11, R43:R42
		SNOP		1
		SMVAAGH.M1		OR11, R43:R42
		SNOP		1
		SMVAGA36.M1		R43:R42, AR10
		SNOP		1
		SLDW		*AR10, R42
		SNOP		5
		SADD.M1		1,R42,R42
		SMVAGA36.M1		R45:R44, AR10
		SNOP		1
		SSTW		R42, *AR10
.L71:
	.loc 1 252 0 is_stmt 0 discriminator 1
		SMOVIL		-78, R44
		SMOVIL		-1, R45
		SADDA.M1		R45:R44,AR14,AR10
		SNOP		1
		SLDH		*AR10, R42
		SNOP		5
		SSHFLL		16, R42, R44
		SSHFLR		16, R44, R44
		SMOVIL		-68, R42
		SMOVIL		-1, R43
		SMOVIL		-72, R46
		SMOVIL		-1, R47
		SADDA.M1		R47:R46,AR14,OR11
		SNOP		1
		SADDA.M1		R43:R42,OR11,OR11
		SNOP		1
		SMVAAGL.M1		OR11, R43:R42
		SNOP		1
		SMVAAGH.M1		OR11, R43:R42
		SNOP		1
		SMVAGA36.M1		R43:R42, AR10
		SNOP		1
		SLDW		*AR10, R42
		SNOP		5
		SLT		R42, R44, R42
		SMOV.M1		R42, R0
	[R0]	SBR		.L85
		SNOP		6
.L70:
	.loc 1 296 0 is_stmt 1
		SMOVIL		-92, R42
		SMOVIL		-1, R43
		SMOVIL		-72, R44
		SMOVIL		-1, R45
		SADDA.M1		R45:R44,AR14,OR11
		SNOP		1
		SADDA.M1		R43:R42,OR11,OR11
		SNOP		1
		SMVAAGL.M1		OR11, R43:R42
		SNOP		1
		SMVAAGH.M1		OR11, R43:R42
		SNOP		1
		SMVAGA36.M1		R43:R42, AR10
		SNOP		1
		SLDW		*AR10, R42
		SNOP		5
		SMOV.M1		R42, R0
	[!R0]	SBR		.L86
		SNOP		6
	.loc 1 298 0
		SMOVIL		0, R42
		SMOVIL		0, R43
		SMOVIL		-136, R44
		SMOVIL		-1, R45
		SADDA.M1		R45:R44,AR14,AR10
		SNOP		1
		SSTDW		R43:R42, *AR10
	.loc 1 299 0
		SMOVIL		-68, R42
		SMOVIL		-1, R43
		SMOVIL		-72, R44
		SMOVIL		-1, R45
		SADDA.M1		R45:R44,AR14,OR11
		SNOP		1
		SADDA.M1		R43:R42,OR11,OR11
		SNOP		1
		SMVAAGL.M1		OR11, R43:R42
		SNOP		1
		SMVAAGH.M1		OR11, R43:R42
		SNOP		1
		SMOVIL		0, R44
		SMVAGA36.M1		R43:R42, AR10
		SNOP		1
		SSTW		R44, *AR10
		SBR		.L87
		SNOP		6
.L101:
	.loc 1 301 0
		SMOVIL		-72, R42
		SMOVIL		-1, R43
		SMOVIL		-72, R44
		SMOVIL		-1, R45
		SADDA.M1		R45:R44,AR14,OR11
		SNOP		1
		SADDA.M1		R43:R42,OR11,OR11
		SNOP		1
		SMVAAGL.M1		OR11, R43:R42
		SNOP		1
		SMVAAGH.M1		OR11, R43:R42
		SNOP		1
		SMOVIL		0, R44
		SMVAGA36.M1		R43:R42, AR10
		SNOP		1
		SSTW		R44, *AR10
		SBR		.L88
		SNOP		6
.L100:
	.loc 1 303 0
		SMOVIL		0, R42
		SMOVIL		0, R43
		SSTDW		R43:R42, *-AR14[12]
	.loc 1 304 0
		SMOVIL		0, R42
		SMOVIL		0, R43
		SSTDW		R43:R42, *-AR14[11]
	.loc 1 305 0
		SMOVIL		-76, R42
		SMOVIL		-1, R43
		SMOVIL		-72, R44
		SMOVIL		-1, R45
		SADDA.M1		R45:R44,AR14,OR11
		SNOP		1
		SADDA.M1		R43:R42,OR11,OR11
		SNOP		1
		SMVAAGL.M1		OR11, R43:R42
		SNOP		1
		SMVAAGH.M1		OR11, R43:R42
		SNOP		1
		SMOVIL		0, R44
		SMVAGA36.M1		R43:R42, AR10
		SNOP		1
		SSTW		R44, *AR10
		SBR		.L89
		SNOP		6
.L90:
	.loc 1 307 0 discriminator 2
		SMOVIL		-76, R42
		SMOVIL		-1, R43
		SMOVIL		-72, R44
		SMOVIL		-1, R45
		SADDA.M1		R45:R44,AR14,OR11
		SNOP		1
		SADDA.M1		R43:R42,OR11,OR11
		SNOP		1
		SMVAAGL.M1		OR11, R43:R42
		SNOP		1
		SMVAAGH.M1		OR11, R43:R42
		SNOP		1
		SMVAGA36.M1		R43:R42, AR10
		SNOP		1
		SLDW		*AR10, R46
		SNOP		5
		SMOVIL		-584, R44
		SMOVIL		-1, R45
		SADDA.M1		R45:R44,AR14,AR10
		SNOP		1
		SSTW		R46, *AR10
		SMVAGA36.M1		R43:R42, AR10
		SNOP		1
		SLDW		*AR10, R42
		SNOP		5
		SSHFAR		31, R42, R42
		SMOVIL		-580, R44
		SMOVIL		-1, R45
		SADDA.M1		R45:R44,AR14,AR10
		SNOP		1
		SSTW		R42, *AR10
		SMOVIL		-68, R42
		SMOVIL		-1, R43
		SMOVIL		-72, R44
		SMOVIL		-1, R45
		SADDA.M1		R45:R44,AR14,OR11
		SNOP		1
		SADDA.M1		R43:R42,OR11,OR11
		SNOP		1
		SMVAAGL.M1		OR11, R43:R42
		SNOP		1
		SMVAAGH.M1		OR11, R43:R42
		SNOP		1
		SMVAGA36.M1		R43:R42, AR10
		SNOP		1
		SLDW		*AR10, R46
		SNOP		5
		SMOVIL		-592, R44
		SMOVIL		-1, R45
		SADDA.M1		R45:R44,AR14,AR10
		SNOP		1
		SSTW		R46, *AR10
		SMVAGA36.M1		R43:R42, AR10
		SNOP		1
		SLDW		*AR10, R42
		SNOP		5
		SSHFAR		31, R42, R42
		SMOVIL		-588, R44
		SMOVIL		-1, R45
		SADDA.M1		R45:R44,AR14,AR10
		SNOP		1
		SSTW		R42, *AR10
		SMOVIL		-78, R44
		SMOVIL		-1, R45
		SADDA.M1		R45:R44,AR14,AR10
		SNOP		1
		SLDH		*AR10, R42
		SNOP		5
		SSHFLL		16, R42, R42
		SSHFLR		16, R42, R42
		SMOVIL		-600, R44
		SMOVIL		-1, R45
		SADDA.M1		R45:R44,AR14,AR10
		SNOP		1
		SSTW		R42, *AR10
		SMOVIL		0, R44
		SMOVIL		-596, R42
		SMOVIL		-1, R43
		SADDA.M1		R43:R42,AR14,AR10
		SNOP		1
		SSTW		R44, *AR10
		SMOVIL		-588, R44
		SMOVIL		-1, R45
		SADDA.M1		R45:R44,AR14,AR10
		SNOP		1
		SLDW		*AR10, R42
		SNOP		5
		SMOVIL		-600, R44
		SMOVIL		-1, R45
		SADDA.M1		R45:R44,AR14,AR10
		SNOP		1
		SLDW		*AR10, R44
		SNOP		5
		SMULIS.M1		R44,R42,R43
		SNOP		2
		SMOVIL		-596, R44
		SMOVIL		-1, R45
		SADDA.M1		R45:R44,AR14,AR10
		SNOP		1
		SLDW		*AR10, R46
		SNOP		5
		SMOVIL		-592, R44
		SMOVIL		-1, R45
		SADDA.M1		R45:R44,AR14,AR10
		SNOP		1
		SLDW		*AR10, R44
		SNOP		5
		SMULIS.M1		R44,R46,R42
		SNOP		2
		SADD.M1		R42,R43,R44
		SMOVIL		-592, R46
		SMOVIL		-1, R47
		SADDA.M1		R47:R46,AR14,AR10
		SNOP		1
		SLDW		*AR10, R45
		SNOP		5
		SMOVIL		-600, R46
		SMOVIL		-1, R47
		SADDA.M1		R47:R46,AR14,AR10
		SNOP		1
		SLDW		*AR10, R46
		SNOP		5
		SMULU.M1		R46,R45,R43:R42
		SNOP		3
		SADD.M1		R43,R44,R44
		SMOV.M1		R44, R43
		SMOVIL		-584, R46
		SMOVIL		-1, R47
		SADDA.M1		R47:R46,AR14,AR10
		SNOP		1
		SLDW		*AR10, R46
		SNOP		5
		SADD.M1		R42,R46,R44
		SMOVIL		-584, R48
		SMOVIL		-1, R49
		SADDA.M1		R49:R48,AR14,AR10
		SNOP		1
		SLDW		*AR10, R47
		SNOP		5
		SLTU		R44, R47, R46
		SMOVIL		-580, R48
		SMOVIL		-1, R49
		SADDA.M1		R49:R48,AR14,AR10
		SNOP		1
		SLDW		*AR10, R47
		SNOP		5
		SADD.M1		R43,R47,R45
		SADD.M1		R45,R46,R42
		SMOV.M1		R42, R45
		SMOV.M1		R44, R42
		SMOV.M1		R45, R43
		SSHFLR		28, R42, R44
		SSHFLL		4, R43, R45
		SMOVIL		-604, R46
		SMOVIL		-1, R47
		SADDA.M1		R47:R46,AR14,AR10
		SNOP		1
		SSTW		R45, *AR10
		SMOVIL		-604, R46
		SMOVIL		-1, R47
		SADDA.M1		R47:R46,AR14,AR10
		SNOP		1
		SLDW		*AR10, R45
		SNOP		5
		SOR		R45, R44, R45
		SMOVIL		-604, R46
		SMOVIL		-1, R47
		SADDA.M1		R47:R46,AR14,AR10
		SNOP		1
		SSTW		R45, *AR10
		SSHFLL		4, R42, R46
		SMOVIL		-608, R44
		SMOVIL		-1, R45
		SADDA.M1		R45:R44,AR14,AR10
		SNOP		1
		SSTW		R46, *AR10
		SMOVIL		-184, R42
		SMOVIL		-1, R43
		SMOVIL		-72, R48
		SMOVIL		-1, R49
		SADDA.M1		R49:R48,AR14,OR11
		SNOP		1
		SADDA.M1		R43:R42,OR11,OR11
		SNOP		1
		SMVAAGL.M1		OR11, R43:R42
		SNOP		1
		SMVAAGH.M1		OR11, R43:R42
		SNOP		1
		SMOVIL		-608, R46
		SMOVIL		-1, R47
		SADDA.M1		R47:R46,AR14,AR10
		SNOP		1
		SLDDW		*AR10, R45:R44
		SNOP		5
	;no-op trunc di R45:R44 to pdi R45:R44
		SMVAGA36.M1		R43:R42, AR10
		SNOP		1
		SLDDW		*AR10, R43:R42
		SNOP		5
		SMVAGA36.M1		R43:R42, OR11
		SNOP		1
		SADDA.M1		R45:R44,OR11,OR11
		SNOP		1
		SMVAAGL.M1		OR11, R47:R46
		SNOP		1
		SMVAAGH.M1		OR11, R47:R46
		SNOP		1
		SMOVIL		-128, R42
		SMOVIL		-1, R43
		SMOVIL		-72, R48
		SMOVIL		-1, R49
		SADDA.M1		R49:R48,AR14,OR11
		SNOP		1
		SADDA.M1		R43:R42,OR11,OR11
		SNOP		1
		SMVAAGL.M1		OR11, R45:R44
		SNOP		1
		SMVAAGH.M1		OR11, R45:R44
		SNOP		1
		SMVAGA36.M1		R47:R46, AR10
		SNOP		1
		SLDDW		*AR10, R43:R42
		SNOP		5
		SMVAGA36.M1		R45:R44, AR10
		SNOP		1
		SSTDW		R43:R42, *AR10
	.loc 1 308 0 discriminator 2
		SMOVIL		-76, R42
		SMOVIL		-1, R43
		SMOVIL		-72, R44
		SMOVIL		-1, R45
		SADDA.M1		R45:R44,AR14,OR11
		SNOP		1
		SADDA.M1		R43:R42,OR11,OR11
		SNOP		1
		SMVAAGL.M1		OR11, R43:R42
		SNOP		1
		SMVAAGH.M1		OR11, R43:R42
		SNOP		1
		SMVAGA36.M1		R43:R42, AR10
		SNOP		1
		SLDW		*AR10, R46
		SNOP		5
		SMOVIL		-616, R44
		SMOVIL		-1, R45
		SADDA.M1		R45:R44,AR14,AR10
		SNOP		1
		SSTW		R46, *AR10
		SMVAGA36.M1		R43:R42, AR10
		SNOP		1
		SLDW		*AR10, R42
		SNOP		5
		SSHFAR		31, R42, R42
		SMOVIL		-612, R44
		SMOVIL		-1, R45
		SADDA.M1		R45:R44,AR14,AR10
		SNOP		1
		SSTW		R42, *AR10
		SMOVIL		-68, R42
		SMOVIL		-1, R43
		SMOVIL		-72, R44
		SMOVIL		-1, R45
		SADDA.M1		R45:R44,AR14,OR11
		SNOP		1
		SADDA.M1		R43:R42,OR11,OR11
		SNOP		1
		SMVAAGL.M1		OR11, R43:R42
		SNOP		1
		SMVAAGH.M1		OR11, R43:R42
		SNOP		1
		SMVAGA36.M1		R43:R42, AR10
		SNOP		1
		SLDW		*AR10, R46
		SNOP		5
		SMOVIL		-624, R44
		SMOVIL		-1, R45
		SADDA.M1		R45:R44,AR14,AR10
		SNOP		1
		SSTW		R46, *AR10
		SMVAGA36.M1		R43:R42, AR10
		SNOP		1
		SLDW		*AR10, R42
		SNOP		5
		SSHFAR		31, R42, R42
		SMOVIL		-620, R44
		SMOVIL		-1, R45
		SADDA.M1		R45:R44,AR14,AR10
		SNOP		1
		SSTW		R42, *AR10
		SMOVIL		-78, R44
		SMOVIL		-1, R45
		SADDA.M1		R45:R44,AR14,AR10
		SNOP		1
		SLDH		*AR10, R42
		SNOP		5
		SSHFLL		16, R42, R42
		SSHFLR		16, R42, R42
		SMOVIL		-632, R44
		SMOVIL		-1, R45
		SADDA.M1		R45:R44,AR14,AR10
		SNOP		1
		SSTW		R42, *AR10
		SMOVIL		0, R44
		SMOVIL		-628, R42
		SMOVIL		-1, R43
		SADDA.M1		R43:R42,AR14,AR10
		SNOP		1
		SSTW		R44, *AR10
		SMOVIL		-620, R44
		SMOVIL		-1, R45
		SADDA.M1		R45:R44,AR14,AR10
		SNOP		1
		SLDW		*AR10, R42
		SNOP		5
		SMOVIL		-632, R44
		SMOVIL		-1, R45
		SADDA.M1		R45:R44,AR14,AR10
		SNOP		1
		SLDW		*AR10, R44
		SNOP		5
		SMULIS.M1		R44,R42,R43
		SNOP		2
		SMOVIL		-628, R44
		SMOVIL		-1, R45
		SADDA.M1		R45:R44,AR14,AR10
		SNOP		1
		SLDW		*AR10, R46
		SNOP		5
		SMOVIL		-624, R44
		SMOVIL		-1, R45
		SADDA.M1		R45:R44,AR14,AR10
		SNOP		1
		SLDW		*AR10, R44
		SNOP		5
		SMULIS.M1		R44,R46,R42
		SNOP		2
		SADD.M1		R42,R43,R44
		SMOVIL		-624, R46
		SMOVIL		-1, R47
		SADDA.M1		R47:R46,AR14,AR10
		SNOP		1
		SLDW		*AR10, R45
		SNOP		5
		SMOVIL		-632, R46
		SMOVIL		-1, R47
		SADDA.M1		R47:R46,AR14,AR10
		SNOP		1
		SLDW		*AR10, R46
		SNOP		5
		SMULU.M1		R46,R45,R43:R42
		SNOP		3
		SADD.M1		R43,R44,R44
		SMOV.M1		R44, R43
		SMOVIL		-616, R46
		SMOVIL		-1, R47
		SADDA.M1		R47:R46,AR14,AR10
		SNOP		1
		SLDW		*AR10, R46
		SNOP		5
		SADD.M1		R42,R46,R44
		SMOVIL		-616, R48
		SMOVIL		-1, R49
		SADDA.M1		R49:R48,AR14,AR10
		SNOP		1
		SLDW		*AR10, R47
		SNOP		5
		SLTU		R44, R47, R46
		SMOVIL		-612, R48
		SMOVIL		-1, R49
		SADDA.M1		R49:R48,AR14,AR10
		SNOP		1
		SLDW		*AR10, R47
		SNOP		5
		SADD.M1		R43,R47,R45
		SADD.M1		R45,R46,R42
		SMOV.M1		R42, R45
		SMOV.M1		R44, R42
		SMOV.M1		R45, R43
		SSHFLR		28, R42, R44
		SSHFLL		4, R43, R45
		SMOVIL		-636, R46
		SMOVIL		-1, R47
		SADDA.M1		R47:R46,AR14,AR10
		SNOP		1
		SSTW		R45, *AR10
		SMOVIL		-636, R46
		SMOVIL		-1, R47
		SADDA.M1		R47:R46,AR14,AR10
		SNOP		1
		SLDW		*AR10, R45
		SNOP		5
		SOR		R45, R44, R45
		SMOVIL		-636, R46
		SMOVIL		-1, R47
		SADDA.M1		R47:R46,AR14,AR10
		SNOP		1
		SSTW		R45, *AR10
		SSHFLL		4, R42, R46
		SMOVIL		-640, R44
		SMOVIL		-1, R45
		SADDA.M1		R45:R44,AR14,AR10
		SNOP		1
		SSTW		R46, *AR10
		SMOVIL		8, R42
		SMOVIL		0, R43
		SMOVIL		-640, R46
		SMOVIL		-1, R47
		SADDA.M1		R47:R46,AR14,AR10
		SNOP		1
		SLDW		*AR10, R46
		SNOP		5
		SADD.M1		R42,R46,R44
		SMOVIL		-640, R48
		SMOVIL		-1, R49
		SADDA.M1		R49:R48,AR14,AR10
		SNOP		1
		SLDW		*AR10, R47
		SNOP		5
		SLTU		R44, R47, R46
		SMOVIL		-636, R48
		SMOVIL		-1, R49
		SADDA.M1		R49:R48,AR14,AR10
		SNOP		1
		SLDW		*AR10, R47
		SNOP		5
		SADD.M1		R43,R47,R45
		SADD.M1		R45,R46,R42
		SMOV.M1		R42, R45
		SMOVIL		-184, R42
		SMOVIL		-1, R43
		SMOVIL		-72, R48
		SMOVIL		-1, R49
		SADDA.M1		R49:R48,AR14,OR11
		SNOP		1
		SADDA.M1		R43:R42,OR11,OR11
		SNOP		1
		SMVAAGL.M1		OR11, R43:R42
		SNOP		1
		SMVAAGH.M1		OR11, R43:R42
		SNOP		1
	;no-op trunc di R45:R44 to pdi R45:R44
		SMVAGA36.M1		R43:R42, AR10
		SNOP		1
		SLDDW		*AR10, R43:R42
		SNOP		5
		SMVAGA36.M1		R43:R42, OR11
		SNOP		1
		SADDA.M1		R45:R44,OR11,OR11
		SNOP		1
		SMVAAGL.M1		OR11, R47:R46
		SNOP		1
		SMVAAGH.M1		OR11, R47:R46
		SNOP		1
		SMOVIL		-136, R42
		SMOVIL		-1, R43
		SMOVIL		-72, R48
		SMOVIL		-1, R49
		SADDA.M1		R49:R48,AR14,OR11
		SNOP		1
		SADDA.M1		R43:R42,OR11,OR11
		SNOP		1
		SMVAAGL.M1		OR11, R45:R44
		SNOP		1
		SMVAAGH.M1		OR11, R45:R44
		SNOP		1
		SMVAGA36.M1		R47:R46, AR10
		SNOP		1
		SLDDW		*AR10, R43:R42
		SNOP		5
		SMVAGA36.M1		R45:R44, AR10
		SNOP		1
		SSTDW		R43:R42, *AR10
	.loc 1 309 0 discriminator 2
		SMOVIL		-76, R42
		SMOVIL		-1, R43
		SMOVIL		-72, R44
		SMOVIL		-1, R45
		SADDA.M1		R45:R44,AR14,OR11
		SNOP		1
		SADDA.M1		R43:R42,OR11,OR11
		SNOP		1
		SMVAAGL.M1		OR11, R43:R42
		SNOP		1
		SMVAAGH.M1		OR11, R43:R42
		SNOP		1
		SMVAGA36.M1		R43:R42, AR10
		SNOP		1
		SLDW		*AR10, R46
		SNOP		5
		SMOVIL		-648, R44
		SMOVIL		-1, R45
		SADDA.M1		R45:R44,AR14,AR10
		SNOP		1
		SSTW		R46, *AR10
		SMVAGA36.M1		R43:R42, AR10
		SNOP		1
		SLDW		*AR10, R42
		SNOP		5
		SSHFAR		31, R42, R42
		SMOVIL		-644, R44
		SMOVIL		-1, R45
		SADDA.M1		R45:R44,AR14,AR10
		SNOP		1
		SSTW		R42, *AR10
		SMOVIL		-72, R42
		SMOVIL		-1, R43
		SMOVIL		-72, R44
		SMOVIL		-1, R45
		SADDA.M1		R45:R44,AR14,OR11
		SNOP		1
		SADDA.M1		R43:R42,OR11,OR11
		SNOP		1
		SMVAAGL.M1		OR11, R43:R42
		SNOP		1
		SMVAAGH.M1		OR11, R43:R42
		SNOP		1
		SMVAGA36.M1		R43:R42, AR10
		SNOP		1
		SLDW		*AR10, R46
		SNOP		5
		SMOVIL		-656, R44
		SMOVIL		-1, R45
		SADDA.M1		R45:R44,AR14,AR10
		SNOP		1
		SSTW		R46, *AR10
		SMVAGA36.M1		R43:R42, AR10
		SNOP		1
		SLDW		*AR10, R42
		SNOP		5
		SSHFAR		31, R42, R42
		SMOVIL		-652, R44
		SMOVIL		-1, R45
		SADDA.M1		R45:R44,AR14,AR10
		SNOP		1
		SSTW		R42, *AR10
		SMOVIL		-78, R44
		SMOVIL		-1, R45
		SADDA.M1		R45:R44,AR14,AR10
		SNOP		1
		SLDH		*AR10, R42
		SNOP		5
		SSHFLL		16, R42, R42
		SSHFLR		16, R42, R42
		SMOVIL		-664, R44
		SMOVIL		-1, R45
		SADDA.M1		R45:R44,AR14,AR10
		SNOP		1
		SSTW		R42, *AR10
		SMOVIL		0, R44
		SMOVIL		-660, R42
		SMOVIL		-1, R43
		SADDA.M1		R43:R42,AR14,AR10
		SNOP		1
		SSTW		R44, *AR10
		SMOVIL		-652, R44
		SMOVIL		-1, R45
		SADDA.M1		R45:R44,AR14,AR10
		SNOP		1
		SLDW		*AR10, R42
		SNOP		5
		SMOVIL		-664, R44
		SMOVIL		-1, R45
		SADDA.M1		R45:R44,AR14,AR10
		SNOP		1
		SLDW		*AR10, R44
		SNOP		5
		SMULIS.M1		R44,R42,R43
		SNOP		2
		SMOVIL		-660, R44
		SMOVIL		-1, R45
		SADDA.M1		R45:R44,AR14,AR10
		SNOP		1
		SLDW		*AR10, R46
		SNOP		5
		SMOVIL		-656, R44
		SMOVIL		-1, R45
		SADDA.M1		R45:R44,AR14,AR10
		SNOP		1
		SLDW		*AR10, R44
		SNOP		5
		SMULIS.M1		R44,R46,R42
		SNOP		2
		SADD.M1		R42,R43,R44
		SMOVIL		-656, R46
		SMOVIL		-1, R47
		SADDA.M1		R47:R46,AR14,AR10
		SNOP		1
		SLDW		*AR10, R45
		SNOP		5
		SMOVIL		-664, R46
		SMOVIL		-1, R47
		SADDA.M1		R47:R46,AR14,AR10
		SNOP		1
		SLDW		*AR10, R46
		SNOP		5
		SMULU.M1		R46,R45,R43:R42
		SNOP		3
		SADD.M1		R43,R44,R44
		SMOV.M1		R44, R43
		SMOVIL		-648, R46
		SMOVIL		-1, R47
		SADDA.M1		R47:R46,AR14,AR10
		SNOP		1
		SLDW		*AR10, R46
		SNOP		5
		SADD.M1		R42,R46,R44
		SMOVIL		-648, R48
		SMOVIL		-1, R49
		SADDA.M1		R49:R48,AR14,AR10
		SNOP		1
		SLDW		*AR10, R47
		SNOP		5
		SLTU		R44, R47, R46
		SMOVIL		-644, R48
		SMOVIL		-1, R49
		SADDA.M1		R49:R48,AR14,AR10
		SNOP		1
		SLDW		*AR10, R47
		SNOP		5
		SADD.M1		R43,R47,R45
		SADD.M1		R45,R46,R42
		SMOV.M1		R42, R45
		SMOV.M1		R44, R42
		SMOV.M1		R45, R43
		SSHFLR		28, R42, R44
		SSHFLL		4, R43, R45
		SMOVIL		-668, R46
		SMOVIL		-1, R47
		SADDA.M1		R47:R46,AR14,AR10
		SNOP		1
		SSTW		R45, *AR10
		SMOVIL		-668, R46
		SMOVIL		-1, R47
		SADDA.M1		R47:R46,AR14,AR10
		SNOP		1
		SLDW		*AR10, R45
		SNOP		5
		SOR		R45, R44, R45
		SMOVIL		-668, R46
		SMOVIL		-1, R47
		SADDA.M1		R47:R46,AR14,AR10
		SNOP		1
		SSTW		R45, *AR10
		SSHFLL		4, R42, R46
		SMOVIL		-672, R44
		SMOVIL		-1, R45
		SADDA.M1		R45:R44,AR14,AR10
		SNOP		1
		SSTW		R46, *AR10
		SMOVIL		-184, R42
		SMOVIL		-1, R43
		SMOVIL		-72, R48
		SMOVIL		-1, R49
		SADDA.M1		R49:R48,AR14,OR11
		SNOP		1
		SADDA.M1		R43:R42,OR11,OR11
		SNOP		1
		SMVAAGL.M1		OR11, R43:R42
		SNOP		1
		SMVAAGH.M1		OR11, R43:R42
		SNOP		1
		SMOVIL		-672, R46
		SMOVIL		-1, R47
		SADDA.M1		R47:R46,AR14,AR10
		SNOP		1
		SLDDW		*AR10, R45:R44
		SNOP		5
	;no-op trunc di R45:R44 to pdi R45:R44
		SMVAGA36.M1		R43:R42, AR10
		SNOP		1
		SLDDW		*AR10, R43:R42
		SNOP		5
		SMVAGA36.M1		R43:R42, OR11
		SNOP		1
		SADDA.M1		R45:R44,OR11,OR11
		SNOP		1
		SMVAAGL.M1		OR11, R47:R46
		SNOP		1
		SMVAAGH.M1		OR11, R47:R46
		SNOP		1
		SMOVIL		-144, R42
		SMOVIL		-1, R43
		SMOVIL		-72, R48
		SMOVIL		-1, R49
		SADDA.M1		R49:R48,AR14,OR11
		SNOP		1
		SADDA.M1		R43:R42,OR11,OR11
		SNOP		1
		SMVAAGL.M1		OR11, R45:R44
		SNOP		1
		SMVAAGH.M1		OR11, R45:R44
		SNOP		1
		SMVAGA36.M1		R47:R46, AR10
		SNOP		1
		SLDDW		*AR10, R43:R42
		SNOP		5
		SMVAGA36.M1		R45:R44, AR10
		SNOP		1
		SSTDW		R43:R42, *AR10
	.loc 1 310 0 discriminator 2
		SMOVIL		-76, R42
		SMOVIL		-1, R43
		SMOVIL		-72, R44
		SMOVIL		-1, R45
		SADDA.M1		R45:R44,AR14,OR11
		SNOP		1
		SADDA.M1		R43:R42,OR11,OR11
		SNOP		1
		SMVAAGL.M1		OR11, R43:R42
		SNOP		1
		SMVAAGH.M1		OR11, R43:R42
		SNOP		1
		SMVAGA36.M1		R43:R42, AR10
		SNOP		1
		SLDW		*AR10, R46
		SNOP		5
		SMOVIL		-680, R44
		SMOVIL		-1, R45
		SADDA.M1		R45:R44,AR14,AR10
		SNOP		1
		SSTW		R46, *AR10
		SMVAGA36.M1		R43:R42, AR10
		SNOP		1
		SLDW		*AR10, R42
		SNOP		5
		SSHFAR		31, R42, R42
		SMOVIL		-676, R44
		SMOVIL		-1, R45
		SADDA.M1		R45:R44,AR14,AR10
		SNOP		1
		SSTW		R42, *AR10
		SMOVIL		-72, R42
		SMOVIL		-1, R43
		SMOVIL		-72, R44
		SMOVIL		-1, R45
		SADDA.M1		R45:R44,AR14,OR11
		SNOP		1
		SADDA.M1		R43:R42,OR11,OR11
		SNOP		1
		SMVAAGL.M1		OR11, R43:R42
		SNOP		1
		SMVAAGH.M1		OR11, R43:R42
		SNOP		1
		SMVAGA36.M1		R43:R42, AR10
		SNOP		1
		SLDW		*AR10, R46
		SNOP		5
		SMOVIL		-688, R44
		SMOVIL		-1, R45
		SADDA.M1		R45:R44,AR14,AR10
		SNOP		1
		SSTW		R46, *AR10
		SMVAGA36.M1		R43:R42, AR10
		SNOP		1
		SLDW		*AR10, R42
		SNOP		5
		SSHFAR		31, R42, R42
		SMOVIL		-684, R44
		SMOVIL		-1, R45
		SADDA.M1		R45:R44,AR14,AR10
		SNOP		1
		SSTW		R42, *AR10
		SMOVIL		-78, R44
		SMOVIL		-1, R45
		SADDA.M1		R45:R44,AR14,AR10
		SNOP		1
		SLDH		*AR10, R42
		SNOP		5
		SSHFLL		16, R42, R42
		SSHFLR		16, R42, R42
		SMOVIL		-696, R44
		SMOVIL		-1, R45
		SADDA.M1		R45:R44,AR14,AR10
		SNOP		1
		SSTW		R42, *AR10
		SMOVIL		0, R44
		SMOVIL		-692, R42
		SMOVIL		-1, R43
		SADDA.M1		R43:R42,AR14,AR10
		SNOP		1
		SSTW		R44, *AR10
		SMOVIL		-684, R44
		SMOVIL		-1, R45
		SADDA.M1		R45:R44,AR14,AR10
		SNOP		1
		SLDW		*AR10, R42
		SNOP		5
		SMOVIL		-696, R44
		SMOVIL		-1, R45
		SADDA.M1		R45:R44,AR14,AR10
		SNOP		1
		SLDW		*AR10, R44
		SNOP		5
		SMULIS.M1		R44,R42,R43
		SNOP		2
		SMOVIL		-692, R44
		SMOVIL		-1, R45
		SADDA.M1		R45:R44,AR14,AR10
		SNOP		1
		SLDW		*AR10, R46
		SNOP		5
		SMOVIL		-688, R44
		SMOVIL		-1, R45
		SADDA.M1		R45:R44,AR14,AR10
		SNOP		1
		SLDW		*AR10, R44
		SNOP		5
		SMULIS.M1		R44,R46,R42
		SNOP		2
		SADD.M1		R42,R43,R44
		SMOVIL		-688, R46
		SMOVIL		-1, R47
		SADDA.M1		R47:R46,AR14,AR10
		SNOP		1
		SLDW		*AR10, R45
		SNOP		5
		SMOVIL		-696, R46
		SMOVIL		-1, R47
		SADDA.M1		R47:R46,AR14,AR10
		SNOP		1
		SLDW		*AR10, R46
		SNOP		5
		SMULU.M1		R46,R45,R43:R42
		SNOP		3
		SADD.M1		R43,R44,R44
		SMOV.M1		R44, R43
		SMOVIL		-680, R46
		SMOVIL		-1, R47
		SADDA.M1		R47:R46,AR14,AR10
		SNOP		1
		SLDW		*AR10, R46
		SNOP		5
		SADD.M1		R42,R46,R44
		SMOVIL		-680, R48
		SMOVIL		-1, R49
		SADDA.M1		R49:R48,AR14,AR10
		SNOP		1
		SLDW		*AR10, R47
		SNOP		5
		SLTU		R44, R47, R46
		SMOVIL		-676, R48
		SMOVIL		-1, R49
		SADDA.M1		R49:R48,AR14,AR10
		SNOP		1
		SLDW		*AR10, R47
		SNOP		5
		SADD.M1		R43,R47,R45
		SADD.M1		R45,R46,R42
		SMOV.M1		R42, R45
		SMOV.M1		R44, R42
		SMOV.M1		R45, R43
		SSHFLR		28, R42, R44
		SSHFLL		4, R43, R45
		SMOVIL		-700, R46
		SMOVIL		-1, R47
		SADDA.M1		R47:R46,AR14,AR10
		SNOP		1
		SSTW		R45, *AR10
		SMOVIL		-700, R46
		SMOVIL		-1, R47
		SADDA.M1		R47:R46,AR14,AR10
		SNOP		1
		SLDW		*AR10, R45
		SNOP		5
		SOR		R45, R44, R45
		SMOVIL		-700, R46
		SMOVIL		-1, R47
		SADDA.M1		R47:R46,AR14,AR10
		SNOP		1
		SSTW		R45, *AR10
		SSHFLL		4, R42, R46
		SMOVIL		-704, R44
		SMOVIL		-1, R45
		SADDA.M1		R45:R44,AR14,AR10
		SNOP		1
		SSTW		R46, *AR10
		SMOVIL		8, R42
		SMOVIL		0, R43
		SMOVIL		-704, R46
		SMOVIL		-1, R47
		SADDA.M1		R47:R46,AR14,AR10
		SNOP		1
		SLDW		*AR10, R46
		SNOP		5
		SADD.M1		R42,R46,R44
		SMOVIL		-704, R48
		SMOVIL		-1, R49
		SADDA.M1		R49:R48,AR14,AR10
		SNOP		1
		SLDW		*AR10, R47
		SNOP		5
		SLTU		R44, R47, R46
		SMOVIL		-700, R48
		SMOVIL		-1, R49
		SADDA.M1		R49:R48,AR14,AR10
		SNOP		1
		SLDW		*AR10, R47
		SNOP		5
		SADD.M1		R43,R47,R45
		SADD.M1		R45,R46,R42
		SMOV.M1		R42, R45
		SMOVIL		-184, R42
		SMOVIL		-1, R43
		SMOVIL		-72, R48
		SMOVIL		-1, R49
		SADDA.M1		R49:R48,AR14,OR11
		SNOP		1
		SADDA.M1		R43:R42,OR11,OR11
		SNOP		1
		SMVAAGL.M1		OR11, R43:R42
		SNOP		1
		SMVAAGH.M1		OR11, R43:R42
		SNOP		1
	;no-op trunc di R45:R44 to pdi R45:R44
		SMVAGA36.M1		R43:R42, AR10
		SNOP		1
		SLDDW		*AR10, R43:R42
		SNOP		5
		SMVAGA36.M1		R43:R42, OR11
		SNOP		1
		SADDA.M1		R45:R44,OR11,OR11
		SNOP		1
		SMVAAGL.M1		OR11, R43:R42
		SNOP		1
		SMVAAGH.M1		OR11, R43:R42
		SNOP		1
		SMVAGA36.M1		R43:R42, AR10
		SNOP		1
		SLDDW		*AR10, R47:R46
		SNOP		5
		SMOVIL		-152, R42
		SMOVIL		-1, R43
		SMOVIL		-72, R44
		SMOVIL		-1, R45
		SADDA.M1		R45:R44,AR14,OR11
		SNOP		1
		SADDA.M1		R43:R42,OR11,OR11
		SNOP		1
		SMVAAGL.M1		OR11, R43:R42
		SNOP		1
		SMVAAGH.M1		OR11, R43:R42
		SNOP		1
		SMVAGA36.M1		R43:R42, AR10
		SNOP		1
		SSTW		R46, *AR10
		SMOVIL		-2147483648, R44
		SMOVIH		-2147483648, R44
		SXOR		R44, R47, R44
		SMOV.M1		R44, R45
		SMVAGA36.M1		R43:R42, AR10
		SNOP		1
		SSTW		R45, *+AR10[1]
	.loc 1 311 0 discriminator 2
		SMOVIL		-128, R42
		SMOVIL		-1, R43
		SMOVIL		-72, R46
		SMOVIL		-1, R47
		SADDA.M1		R47:R46,AR14,OR11
		SNOP		1
		SADDA.M1		R43:R42,OR11,OR11
		SNOP		1
		SMVAAGL.M1		OR11, R45:R44
		SNOP		1
		SMVAAGH.M1		OR11, R45:R44
		SNOP		1
		SMOVIL		-144, R42
		SMOVIL		-1, R43
		SMOVIL		-72, R46
		SMOVIL		-1, R47
		SADDA.M1		R47:R46,AR14,OR11
		SNOP		1
		SADDA.M1		R43:R42,OR11,OR11
		SNOP		1
		SMVAAGL.M1		OR11, R43:R42
		SNOP		1
		SMVAAGH.M1		OR11, R43:R42
		SNOP		1
		SMVAGA36.M1		R45:R44, AR10
		SNOP		1
		SLDDW		*AR10, R45:R44
		SNOP		5
		SMVAGA36.M1		R43:R42, AR10
		SNOP		1
		SLDDW		*AR10, R43:R42
		SNOP		5
		SFMULD.M1		R45:R44, R43:R42, R47:R46
		SNOP		5
		SMOVIL		-136, R42
		SMOVIL		-1, R43
		SMOVIL		-72, R48
		SMOVIL		-1, R49
		SADDA.M1		R49:R48,AR14,OR11
		SNOP		1
		SADDA.M1		R43:R42,OR11,OR11
		SNOP		1
		SMVAAGL.M1		OR11, R45:R44
		SNOP		1
		SMVAAGH.M1		OR11, R45:R44
		SNOP		1
		SMOVIL		-152, R42
		SMOVIL		-1, R43
		SMOVIL		-72, R48
		SMOVIL		-1, R49
		SADDA.M1		R49:R48,AR14,OR11
		SNOP		1
		SADDA.M1		R43:R42,OR11,OR11
		SNOP		1
		SMVAAGL.M1		OR11, R43:R42
		SNOP		1
		SMVAAGH.M1		OR11, R43:R42
		SNOP		1
		SMVAGA36.M1		R45:R44, AR10
		SNOP		1
		SLDDW		*AR10, R45:R44
		SNOP		5
		SMVAGA36.M1		R43:R42, AR10
		SNOP		1
		SLDDW		*AR10, R43:R42
		SNOP		5
		SFMULD.M1		R45:R44, R43:R42, R43:R42
		SNOP		5
		SFSUBD.M1	R43:R42, R47:R46, R45:R44
		SNOP		4
		SLDDW		*-AR14[11], R43:R42
		SNOP		5
		SFADDD.M1		R43:R42, R45:R44, R43:R42
		SNOP		4
		SSTDW		R43:R42, *-AR14[11]
	.loc 1 312 0 discriminator 2
		SMOVIL		-128, R42
		SMOVIL		-1, R43
		SMOVIL		-72, R46
		SMOVIL		-1, R47
		SADDA.M1		R47:R46,AR14,OR11
		SNOP		1
		SADDA.M1		R43:R42,OR11,OR11
		SNOP		1
		SMVAAGL.M1		OR11, R45:R44
		SNOP		1
		SMVAAGH.M1		OR11, R45:R44
		SNOP		1
		SMOVIL		-152, R42
		SMOVIL		-1, R43
		SMOVIL		-72, R46
		SMOVIL		-1, R47
		SADDA.M1		R47:R46,AR14,OR11
		SNOP		1
		SADDA.M1		R43:R42,OR11,OR11
		SNOP		1
		SMVAAGL.M1		OR11, R43:R42
		SNOP		1
		SMVAAGH.M1		OR11, R43:R42
		SNOP		1
		SMVAGA36.M1		R45:R44, AR10
		SNOP		1
		SLDDW		*AR10, R45:R44
		SNOP		5
		SMVAGA36.M1		R43:R42, AR10
		SNOP		1
		SLDDW		*AR10, R43:R42
		SNOP		5
		SFMULD.M1		R45:R44, R43:R42, R47:R46
		SNOP		5
		SMOVIL		-136, R42
		SMOVIL		-1, R43
		SMOVIL		-72, R48
		SMOVIL		-1, R49
		SADDA.M1		R49:R48,AR14,OR11
		SNOP		1
		SADDA.M1		R43:R42,OR11,OR11
		SNOP		1
		SMVAAGL.M1		OR11, R45:R44
		SNOP		1
		SMVAAGH.M1		OR11, R45:R44
		SNOP		1
		SMOVIL		-144, R42
		SMOVIL		-1, R43
		SMOVIL		-72, R48
		SMOVIL		-1, R49
		SADDA.M1		R49:R48,AR14,OR11
		SNOP		1
		SADDA.M1		R43:R42,OR11,OR11
		SNOP		1
		SMVAAGL.M1		OR11, R43:R42
		SNOP		1
		SMVAAGH.M1		OR11, R43:R42
		SNOP		1
		SMVAGA36.M1		R45:R44, AR10
		SNOP		1
		SLDDW		*AR10, R45:R44
		SNOP		5
		SMVAGA36.M1		R43:R42, AR10
		SNOP		1
		SLDDW		*AR10, R43:R42
		SNOP		5
		SFMULD.M1		R45:R44, R43:R42, R43:R42
		SNOP		5
		SFADDD.M1		R47:R46, R43:R42, R45:R44
		SNOP		4
		SLDDW		*-AR14[12], R43:R42
		SNOP		5
		SFADDD.M1		R43:R42, R45:R44, R43:R42
		SNOP		4
		SSTDW		R43:R42, *-AR14[12]
	.loc 1 305 0 discriminator 2
		SMOVIL		-76, R42
		SMOVIL		-1, R43
		SMOVIL		-72, R46
		SMOVIL		-1, R47
		SADDA.M1		R47:R46,AR14,OR11
		SNOP		1
		SADDA.M1		R43:R42,OR11,OR11
		SNOP		1
		SMVAAGL.M1		OR11, R45:R44
		SNOP		1
		SMVAAGH.M1		OR11, R45:R44
		SNOP		1
		SMOVIL		-76, R42
		SMOVIL		-1, R43
		SMOVIL		-72, R46
		SMOVIL		-1, R47
		SADDA.M1		R47:R46,AR14,OR11
		SNOP		1
		SADDA.M1		R43:R42,OR11,OR11
		SNOP		1
		SMVAAGL.M1		OR11, R43:R42
		SNOP		1
		SMVAAGH.M1		OR11, R43:R42
		SNOP		1
		SMVAGA36.M1		R43:R42, AR10
		SNOP		1
		SLDW		*AR10, R42
		SNOP		5
		SADD.M1		1,R42,R42
		SMVAGA36.M1		R45:R44, AR10
		SNOP		1
		SSTW		R42, *AR10
.L89:
	.loc 1 305 0 is_stmt 0 discriminator 1
		SMOVIL		-78, R44
		SMOVIL		-1, R45
		SADDA.M1		R45:R44,AR14,AR10
		SNOP		1
		SLDH		*AR10, R42
		SNOP		5
		SSHFLL		16, R42, R44
		SSHFLR		16, R44, R44
		SMOVIL		-76, R42
		SMOVIL		-1, R43
		SMOVIL		-72, R46
		SMOVIL		-1, R47
		SADDA.M1		R47:R46,AR14,OR11
		SNOP		1
		SADDA.M1		R43:R42,OR11,OR11
		SNOP		1
		SMVAAGL.M1		OR11, R43:R42
		SNOP		1
		SMVAAGH.M1		OR11, R43:R42
		SNOP		1
		SMVAGA36.M1		R43:R42, AR10
		SNOP		1
		SLDW		*AR10, R42
		SNOP		5
		SLT		R42, R44, R42
		SMOV.M1		R42, R0
	[R0]	SBR		.L90
		SNOP		6
	.loc 1 314 0 is_stmt 1
		SMOVIL		-68, R42
		SMOVIL		-1, R43
		SMOVIL		-72, R46
		SMOVIL		-1, R47
		SADDA.M1		R47:R46,AR14,OR11
		SNOP		1
		SADDA.M1		R43:R42,OR11,OR11
		SNOP		1
		SMVAAGL.M1		OR11, R45:R44
		SNOP		1
		SMVAAGH.M1		OR11, R45:R44
		SNOP		1
		SMOVIL		-72, R42
		SMOVIL		-1, R43
		SMOVIL		-72, R46
		SMOVIL		-1, R47
		SADDA.M1		R47:R46,AR14,OR11
		SNOP		1
		SADDA.M1		R43:R42,OR11,OR11
		SNOP		1
		SMVAAGL.M1		OR11, R43:R42
		SNOP		1
		SMVAAGH.M1		OR11, R43:R42
		SNOP		1
		SMVAGA36.M1		R45:R44, AR10
		SNOP		1
		SLDW		*AR10, R44
		SNOP		5
		SMVAGA36.M1		R43:R42, AR10
		SNOP		1
		SLDW		*AR10, R42
		SNOP		5
		SEQ		R42, R44, R42
		SMOV.M1		R42, R0
	[!R0]	SBR		.L91
		SNOP		6
	.loc 1 316 0
		SLDDW		*-AR14[11], R45:R44
		SNOP		5
		SMOVIL		0, R42
		SMOVIL		1072693248, R43
		SMOVIH		1072693248, R43
		SFSUBD.M1	R43:R42, R45:R44, R43:R42
		SNOP		4
		SFABSD.M1		R43:R42, R43:R42
		SNOP		1
		SSTDW		R43:R42, *-AR14[13]
		SBR		.L92
		SNOP		6
.L91:
	.loc 1 320 0
		SLDDW		*-AR14[11], R43:R42
		SNOP		5
		SFABSD.M1		R43:R42, R43:R42
		SNOP		1
		SSTDW		R43:R42, *-AR14[13]
.L92:
	.loc 1 322 0
		SMOVIL		-160, R42
		SMOVIL		-1, R43
		SMOVIL		-72, R46
		SMOVIL		-1, R47
		SADDA.M1		R47:R46,AR14,OR11
		SNOP		1
		SADDA.M1		R43:R42,OR11,OR11
		SNOP		1
		SMVAAGL.M1		OR11, R45:R44
		SNOP		1
		SMVAAGH.M1		OR11, R45:R44
		SNOP		1
		SLDDW		*-AR14[12], R43:R42
		SNOP		5
		SFABSD.M1		R43:R42, R43:R42
		SNOP		1
		SMVAGA36.M1		R45:R44, AR10
		SNOP		1
		SSTDW		R43:R42, *AR10
	.loc 1 323 0
		SLDDW		*-AR14[13], R45:R44
		SNOP		5
		SMOVIL		-136, R46
		SMOVIL		-1, R47
		SADDA.M1		R47:R46,AR14,AR10
		SNOP		1
		SLDDW		*AR10, R43:R42
		SNOP		5
		SFCMPGD.M1		R45:R44, R43:R42, R42
		SNOP		1
		SMOV.M1		R42, R0
	[!R0]	SBR		.L93
		SNOP		6
.L148:
	.loc 1 324 0
		SLDDW		*-AR14[13], R43:R42
		SNOP		5
		SMOVIL		-136, R44
		SMOVIL		-1, R45
		SADDA.M1		R45:R44,AR14,AR10
		SNOP		1
		SSTDW		R43:R42, *AR10
.L93:
	.loc 1 325 0
		SMOVIL		-160, R42
		SMOVIL		-1, R43
		SMOVIL		-72, R44
		SMOVIL		-1, R45
		SADDA.M1		R45:R44,AR14,OR11
		SNOP		1
		SADDA.M1		R43:R42,OR11,OR11
		SNOP		1
		SMVAAGL.M1		OR11, R43:R42
		SNOP		1
		SMVAAGH.M1		OR11, R43:R42
		SNOP		1
		SMVAGA36.M1		R43:R42, AR10
		SNOP		1
		SLDDW		*AR10, R45:R44
		SNOP		5
		SMOVIL		-136, R46
		SMOVIL		-1, R47
		SADDA.M1		R47:R46,AR14,AR10
		SNOP		1
		SLDDW		*AR10, R43:R42
		SNOP		5
		SFCMPGD.M1		R45:R44, R43:R42, R42
		SNOP		1
		SMOV.M1		R42, R0
	[!R0]	SBR		.L95
		SNOP		6
.L149:
	.loc 1 326 0
		SMOVIL		-160, R42
		SMOVIL		-1, R43
		SMOVIL		-72, R44
		SMOVIL		-1, R45
		SADDA.M1		R45:R44,AR14,OR11
		SNOP		1
		SADDA.M1		R43:R42,OR11,OR11
		SNOP		1
		SMVAAGL.M1		OR11, R43:R42
		SNOP		1
		SMVAAGH.M1		OR11, R43:R42
		SNOP		1
		SMVAGA36.M1		R43:R42, AR10
		SNOP		1
		SLDDW		*AR10, R43:R42
		SNOP		5
		SMOVIL		-136, R44
		SMOVIL		-1, R45
		SADDA.M1		R45:R44,AR14,AR10
		SNOP		1
		SSTDW		R43:R42, *AR10
.L95:
	.loc 1 327 0
		SLDDW		*-AR14[13], R45:R44
		SNOP		5
		SMOVIL		-184, R46
		SMOVIL		-1, R47
		SADDA.M1		R47:R46,AR14,AR10
		SNOP		1
		SLDDW		*AR10, R43:R42
		SNOP		5
		SFCMPGD.M1		R45:R44, R43:R42, R42
		SNOP		1
		SMOV.M1		R42, R0
	[R0]	SBR		.L97
		SNOP		6
	.loc 1 327 0 is_stmt 0 discriminator 1
		SMOVIL		-160, R42
		SMOVIL		-1, R43
		SMOVIL		-72, R44
		SMOVIL		-1, R45
		SADDA.M1		R45:R44,AR14,OR11
		SNOP		1
		SADDA.M1		R43:R42,OR11,OR11
		SNOP		1
		SMVAAGL.M1		OR11, R43:R42
		SNOP		1
		SMVAAGH.M1		OR11, R43:R42
		SNOP		1
		SMVAGA36.M1		R43:R42, AR10
		SNOP		1
		SLDDW		*AR10, R45:R44
		SNOP		5
		SMOVIL		-184, R46
		SMOVIL		-1, R47
		SADDA.M1		R47:R46,AR14,AR10
		SNOP		1
		SLDDW		*AR10, R43:R42
		SNOP		5
		SFCMPGD.M1		R45:R44, R43:R42, R42
		SNOP		1
		SMOV.M1		R42, R0
	[!R0]	SBR		.L98
		SNOP		6
.L97:
	.loc 1 329 0 is_stmt 1
		SMOVIL		0, R42
		SMOVIL		-76, R44
		SMOVIL		-1, R45
		SADDA.M1		R45:R44,AR14,AR10
		SNOP		1
		SSTH		R42, *AR10
	.loc 1 330 0
		SMOVIL.L		.LC13, R42
		SMOVIH.L		.LC13, R42
		SMOVIH4.L		.LC13, R43
		SSTDW		R43:R42, *+AR15[1]
		SLDDW		*-AR14[13], R43:R42
		SNOP		5
		SSTDW		R43:R42, *+AR15[2]
		SMOVIL		-160, R42
		SMOVIL		-1, R43
		SMOVIL		-72, R44
		SMOVIL		-1, R45
		SADDA.M1		R45:R44,AR14,OR11
		SNOP		1
		SADDA.M1		R43:R42,OR11,OR11
		SNOP		1
		SMVAAGL.M1		OR11, R43:R42
		SNOP		1
		SMVAAGH.M1		OR11, R43:R42
		SNOP		1
		SMVAGA36.M1		R43:R42, AR10
		SNOP		1
		SLDDW		*AR10, R43:R42
		SNOP		5
		SSTDW		R43:R42, *+AR15[3]
		SBR		printf
		SMOVIL		.L185, R62
		SMOVIH		.L185, R62
		SMOVIH4.L		.L185, R63
		SNOP		4
.L185:
.L98:
	.loc 1 301 0
		SMOVIL		-72, R42
		SMOVIL		-1, R43
		SMOVIL		-72, R46
		SMOVIL		-1, R47
		SADDA.M1		R47:R46,AR14,OR11
		SNOP		1
		SADDA.M1		R43:R42,OR11,OR11
		SNOP		1
		SMVAAGL.M1		OR11, R45:R44
		SNOP		1
		SMVAAGH.M1		OR11, R45:R44
		SNOP		1
		SMOVIL		-72, R42
		SMOVIL		-1, R43
		SMOVIL		-72, R46
		SMOVIL		-1, R47
		SADDA.M1		R47:R46,AR14,OR11
		SNOP		1
		SADDA.M1		R43:R42,OR11,OR11
		SNOP		1
		SMVAAGL.M1		OR11, R43:R42
		SNOP		1
		SMVAAGH.M1		OR11, R43:R42
		SNOP		1
		SMVAGA36.M1		R43:R42, AR10
		SNOP		1
		SLDW		*AR10, R42
		SNOP		5
		SADD.M1		1,R42,R42
		SMVAGA36.M1		R45:R44, AR10
		SNOP		1
		SSTW		R42, *AR10
.L88:
	.loc 1 301 0 is_stmt 0 discriminator 1
		SMOVIL		-78, R44
		SMOVIL		-1, R45
		SADDA.M1		R45:R44,AR14,AR10
		SNOP		1
		SLDH		*AR10, R42
		SNOP		5
		SSHFLL		16, R42, R44
		SSHFLR		16, R44, R44
		SMOVIL		-72, R42
		SMOVIL		-1, R43
		SMOVIL		-72, R46
		SMOVIL		-1, R47
		SADDA.M1		R47:R46,AR14,OR11
		SNOP		1
		SADDA.M1		R43:R42,OR11,OR11
		SNOP		1
		SMVAAGL.M1		OR11, R43:R42
		SNOP		1
		SMVAAGH.M1		OR11, R43:R42
		SNOP		1
		SMVAGA36.M1		R43:R42, AR10
		SNOP		1
		SLDW		*AR10, R42
		SNOP		5
		SLT		R42, R44, R42
		SMOV.M1		R42, R0
	[R0]	SBR		.L100
		SNOP		6
	.loc 1 299 0 is_stmt 1
		SMOVIL		-68, R42
		SMOVIL		-1, R43
		SMOVIL		-72, R46
		SMOVIL		-1, R47
		SADDA.M1		R47:R46,AR14,OR11
		SNOP		1
		SADDA.M1		R43:R42,OR11,OR11
		SNOP		1
		SMVAAGL.M1		OR11, R45:R44
		SNOP		1
		SMVAAGH.M1		OR11, R45:R44
		SNOP		1
		SMOVIL		-68, R42
		SMOVIL		-1, R43
		SMOVIL		-72, R46
		SMOVIL		-1, R47
		SADDA.M1		R47:R46,AR14,OR11
		SNOP		1
		SADDA.M1		R43:R42,OR11,OR11
		SNOP		1
		SMVAAGL.M1		OR11, R43:R42
		SNOP		1
		SMVAAGH.M1		OR11, R43:R42
		SNOP		1
		SMVAGA36.M1		R43:R42, AR10
		SNOP		1
		SLDW		*AR10, R42
		SNOP		5
		SADD.M1		1,R42,R42
		SMVAGA36.M1		R45:R44, AR10
		SNOP		1
		SSTW		R42, *AR10
.L87:
	.loc 1 299 0 is_stmt 0 discriminator 1
		SMOVIL		-78, R44
		SMOVIL		-1, R45
		SADDA.M1		R45:R44,AR14,AR10
		SNOP		1
		SLDH		*AR10, R42
		SNOP		5
		SSHFLL		16, R42, R44
		SSHFLR		16, R44, R44
		SMOVIL		-68, R42
		SMOVIL		-1, R43
		SMOVIL		-72, R46
		SMOVIL		-1, R47
		SADDA.M1		R47:R46,AR14,OR11
		SNOP		1
		SADDA.M1		R43:R42,OR11,OR11
		SNOP		1
		SMVAAGL.M1		OR11, R43:R42
		SNOP		1
		SMVAAGH.M1		OR11, R43:R42
		SNOP		1
		SMVAGA36.M1		R43:R42, AR10
		SNOP		1
		SLDW		*AR10, R42
		SNOP		5
		SLT		R42, R44, R42
		SMOV.M1		R42, R0
	[R0]	SBR		.L101
		SNOP		6
.L86:
	.loc 1 339 0 is_stmt 1
		SMOVIL		-80, R42
		SMOVIL		-1, R43
		SMOVIL		-72, R44
		SMOVIL		-1, R45
		SADDA.M1		R45:R44,AR14,OR11
		SNOP		1
		SADDA.M1		R43:R42,OR11,OR11
		SNOP		1
		SMVAAGL.M1		OR11, R43:R42
		SNOP		1
		SMVAAGH.M1		OR11, R43:R42
		SNOP		1
		SMOVIL		1, R44
		SMVAGA36.M1		R43:R42, AR10
		SNOP		1
		SSTW		R44, *AR10
	.loc 1 340 0
		SMOVIL		-78, R44
		SMOVIL		-1, R45
		SADDA.M1		R45:R44,AR14,AR10
		SNOP		1
		SLDH		*AR10, R42
		SNOP		5
		SSHFLL		16, R42, R43
		SSHFLR		16, R43, R43
		SMOVIL		-80, R44
		SMOVIL		-1, R45
		SADDA.M1		R45:R44,AR14,AR10
		SNOP		1
		SLDH		*AR10, R42
		SNOP		5
		SSHFLL		16, R42, R42
		SSHFLR		16, R42, R42
		SEQ		R42, R43, R42
		SMOV.M1		R42, R0
	[!R0]	SBR		.L102
		SNOP		6
	.loc 1 342 0
		SMOVIL		-68, R42
		SMOVIL		-1, R43
		SMOVIL		-72, R44
		SMOVIL		-1, R45
		SADDA.M1		R45:R44,AR14,OR11
		SNOP		1
		SADDA.M1		R43:R42,OR11,OR11
		SNOP		1
		SMVAAGL.M1		OR11, R43:R42
		SNOP		1
		SMVAAGH.M1		OR11, R43:R42
		SNOP		1
		SMOVIL		0, R44
		SMVAGA36.M1		R43:R42, AR10
		SNOP		1
		SSTW		R44, *AR10
		SBR		.L103
		SNOP		6
.L107:
	.loc 1 344 0
		SMOVIL		-80, R44
		SMOVIL		-1, R45
		SADDA.M1		R45:R44,AR14,AR10
		SNOP		1
		SLDH		*AR10, R42
		SNOP		5
		SSHFLL		16, R42, R42
		SSHFLR		16, R42, R42
		SMOVIL		-712, R44
		SMOVIL		-1, R45
		SADDA.M1		R45:R44,AR14,AR10
		SNOP		1
		SSTW		R42, *AR10
		SMOVIL		0, R44
		SMOVIL		-708, R42
		SMOVIL		-1, R43
		SADDA.M1		R43:R42,AR14,AR10
		SNOP		1
		SSTW		R44, *AR10
		SMOVIL		1, R42
		SMOVIL		0, R43
		SMOVIL		-712, R46
		SMOVIL		-1, R47
		SADDA.M1		R47:R46,AR14,AR10
		SNOP		1
		SLDW		*AR10, R46
		SNOP		5
		SADD.M1		R42,R46,R44
		SMOVIL		-712, R48
		SMOVIL		-1, R49
		SADDA.M1		R49:R48,AR14,AR10
		SNOP		1
		SLDW		*AR10, R47
		SNOP		5
		SLTU		R44, R47, R46
		SMOVIL		-708, R48
		SMOVIL		-1, R49
		SADDA.M1		R49:R48,AR14,AR10
		SNOP		1
		SLDW		*AR10, R47
		SNOP		5
		SADD.M1		R43,R47,R45
		SADD.M1		R45,R46,R42
		SMOV.M1		R42, R45
		SMOVIL		-68, R42
		SMOVIL		-1, R43
		SMOVIL		-72, R48
		SMOVIL		-1, R49
		SADDA.M1		R49:R48,AR14,OR11
		SNOP		1
		SADDA.M1		R43:R42,OR11,OR11
		SNOP		1
		SMVAAGL.M1		OR11, R43:R42
		SNOP		1
		SMVAAGH.M1		OR11, R43:R42
		SNOP		1
		SMVAGA36.M1		R43:R42, AR10
		SNOP		1
		SLDW		*AR10, R48
		SNOP		5
		SMOVIL		-720, R46
		SMOVIL		-1, R47
		SADDA.M1		R47:R46,AR14,AR10
		SNOP		1
		SSTW		R48, *AR10
		SMVAGA36.M1		R43:R42, AR10
		SNOP		1
		SLDW		*AR10, R42
		SNOP		5
		SSHFAR		31, R42, R42
		SMOVIL		-716, R46
		SMOVIL		-1, R47
		SADDA.M1		R47:R46,AR14,AR10
		SNOP		1
		SSTW		R42, *AR10
		SMOVIL		-720, R46
		SMOVIL		-1, R47
		SADDA.M1		R47:R46,AR14,AR10
		SNOP		1
		SLDW		*AR10, R42
		SNOP		5
		SMULIS.M1		R42,R45,R43
		SNOP		2
		SMOVIL		-716, R46
		SMOVIL		-1, R47
		SADDA.M1		R47:R46,AR14,AR10
		SNOP		1
		SLDW		*AR10, R46
		SNOP		5
		SMULIS.M1		R44,R46,R42
		SNOP		2
		SADD.M1		R42,R43,R46
		SMOVIL		-720, R48
		SMOVIL		-1, R49
		SADDA.M1		R49:R48,AR14,AR10
		SNOP		1
		SLDW		*AR10, R47
		SNOP		5
		SMULU.M1		R47,R44,R43:R42
		SNOP		3
		SADD.M1		R43,R46,R44
		SMOV.M1		R44, R43
		SSHFLR		28, R42, R44
		SSHFLL		4, R43, R45
		SMOVIL		-724, R46
		SMOVIL		-1, R47
		SADDA.M1		R47:R46,AR14,AR10
		SNOP		1
		SSTW		R45, *AR10
		SMOVIL		-724, R46
		SMOVIL		-1, R47
		SADDA.M1		R47:R46,AR14,AR10
		SNOP		1
		SLDW		*AR10, R45
		SNOP		5
		SOR		R45, R44, R45
		SMOVIL		-724, R46
		SMOVIL		-1, R47
		SADDA.M1		R47:R46,AR14,AR10
		SNOP		1
		SSTW		R45, *AR10
		SSHFLL		4, R42, R46
		SMOVIL		-728, R44
		SMOVIL		-1, R45
		SADDA.M1		R45:R44,AR14,AR10
		SNOP		1
		SSTW		R46, *AR10
		SMOVIL		-192, R42
		SMOVIL		-1, R43
		SMOVIL		-72, R48
		SMOVIL		-1, R49
		SADDA.M1		R49:R48,AR14,OR11
		SNOP		1
		SADDA.M1		R43:R42,OR11,OR11
		SNOP		1
		SMVAAGL.M1		OR11, R43:R42
		SNOP		1
		SMVAAGH.M1		OR11, R43:R42
		SNOP		1
		SMOVIL		-728, R46
		SMOVIL		-1, R47
		SADDA.M1		R47:R46,AR14,AR10
		SNOP		1
		SLDDW		*AR10, R45:R44
		SNOP		5
	;no-op trunc di R45:R44 to pdi R45:R44
		SMVAGA36.M1		R43:R42, AR10
		SNOP		1
		SLDDW		*AR10, R43:R42
		SNOP		5
		SMVAGA36.M1		R43:R42, OR11
		SNOP		1
		SADDA.M1		R45:R44,OR11,OR11
		SNOP		1
		SMVAAGL.M1		OR11, R43:R42
		SNOP		1
		SMVAAGH.M1		OR11, R43:R42
		SNOP		1
		SMVAGA36.M1		R43:R42, AR10
		SNOP		1
		SLDDW		*AR10, R43:R42
		SNOP		5
		SFABSD.M1		R43:R42, R45:R44
		SNOP		1
		SMOVIL		-184, R46
		SMOVIL		-1, R47
		SADDA.M1		R47:R46,AR14,AR10
		SNOP		1
		SLDDW		*AR10, R43:R42
		SNOP		5
		SFCMPLD.M1		R45:R44, R43:R42, R42
		SNOP		1
		SMOV.M1		R42, R0
	[!R0]	SBR		.L104
		SNOP		6
.L150:
	.loc 1 344 0 is_stmt 0 discriminator 1
		SMOVIL		-80, R44
		SMOVIL		-1, R45
		SADDA.M1		R45:R44,AR14,AR10
		SNOP		1
		SLDH		*AR10, R42
		SNOP		5
		SSHFLL		16, R42, R42
		SSHFLR		16, R42, R42
		SMOVIL		-736, R44
		SMOVIL		-1, R45
		SADDA.M1		R45:R44,AR14,AR10
		SNOP		1
		SSTW		R42, *AR10
		SMOVIL		0, R44
		SMOVIL		-732, R42
		SMOVIL		-1, R43
		SADDA.M1		R43:R42,AR14,AR10
		SNOP		1
		SSTW		R44, *AR10
		SMOVIL		1, R42
		SMOVIL		0, R43
		SMOVIL		-736, R46
		SMOVIL		-1, R47
		SADDA.M1		R47:R46,AR14,AR10
		SNOP		1
		SLDW		*AR10, R46
		SNOP		5
		SADD.M1		R42,R46,R44
		SMOVIL		-736, R48
		SMOVIL		-1, R49
		SADDA.M1		R49:R48,AR14,AR10
		SNOP		1
		SLDW		*AR10, R47
		SNOP		5
		SLTU		R44, R47, R46
		SMOVIL		-732, R48
		SMOVIL		-1, R49
		SADDA.M1		R49:R48,AR14,AR10
		SNOP		1
		SLDW		*AR10, R47
		SNOP		5
		SADD.M1		R43,R47,R45
		SADD.M1		R45,R46,R42
		SMOV.M1		R42, R45
		SMOVIL		-68, R42
		SMOVIL		-1, R43
		SMOVIL		-72, R48
		SMOVIL		-1, R49
		SADDA.M1		R49:R48,AR14,OR11
		SNOP		1
		SADDA.M1		R43:R42,OR11,OR11
		SNOP		1
		SMVAAGL.M1		OR11, R43:R42
		SNOP		1
		SMVAAGH.M1		OR11, R43:R42
		SNOP		1
		SMVAGA36.M1		R43:R42, AR10
		SNOP		1
		SLDW		*AR10, R48
		SNOP		5
		SMOVIL		-744, R46
		SMOVIL		-1, R47
		SADDA.M1		R47:R46,AR14,AR10
		SNOP		1
		SSTW		R48, *AR10
		SMVAGA36.M1		R43:R42, AR10
		SNOP		1
		SLDW		*AR10, R42
		SNOP		5
		SSHFAR		31, R42, R42
		SMOVIL		-740, R46
		SMOVIL		-1, R47
		SADDA.M1		R47:R46,AR14,AR10
		SNOP		1
		SSTW		R42, *AR10
		SMOVIL		-744, R46
		SMOVIL		-1, R47
		SADDA.M1		R47:R46,AR14,AR10
		SNOP		1
		SLDW		*AR10, R42
		SNOP		5
		SMULIS.M1		R42,R45,R43
		SNOP		2
		SMOVIL		-740, R46
		SMOVIL		-1, R47
		SADDA.M1		R47:R46,AR14,AR10
		SNOP		1
		SLDW		*AR10, R46
		SNOP		5
		SMULIS.M1		R44,R46,R42
		SNOP		2
		SADD.M1		R42,R43,R46
		SMOVIL		-744, R48
		SMOVIL		-1, R49
		SADDA.M1		R49:R48,AR14,AR10
		SNOP		1
		SLDW		*AR10, R47
		SNOP		5
		SMULU.M1		R47,R44,R43:R42
		SNOP		3
		SADD.M1		R43,R46,R44
		SMOV.M1		R44, R43
		SSHFLR		28, R42, R44
		SSHFLL		4, R43, R37
		SOR		R37, R44, R37
		SSHFLL		4, R42, R36
		SMOVIL		8, R42
		SMOVIL		0, R43
		SADD.M1		R42,R36,R44
		SLTU		R44, R36, R46
		SADD.M1		R43,R37,R45
		SADD.M1		R45,R46,R42
		SMOV.M1		R42, R45
		SMOVIL		-192, R42
		SMOVIL		-1, R43
		SMOVIL		-72, R48
		SMOVIL		-1, R49
		SADDA.M1		R49:R48,AR14,OR11
		SNOP		1
		SADDA.M1		R43:R42,OR11,OR11
		SNOP		1
		SMVAAGL.M1		OR11, R43:R42
		SNOP		1
		SMVAAGH.M1		OR11, R43:R42
		SNOP		1
	;no-op trunc di R45:R44 to pdi R45:R44
		SMVAGA36.M1		R43:R42, AR10
		SNOP		1
		SLDDW		*AR10, R43:R42
		SNOP		5
		SMVAGA36.M1		R43:R42, OR11
		SNOP		1
		SADDA.M1		R45:R44,OR11,OR11
		SNOP		1
		SMVAAGL.M1		OR11, R43:R42
		SNOP		1
		SMVAAGH.M1		OR11, R43:R42
		SNOP		1
		SMVAGA36.M1		R43:R42, AR10
		SNOP		1
		SLDDW		*AR10, R43:R42
		SNOP		5
		SFABSD.M1		R43:R42, R45:R44
		SNOP		1
		SMOVIL		-184, R46
		SMOVIL		-1, R47
		SADDA.M1		R47:R46,AR14,AR10
		SNOP		1
		SLDDW		*AR10, R43:R42
		SNOP		5
		SFCMPLD.M1		R45:R44, R43:R42, R42
		SNOP		1
		SMOV.M1		R42, R0
	[!R0]	SBR		.L104
		SNOP		6
.L151:
	.loc 1 346 0 is_stmt 1
		SMOVIL		-80, R42
		SMOVIL		-1, R43
		SMOVIL		-72, R44
		SMOVIL		-1, R45
		SADDA.M1		R45:R44,AR14,OR11
		SNOP		1
		SADDA.M1		R43:R42,OR11,OR11
		SNOP		1
		SMVAAGL.M1		OR11, R43:R42
		SNOP		1
		SMVAAGH.M1		OR11, R43:R42
		SNOP		1
		SMOVIL		0, R44
		SMVAGA36.M1		R43:R42, AR10
		SNOP		1
		SSTW		R44, *AR10
.L104:
	.loc 1 342 0
		SMOVIL		-68, R42
		SMOVIL		-1, R43
		SMOVIL		-72, R46
		SMOVIL		-1, R47
		SADDA.M1		R47:R46,AR14,OR11
		SNOP		1
		SADDA.M1		R43:R42,OR11,OR11
		SNOP		1
		SMVAAGL.M1		OR11, R45:R44
		SNOP		1
		SMVAAGH.M1		OR11, R45:R44
		SNOP		1
		SMOVIL		-68, R42
		SMOVIL		-1, R43
		SMOVIL		-72, R46
		SMOVIL		-1, R47
		SADDA.M1		R47:R46,AR14,OR11
		SNOP		1
		SADDA.M1		R43:R42,OR11,OR11
		SNOP		1
		SMVAAGL.M1		OR11, R43:R42
		SNOP		1
		SMVAAGH.M1		OR11, R43:R42
		SNOP		1
		SMVAGA36.M1		R43:R42, AR10
		SNOP		1
		SLDW		*AR10, R42
		SNOP		5
		SADD.M1		1,R42,R42
		SMVAGA36.M1		R45:R44, AR10
		SNOP		1
		SSTW		R42, *AR10
.L103:
	.loc 1 342 0 is_stmt 0 discriminator 1
		SMOVIL		-78, R44
		SMOVIL		-1, R45
		SADDA.M1		R45:R44,AR14,AR10
		SNOP		1
		SLDH		*AR10, R42
		SNOP		5
		SSHFLL		16, R42, R44
		SSHFLR		16, R44, R44
		SMOVIL		-68, R42
		SMOVIL		-1, R43
		SMOVIL		-72, R46
		SMOVIL		-1, R47
		SADDA.M1		R47:R46,AR14,OR11
		SNOP		1
		SADDA.M1		R43:R42,OR11,OR11
		SNOP		1
		SMVAAGL.M1		OR11, R43:R42
		SNOP		1
		SMVAAGH.M1		OR11, R43:R42
		SNOP		1
		SMVAGA36.M1		R43:R42, AR10
		SNOP		1
		SLDW		*AR10, R42
		SNOP		5
		SLT		R42, R44, R42
		SMOV.M1		R42, R0
	[R0]	SBR		.L107
		SNOP		6
	.loc 1 342 0
		SBR		.L108
		SNOP		6
.L102:
	.loc 1 352 0 is_stmt 1
		SMOVIL		-80, R42
		SMOVIL		-1, R43
		SMOVIL		-72, R44
		SMOVIL		-1, R45
		SADDA.M1		R45:R44,AR14,OR11
		SNOP		1
		SADDA.M1		R43:R42,OR11,OR11
		SNOP		1
		SMVAAGL.M1		OR11, R43:R42
		SNOP		1
		SMVAAGH.M1		OR11, R43:R42
		SNOP		1
		SMOVIL		0, R44
		SMVAGA36.M1		R43:R42, AR10
		SNOP		1
		SSTW		R44, *AR10
.L108:
	.loc 1 358 0
		SMOVIL		-80, R42
		SMOVIL		-1, R43
		SMOVIL		-72, R44
		SMOVIL		-1, R45
		SADDA.M1		R45:R44,AR14,OR11
		SNOP		1
		SADDA.M1		R43:R42,OR11,OR11
		SNOP		1
		SMVAAGL.M1		OR11, R43:R42
		SNOP		1
		SMVAAGH.M1		OR11, R43:R42
		SNOP		1
		SMVAGA36.M1		R43:R42, AR10
		SNOP		1
		SLDW		*AR10, R42
		SNOP		5
		SMOV.M1		R42, R0
	[!R0]	SBR		.L109
		SNOP		6
	.loc 1 360 0
		SMOVIL		-78, R44
		SMOVIL		-1, R45
		SADDA.M1		R45:R44,AR14,AR10
		SNOP		1
		SLDH		*AR10, R42
		SNOP		5
		SSHFLL		16, R42, R57
		SSHFLR		16, R57, R57
		SMOVIL		-80, R44
		SMOVIL		-1, R45
		SADDA.M1		R45:R44,AR14,AR10
		SNOP		1
		SLDH		*AR10, R42
		SNOP		5
		SSHFLL		16, R42, R56
		SSHFLR		16, R56, R56
		SMOVIL		-116, R42
		SMOVIL		-1, R43
		SMOVIL		-72, R44
		SMOVIL		-1, R45
		SADDA.M1		R45:R44,AR14,OR11
		SNOP		1
		SADDA.M1		R43:R42,OR11,AR8
		SNOP		1
		SMOVIL		-164, R42
		SMOVIL		-1, R43
		SMOVIL		-72, R44
		SMOVIL		-1, R45
		SADDA.M1		R45:R44,AR14,OR11
		SNOP		1
		SADDA.M1		R43:R42,OR11,OR11
		SNOP		1
		SMVAAGL.M1		OR11, R55:R54
		SNOP		1
		SMVAAGH.M1		OR11, R55:R54
		SNOP		1
		SMOVIL		-168, R42
		SMOVIL		-1, R43
		SMOVIL		-72, R44
		SMOVIL		-1, R45
		SADDA.M1		R45:R44,AR14,OR11
		SNOP		1
		SADDA.M1		R43:R42,OR11,OR11
		SNOP		1
		SMVAAGL.M1		OR11, R51:R50
		SNOP		1
		SMVAAGH.M1		OR11, R51:R50
		SNOP		1
		SMOVIL		-184, R42
		SMOVIL		-1, R43
		SMOVIL		-72, R44
		SMOVIL		-1, R45
		SADDA.M1		R45:R44,AR14,OR11
		SNOP		1
		SADDA.M1		R43:R42,OR11,OR11
		SNOP		1
		SMVAAGL.M1		OR11, R53:R52
		SNOP		1
		SMVAAGH.M1		OR11, R53:R52
		SNOP		1
		SMOVIL		-192, R42
		SMOVIL		-1, R43
		SMOVIL		-72, R44
		SMOVIL		-1, R45
		SADDA.M1		R45:R44,AR14,OR11
		SNOP		1
		SADDA.M1		R43:R42,OR11,OR11
		SNOP		1
		SMVAAGL.M1		OR11, R49:R48
		SNOP		1
		SMVAAGH.M1		OR11, R49:R48
		SNOP		1
		SMOVIL		-216, R42
		SMOVIL		-1, R43
		SMOVIL		-72, R44
		SMOVIL		-1, R45
		SADDA.M1		R45:R44,AR14,OR11
		SNOP		1
		SADDA.M1		R43:R42,OR11,OR11
		SNOP		1
		SMVAAGL.M1		OR11, R47:R46
		SNOP		1
		SMVAAGH.M1		OR11, R47:R46
		SNOP		1
		SMOVIL		-224, R42
		SMOVIL		-1, R43
		SMOVIL		-72, R58
		SMOVIL		-1, R59
		SADDA.M1		R59:R58,AR14,OR11
		SNOP		1
		SADDA.M1		R43:R42,OR11,OR11
		SNOP		1
		SMVAAGL.M1		OR11, R45:R44
		SNOP		1
		SMVAAGH.M1		OR11, R45:R44
		SNOP		1
		SMOVIL		-232, R42
		SMOVIL		-1, R43
		SMOVIL		-72, R58
		SMOVIL		-1, R59
		SADDA.M1		R59:R58,AR14,OR11
		SNOP		1
		SADDA.M1		R43:R42,OR11,OR11
		SNOP		1
		SMVAAGL.M1		OR11, R43:R42
		SNOP		1
		SMVAAGH.M1		OR11, R43:R42
		SNOP		1
		SMVAGA36.M1		R55:R54, OR11
		SNOP		1
		SMVAAGL.M1		OR11, R11:R10
		SNOP		1
		SMVAAGH.M1		OR11, R11:R10
		SNOP		1
		SMVAGA36.M1		R51:R50, OR11
		SNOP		1
		SMVAAGL.M1		OR11, R13:R12
		SNOP		1
		SMVAAGH.M1		OR11, R13:R12
		SNOP		1
		SMOV.M1		R57, R14
		SMOV.M1		R56, R16
		SMVAGA36.M1		R53:R52, AR10
		SNOP		1
		SLDDW		*AR10, R19:R18
		SNOP		5
		SMVAGA36.M1		R49:R48, AR10
		SNOP		1
		SLDDW		*AR10, R21:R20
		SNOP		5
		SMVAGA36.M1		R47:R46, AR10
		SNOP		1
		SLDDW		*AR10, R23:R22
		SNOP		5
		SMVAGA36.M1		R45:R44, AR10
		SNOP		1
		SLDDW		*AR10, R25:R24
		SNOP		5
		SMVAGA36.M1		R43:R42, AR10
		SNOP		1
		SLDDW		*AR10, R27:R26
		SNOP		5
		SBR		DSPF_sp_qrd_solver_cmplx_wrapper
		SMOVIL		.L186, R62
		SMOVIH		.L186, R62
		SMOVIH4.L		.L186, R63
		SNOP		4
.L186:
		SSTW		R10, *AR8
	.loc 1 361 0
		SMOVIL		-168, R42
		SMOVIL		-1, R43
		SMOVIL		-72, R44
		SMOVIL		-1, R45
		SADDA.M1		R45:R44,AR14,OR11
		SNOP		1
		SADDA.M1		R43:R42,OR11,OR11
		SNOP		1
		SMVAAGL.M1		OR11, R43:R42
		SNOP		1
		SMVAAGH.M1		OR11, R43:R42
		SNOP		1
		SMVAGA36.M1		R43:R42, AR10
		SNOP		1
		SLDW		*AR10, R44
		SNOP		5
		SMOVIL		-164, R42
		SMOVIL		-1, R43
		SMOVIL		-72, R46
		SMOVIL		-1, R47
		SADDA.M1		R47:R46,AR14,OR11
		SNOP		1
		SADDA.M1		R43:R42,OR11,OR11
		SNOP		1
		SMVAAGL.M1		OR11, R43:R42
		SNOP		1
		SMVAAGH.M1		OR11, R43:R42
		SNOP		1
		SMVAGA36.M1		R43:R42, AR10
		SNOP		1
		SLDW		*AR10, R42
		SNOP		5
		SSUB.M1		R42, R44, R45
		SMOVIL		-104, R42
		SMOVIL		-1, R43
		SMOVIL		-72, R46
		SMOVIL		-1, R47
		SADDA.M1		R47:R46,AR14,OR11
		SNOP		1
		SADDA.M1		R43:R42,OR11,OR11
		SNOP		1
		SMVAAGL.M1		OR11, R43:R42
		SNOP		1
		SMVAAGH.M1		OR11, R43:R42
		SNOP		1
		SMVAGA36.M1		R43:R42, AR10
		SNOP		1
		SLDW		*AR10, R44
		SNOP		5
		SMOVIL		-84, R42
		SMOVIL		-1, R43
		SMOVIL		-72, R46
		SMOVIL		-1, R47
		SADDA.M1		R47:R46,AR14,OR11
		SNOP		1
		SADDA.M1		R43:R42,OR11,OR11
		SNOP		1
		SMVAAGL.M1		OR11, R43:R42
		SNOP		1
		SMVAAGH.M1		OR11, R43:R42
		SNOP		1
		SSUB.M1		R44, R45, R44
		SMVAGA36.M1		R43:R42, AR10
		SNOP		1
		SSTW		R44, *AR10
	.loc 1 362 0
		SMOVIL		-116, R42
		SMOVIL		-1, R43
		SMOVIL		-72, R44
		SMOVIL		-1, R45
		SADDA.M1		R45:R44,AR14,OR11
		SNOP		1
		SADDA.M1		R43:R42,OR11,OR11
		SNOP		1
		SMVAAGL.M1		OR11, R43:R42
		SNOP		1
		SMVAAGH.M1		OR11, R43:R42
		SNOP		1
		SMVAGA36.M1		R43:R42, AR10
		SNOP		1
		SLDW		*AR10, R42
		SNOP		5
		SMOVIL		-1, R0
		SEQ		R0, R42, R42
		SMOV.M1		R42, R0
	[!R0]	SBR		.L110
		SNOP		6
	.loc 1 364 0
		SMOVIL.L		.LC14, R10
		SMOVIH.L		.LC14, R10
		SMOVIH4.L		.LC14, R11
		SBR		puts
		SMOVIL		.L187, R62
		SMOVIH		.L187, R62
		SMOVIH4.L		.L187, R63
		SNOP		4
.L187:
.L110:
	.loc 1 370 0
		SMOVIL		-92, R42
		SMOVIL		-1, R43
		SMOVIL		-72, R44
		SMOVIL		-1, R45
		SADDA.M1		R45:R44,AR14,OR11
		SNOP		1
		SADDA.M1		R43:R42,OR11,OR11
		SNOP		1
		SMVAAGL.M1		OR11, R43:R42
		SNOP		1
		SMVAAGH.M1		OR11, R43:R42
		SNOP		1
		SMVAGA36.M1		R43:R42, AR10
		SNOP		1
		SLDW		*AR10, R42
		SNOP		5
		SMOV.M1		R42, R0
	[!R0]	SBR		.L111
		SNOP		6
	.loc 1 372 0
		SMOVIL		0, R42
		SMOVIL		0, R43
		SSTDW		R43:R42, *-AR14[15]
	.loc 1 373 0
		SMOVIL		-68, R42
		SMOVIL		-1, R43
		SMOVIL		-72, R44
		SMOVIL		-1, R45
		SADDA.M1		R45:R44,AR14,OR11
		SNOP		1
		SADDA.M1		R43:R42,OR11,OR11
		SNOP		1
		SMVAAGL.M1		OR11, R43:R42
		SNOP		1
		SMVAAGH.M1		OR11, R43:R42
		SNOP		1
		SMOVIL		0, R44
		SMVAGA36.M1		R43:R42, AR10
		SNOP		1
		SSTW		R44, *AR10
		SBR		.L112
		SNOP		6
.L123:
	.loc 1 375 0
		SMOVIL		0, R42
		SMOVIL		0, R43
		SSTDW		R43:R42, *-AR14[11]
	.loc 1 376 0
		SMOVIL		0, R42
		SMOVIL		0, R43
		SSTDW		R43:R42, *-AR14[12]
	.loc 1 377 0
		SMOVIL		-72, R42
		SMOVIL		-1, R43
		SMOVIL		-72, R44
		SMOVIL		-1, R45
		SADDA.M1		R45:R44,AR14,OR11
		SNOP		1
		SADDA.M1		R43:R42,OR11,OR11
		SNOP		1
		SMVAAGL.M1		OR11, R43:R42
		SNOP		1
		SMVAAGH.M1		OR11, R43:R42
		SNOP		1
		SMOVIL		0, R44
		SMVAGA36.M1		R43:R42, AR10
		SNOP		1
		SSTW		R44, *AR10
		SBR		.L113
		SNOP		6
.L114:
	.loc 1 379 0 discriminator 2
		SMOVIL		-72, R42
		SMOVIL		-1, R43
		SMOVIL		-72, R44
		SMOVIL		-1, R45
		SADDA.M1		R45:R44,AR14,OR11
		SNOP		1
		SADDA.M1		R43:R42,OR11,OR11
		SNOP		1
		SMVAAGL.M1		OR11, R43:R42
		SNOP		1
		SMVAAGH.M1		OR11, R43:R42
		SNOP		1
		SMVAGA36.M1		R43:R42, AR10
		SNOP		1
		SLDW		*AR10, R46
		SNOP		5
		SMOVIL		-752, R44
		SMOVIL		-1, R45
		SADDA.M1		R45:R44,AR14,AR10
		SNOP		1
		SSTW		R46, *AR10
		SMVAGA36.M1		R43:R42, AR10
		SNOP		1
		SLDW		*AR10, R42
		SNOP		5
		SSHFAR		31, R42, R42
		SMOVIL		-748, R44
		SMOVIL		-1, R45
		SADDA.M1		R45:R44,AR14,AR10
		SNOP		1
		SSTW		R42, *AR10
		SMOVIL		-68, R42
		SMOVIL		-1, R43
		SMOVIL		-72, R44
		SMOVIL		-1, R45
		SADDA.M1		R45:R44,AR14,OR11
		SNOP		1
		SADDA.M1		R43:R42,OR11,OR11
		SNOP		1
		SMVAAGL.M1		OR11, R43:R42
		SNOP		1
		SMVAAGH.M1		OR11, R43:R42
		SNOP		1
		SMVAGA36.M1		R43:R42, AR10
		SNOP		1
		SLDW		*AR10, R46
		SNOP		5
		SMOVIL		-760, R44
		SMOVIL		-1, R45
		SADDA.M1		R45:R44,AR14,AR10
		SNOP		1
		SSTW		R46, *AR10
		SMVAGA36.M1		R43:R42, AR10
		SNOP		1
		SLDW		*AR10, R42
		SNOP		5
		SSHFAR		31, R42, R42
		SMOVIL		-756, R44
		SMOVIL		-1, R45
		SADDA.M1		R45:R44,AR14,AR10
		SNOP		1
		SSTW		R42, *AR10
		SMOVIL		-80, R44
		SMOVIL		-1, R45
		SADDA.M1		R45:R44,AR14,AR10
		SNOP		1
		SLDH		*AR10, R42
		SNOP		5
		SSHFLL		16, R42, R42
		SSHFLR		16, R42, R42
		SMOVIL		-768, R44
		SMOVIL		-1, R45
		SADDA.M1		R45:R44,AR14,AR10
		SNOP		1
		SSTW		R42, *AR10
		SMOVIL		0, R44
		SMOVIL		-764, R42
		SMOVIL		-1, R43
		SADDA.M1		R43:R42,AR14,AR10
		SNOP		1
		SSTW		R44, *AR10
		SMOVIL		-756, R44
		SMOVIL		-1, R45
		SADDA.M1		R45:R44,AR14,AR10
		SNOP		1
		SLDW		*AR10, R42
		SNOP		5
		SMOVIL		-768, R44
		SMOVIL		-1, R45
		SADDA.M1		R45:R44,AR14,AR10
		SNOP		1
		SLDW		*AR10, R44
		SNOP		5
		SMULIS.M1		R44,R42,R43
		SNOP		2
		SMOVIL		-764, R44
		SMOVIL		-1, R45
		SADDA.M1		R45:R44,AR14,AR10
		SNOP		1
		SLDW		*AR10, R46
		SNOP		5
		SMOVIL		-760, R44
		SMOVIL		-1, R45
		SADDA.M1		R45:R44,AR14,AR10
		SNOP		1
		SLDW		*AR10, R44
		SNOP		5
		SMULIS.M1		R44,R46,R42
		SNOP		2
		SADD.M1		R42,R43,R44
		SMOVIL		-760, R46
		SMOVIL		-1, R47
		SADDA.M1		R47:R46,AR14,AR10
		SNOP		1
		SLDW		*AR10, R45
		SNOP		5
		SMOVIL		-768, R46
		SMOVIL		-1, R47
		SADDA.M1		R47:R46,AR14,AR10
		SNOP		1
		SLDW		*AR10, R46
		SNOP		5
		SMULU.M1		R46,R45,R43:R42
		SNOP		3
		SADD.M1		R43,R44,R44
		SMOV.M1		R44, R43
		SMOVIL		-752, R46
		SMOVIL		-1, R47
		SADDA.M1		R47:R46,AR14,AR10
		SNOP		1
		SLDW		*AR10, R46
		SNOP		5
		SADD.M1		R42,R46,R44
		SMOVIL		-752, R48
		SMOVIL		-1, R49
		SADDA.M1		R49:R48,AR14,AR10
		SNOP		1
		SLDW		*AR10, R47
		SNOP		5
		SLTU		R44, R47, R46
		SMOVIL		-748, R48
		SMOVIL		-1, R49
		SADDA.M1		R49:R48,AR14,AR10
		SNOP		1
		SLDW		*AR10, R47
		SNOP		5
		SADD.M1		R43,R47,R45
		SADD.M1		R45,R46,R42
		SMOV.M1		R42, R45
		SMOV.M1		R44, R42
		SMOV.M1		R45, R43
		SSHFLR		28, R42, R44
		SSHFLL		4, R43, R45
		SMOVIL		-772, R46
		SMOVIL		-1, R47
		SADDA.M1		R47:R46,AR14,AR10
		SNOP		1
		SSTW		R45, *AR10
		SMOVIL		-772, R46
		SMOVIL		-1, R47
		SADDA.M1		R47:R46,AR14,AR10
		SNOP		1
		SLDW		*AR10, R45
		SNOP		5
		SOR		R45, R44, R45
		SMOVIL		-772, R46
		SMOVIL		-1, R47
		SADDA.M1		R47:R46,AR14,AR10
		SNOP		1
		SSTW		R45, *AR10
		SSHFLL		4, R42, R46
		SMOVIL		-776, R44
		SMOVIL		-1, R45
		SADDA.M1		R45:R44,AR14,AR10
		SNOP		1
		SSTW		R46, *AR10
		SMOVIL		-176, R42
		SMOVIL		-1, R43
		SMOVIL		-72, R48
		SMOVIL		-1, R49
		SADDA.M1		R49:R48,AR14,OR11
		SNOP		1
		SADDA.M1		R43:R42,OR11,OR11
		SNOP		1
		SMVAAGL.M1		OR11, R43:R42
		SNOP		1
		SMVAAGH.M1		OR11, R43:R42
		SNOP		1
		SMOVIL		-776, R46
		SMOVIL		-1, R47
		SADDA.M1		R47:R46,AR14,AR10
		SNOP		1
		SLDDW		*AR10, R45:R44
		SNOP		5
	;no-op trunc di R45:R44 to pdi R45:R44
		SMVAGA36.M1		R43:R42, AR10
		SNOP		1
		SLDDW		*AR10, R43:R42
		SNOP		5
		SMVAGA36.M1		R43:R42, OR11
		SNOP		1
		SADDA.M1		R45:R44,OR11,OR11
		SNOP		1
		SMVAAGL.M1		OR11, R47:R46
		SNOP		1
		SMVAAGH.M1		OR11, R47:R46
		SNOP		1
		SMOVIL		-128, R42
		SMOVIL		-1, R43
		SMOVIL		-72, R48
		SMOVIL		-1, R49
		SADDA.M1		R49:R48,AR14,OR11
		SNOP		1
		SADDA.M1		R43:R42,OR11,OR11
		SNOP		1
		SMVAAGL.M1		OR11, R45:R44
		SNOP		1
		SMVAAGH.M1		OR11, R45:R44
		SNOP		1
		SMVAGA36.M1		R47:R46, AR10
		SNOP		1
		SLDDW		*AR10, R43:R42
		SNOP		5
		SMVAGA36.M1		R45:R44, AR10
		SNOP		1
		SSTDW		R43:R42, *AR10
	.loc 1 380 0 discriminator 2
		SMOVIL		-72, R42
		SMOVIL		-1, R43
		SMOVIL		-72, R44
		SMOVIL		-1, R45
		SADDA.M1		R45:R44,AR14,OR11
		SNOP		1
		SADDA.M1		R43:R42,OR11,OR11
		SNOP		1
		SMVAAGL.M1		OR11, R43:R42
		SNOP		1
		SMVAAGH.M1		OR11, R43:R42
		SNOP		1
		SMVAGA36.M1		R43:R42, AR10
		SNOP		1
		SLDW		*AR10, R46
		SNOP		5
		SMOVIL		-784, R44
		SMOVIL		-1, R45
		SADDA.M1		R45:R44,AR14,AR10
		SNOP		1
		SSTW		R46, *AR10
		SMVAGA36.M1		R43:R42, AR10
		SNOP		1
		SLDW		*AR10, R42
		SNOP		5
		SSHFAR		31, R42, R42
		SMOVIL		-780, R44
		SMOVIL		-1, R45
		SADDA.M1		R45:R44,AR14,AR10
		SNOP		1
		SSTW		R42, *AR10
		SMOVIL		-68, R42
		SMOVIL		-1, R43
		SMOVIL		-72, R44
		SMOVIL		-1, R45
		SADDA.M1		R45:R44,AR14,OR11
		SNOP		1
		SADDA.M1		R43:R42,OR11,OR11
		SNOP		1
		SMVAAGL.M1		OR11, R43:R42
		SNOP		1
		SMVAAGH.M1		OR11, R43:R42
		SNOP		1
		SMVAGA36.M1		R43:R42, AR10
		SNOP		1
		SLDW		*AR10, R46
		SNOP		5
		SMOVIL		-792, R44
		SMOVIL		-1, R45
		SADDA.M1		R45:R44,AR14,AR10
		SNOP		1
		SSTW		R46, *AR10
		SMVAGA36.M1		R43:R42, AR10
		SNOP		1
		SLDW		*AR10, R42
		SNOP		5
		SSHFAR		31, R42, R42
		SMOVIL		-788, R44
		SMOVIL		-1, R45
		SADDA.M1		R45:R44,AR14,AR10
		SNOP		1
		SSTW		R42, *AR10
		SMOVIL		-80, R44
		SMOVIL		-1, R45
		SADDA.M1		R45:R44,AR14,AR10
		SNOP		1
		SLDH		*AR10, R42
		SNOP		5
		SSHFLL		16, R42, R42
		SSHFLR		16, R42, R42
		SMOVIL		-800, R44
		SMOVIL		-1, R45
		SADDA.M1		R45:R44,AR14,AR10
		SNOP		1
		SSTW		R42, *AR10
		SMOVIL		0, R44
		SMOVIL		-796, R42
		SMOVIL		-1, R43
		SADDA.M1		R43:R42,AR14,AR10
		SNOP		1
		SSTW		R44, *AR10
		SMOVIL		-788, R44
		SMOVIL		-1, R45
		SADDA.M1		R45:R44,AR14,AR10
		SNOP		1
		SLDW		*AR10, R42
		SNOP		5
		SMOVIL		-800, R44
		SMOVIL		-1, R45
		SADDA.M1		R45:R44,AR14,AR10
		SNOP		1
		SLDW		*AR10, R44
		SNOP		5
		SMULIS.M1		R44,R42,R43
		SNOP		2
		SMOVIL		-796, R44
		SMOVIL		-1, R45
		SADDA.M1		R45:R44,AR14,AR10
		SNOP		1
		SLDW		*AR10, R46
		SNOP		5
		SMOVIL		-792, R44
		SMOVIL		-1, R45
		SADDA.M1		R45:R44,AR14,AR10
		SNOP		1
		SLDW		*AR10, R44
		SNOP		5
		SMULIS.M1		R44,R46,R42
		SNOP		2
		SADD.M1		R42,R43,R44
		SMOVIL		-792, R46
		SMOVIL		-1, R47
		SADDA.M1		R47:R46,AR14,AR10
		SNOP		1
		SLDW		*AR10, R45
		SNOP		5
		SMOVIL		-800, R46
		SMOVIL		-1, R47
		SADDA.M1		R47:R46,AR14,AR10
		SNOP		1
		SLDW		*AR10, R46
		SNOP		5
		SMULU.M1		R46,R45,R43:R42
		SNOP		3
		SADD.M1		R43,R44,R44
		SMOV.M1		R44, R43
		SMOVIL		-784, R46
		SMOVIL		-1, R47
		SADDA.M1		R47:R46,AR14,AR10
		SNOP		1
		SLDW		*AR10, R46
		SNOP		5
		SADD.M1		R42,R46,R44
		SMOVIL		-784, R48
		SMOVIL		-1, R49
		SADDA.M1		R49:R48,AR14,AR10
		SNOP		1
		SLDW		*AR10, R47
		SNOP		5
		SLTU		R44, R47, R46
		SMOVIL		-780, R48
		SMOVIL		-1, R49
		SADDA.M1		R49:R48,AR14,AR10
		SNOP		1
		SLDW		*AR10, R47
		SNOP		5
		SADD.M1		R43,R47,R45
		SADD.M1		R45,R46,R42
		SMOV.M1		R42, R45
		SMOV.M1		R44, R42
		SMOV.M1		R45, R43
		SSHFLR		28, R42, R44
		SSHFLL		4, R43, R45
		SMOVIL		-804, R46
		SMOVIL		-1, R47
		SADDA.M1		R47:R46,AR14,AR10
		SNOP		1
		SSTW		R45, *AR10
		SMOVIL		-804, R46
		SMOVIL		-1, R47
		SADDA.M1		R47:R46,AR14,AR10
		SNOP		1
		SLDW		*AR10, R45
		SNOP		5
		SOR		R45, R44, R45
		SMOVIL		-804, R46
		SMOVIL		-1, R47
		SADDA.M1		R47:R46,AR14,AR10
		SNOP		1
		SSTW		R45, *AR10
		SSHFLL		4, R42, R46
		SMOVIL		-808, R44
		SMOVIL		-1, R45
		SADDA.M1		R45:R44,AR14,AR10
		SNOP		1
		SSTW		R46, *AR10
		SMOVIL		8, R42
		SMOVIL		0, R43
		SMOVIL		-808, R46
		SMOVIL		-1, R47
		SADDA.M1		R47:R46,AR14,AR10
		SNOP		1
		SLDW		*AR10, R46
		SNOP		5
		SADD.M1		R42,R46,R44
		SMOVIL		-808, R48
		SMOVIL		-1, R49
		SADDA.M1		R49:R48,AR14,AR10
		SNOP		1
		SLDW		*AR10, R47
		SNOP		5
		SLTU		R44, R47, R46
		SMOVIL		-804, R48
		SMOVIL		-1, R49
		SADDA.M1		R49:R48,AR14,AR10
		SNOP		1
		SLDW		*AR10, R47
		SNOP		5
		SADD.M1		R43,R47,R45
		SADD.M1		R45,R46,R42
		SMOV.M1		R42, R45
		SMOVIL		-176, R42
		SMOVIL		-1, R43
		SMOVIL		-72, R48
		SMOVIL		-1, R49
		SADDA.M1		R49:R48,AR14,OR11
		SNOP		1
		SADDA.M1		R43:R42,OR11,OR11
		SNOP		1
		SMVAAGL.M1		OR11, R43:R42
		SNOP		1
		SMVAAGH.M1		OR11, R43:R42
		SNOP		1
	;no-op trunc di R45:R44 to pdi R45:R44
		SMVAGA36.M1		R43:R42, AR10
		SNOP		1
		SLDDW		*AR10, R43:R42
		SNOP		5
		SMVAGA36.M1		R43:R42, OR11
		SNOP		1
		SADDA.M1		R45:R44,OR11,OR11
		SNOP		1
		SMVAAGL.M1		OR11, R47:R46
		SNOP		1
		SMVAAGH.M1		OR11, R47:R46
		SNOP		1
		SMOVIL		-136, R42
		SMOVIL		-1, R43
		SMOVIL		-72, R48
		SMOVIL		-1, R49
		SADDA.M1		R49:R48,AR14,OR11
		SNOP		1
		SADDA.M1		R43:R42,OR11,OR11
		SNOP		1
		SMVAAGL.M1		OR11, R45:R44
		SNOP		1
		SMVAAGH.M1		OR11, R45:R44
		SNOP		1
		SMVAGA36.M1		R47:R46, AR10
		SNOP		1
		SLDDW		*AR10, R43:R42
		SNOP		5
		SMVAGA36.M1		R45:R44, AR10
		SNOP		1
		SSTDW		R43:R42, *AR10
	.loc 1 381 0 discriminator 2
		SMOVIL		-72, R42
		SMOVIL		-1, R43
		SMOVIL		-72, R44
		SMOVIL		-1, R45
		SADDA.M1		R45:R44,AR14,OR11
		SNOP		1
		SADDA.M1		R43:R42,OR11,OR11
		SNOP		1
		SMVAAGL.M1		OR11, R43:R42
		SNOP		1
		SMVAAGH.M1		OR11, R43:R42
		SNOP		1
		SMVAGA36.M1		R43:R42, AR10
		SNOP		1
		SLDW		*AR10, R46
		SNOP		5
		SMOVIL		-816, R44
		SMOVIL		-1, R45
		SADDA.M1		R45:R44,AR14,AR10
		SNOP		1
		SSTW		R46, *AR10
		SMVAGA36.M1		R43:R42, AR10
		SNOP		1
		SLDW		*AR10, R42
		SNOP		5
		SSHFAR		31, R42, R42
		SMOVIL		-812, R44
		SMOVIL		-1, R45
		SADDA.M1		R45:R44,AR14,AR10
		SNOP		1
		SSTW		R42, *AR10
		SMOVIL		-816, R44
		SMOVIL		-1, R45
		SADDA.M1		R45:R44,AR14,AR10
		SNOP		1
		SLDW		*AR10, R43
		SNOP		5
		SSHFLR		28, R43, R42
		SMOVIL		-812, R44
		SMOVIL		-1, R45
		SADDA.M1		R45:R44,AR14,AR10
		SNOP		1
		SLDW		*AR10, R43
		SNOP		5
		SSHFLL		4, R43, R43
		SMOVIL		-820, R44
		SMOVIL		-1, R45
		SADDA.M1		R45:R44,AR14,AR10
		SNOP		1
		SSTW		R43, *AR10
		SMOVIL		-820, R44
		SMOVIL		-1, R45
		SADDA.M1		R45:R44,AR14,AR10
		SNOP		1
		SLDW		*AR10, R43
		SNOP		5
		SOR		R43, R42, R43
		SMOVIL		-820, R44
		SMOVIL		-1, R45
		SADDA.M1		R45:R44,AR14,AR10
		SNOP		1
		SSTW		R43, *AR10
		SMOVIL		-816, R42
		SMOVIL		-1, R43
		SADDA.M1		R43:R42,AR14,AR10
		SNOP		1
		SLDW		*AR10, R42
		SNOP		5
		SSHFLL		4, R42, R44
		SMOVIL		-824, R42
		SMOVIL		-1, R43
		SADDA.M1		R43:R42,AR14,AR10
		SNOP		1
		SSTW		R44, *AR10
		SMOVIL		-232, R42
		SMOVIL		-1, R43
		SMOVIL		-72, R44
		SMOVIL		-1, R45
		SADDA.M1		R45:R44,AR14,OR11
		SNOP		1
		SADDA.M1		R43:R42,OR11,OR11
		SNOP		1
		SMVAAGL.M1		OR11, R43:R42
		SNOP		1
		SMVAAGH.M1		OR11, R43:R42
		SNOP		1
		SMOVIL		-824, R46
		SMOVIL		-1, R47
		SADDA.M1		R47:R46,AR14,AR10
		SNOP		1
		SLDDW		*AR10, R45:R44
		SNOP		5
	;no-op trunc di R45:R44 to pdi R45:R44
		SMVAGA36.M1		R43:R42, AR10
		SNOP		1
		SLDDW		*AR10, R43:R42
		SNOP		5
		SMVAGA36.M1		R43:R42, OR11
		SNOP		1
		SADDA.M1		R45:R44,OR11,OR11
		SNOP		1
		SMVAAGL.M1		OR11, R47:R46
		SNOP		1
		SMVAAGH.M1		OR11, R47:R46
		SNOP		1
		SMOVIL		-144, R42
		SMOVIL		-1, R43
		SMOVIL		-72, R48
		SMOVIL		-1, R49
		SADDA.M1		R49:R48,AR14,OR11
		SNOP		1
		SADDA.M1		R43:R42,OR11,OR11
		SNOP		1
		SMVAAGL.M1		OR11, R45:R44
		SNOP		1
		SMVAAGH.M1		OR11, R45:R44
		SNOP		1
		SMVAGA36.M1		R47:R46, AR10
		SNOP		1
		SLDDW		*AR10, R43:R42
		SNOP		5
		SMVAGA36.M1		R45:R44, AR10
		SNOP		1
		SSTDW		R43:R42, *AR10
	.loc 1 382 0 discriminator 2
		SMOVIL		-72, R42
		SMOVIL		-1, R43
		SMOVIL		-72, R44
		SMOVIL		-1, R45
		SADDA.M1		R45:R44,AR14,OR11
		SNOP		1
		SADDA.M1		R43:R42,OR11,OR11
		SNOP		1
		SMVAAGL.M1		OR11, R43:R42
		SNOP		1
		SMVAAGH.M1		OR11, R43:R42
		SNOP		1
		SMVAGA36.M1		R43:R42, AR10
		SNOP		1
		SLDW		*AR10, R46
		SNOP		5
		SMOVIL		-832, R44
		SMOVIL		-1, R45
		SADDA.M1		R45:R44,AR14,AR10
		SNOP		1
		SSTW		R46, *AR10
		SMVAGA36.M1		R43:R42, AR10
		SNOP		1
		SLDW		*AR10, R42
		SNOP		5
		SSHFAR		31, R42, R42
		SMOVIL		-828, R44
		SMOVIL		-1, R45
		SADDA.M1		R45:R44,AR14,AR10
		SNOP		1
		SSTW		R42, *AR10
		SMOVIL		-832, R44
		SMOVIL		-1, R45
		SADDA.M1		R45:R44,AR14,AR10
		SNOP		1
		SLDW		*AR10, R43
		SNOP		5
		SSHFLR		28, R43, R42
		SMOVIL		-828, R44
		SMOVIL		-1, R45
		SADDA.M1		R45:R44,AR14,AR10
		SNOP		1
		SLDW		*AR10, R43
		SNOP		5
		SSHFLL		4, R43, R43
		SMOVIL		-836, R44
		SMOVIL		-1, R45
		SADDA.M1		R45:R44,AR14,AR10
		SNOP		1
		SSTW		R43, *AR10
		SMOVIL		-836, R44
		SMOVIL		-1, R45
		SADDA.M1		R45:R44,AR14,AR10
		SNOP		1
		SLDW		*AR10, R43
		SNOP		5
		SOR		R43, R42, R43
		SMOVIL		-836, R44
		SMOVIL		-1, R45
		SADDA.M1		R45:R44,AR14,AR10
		SNOP		1
		SSTW		R43, *AR10
		SMOVIL		-832, R42
		SMOVIL		-1, R43
		SADDA.M1		R43:R42,AR14,AR10
		SNOP		1
		SLDW		*AR10, R42
		SNOP		5
		SSHFLL		4, R42, R44
		SMOVIL		-840, R42
		SMOVIL		-1, R43
		SADDA.M1		R43:R42,AR14,AR10
		SNOP		1
		SSTW		R44, *AR10
		SMOVIL		8, R42
		SMOVIL		0, R43
		SMOVIL		-840, R46
		SMOVIL		-1, R47
		SADDA.M1		R47:R46,AR14,AR10
		SNOP		1
		SLDW		*AR10, R46
		SNOP		5
		SADD.M1		R42,R46,R44
		SMOVIL		-840, R48
		SMOVIL		-1, R49
		SADDA.M1		R49:R48,AR14,AR10
		SNOP		1
		SLDW		*AR10, R47
		SNOP		5
		SLTU		R44, R47, R46
		SMOVIL		-836, R48
		SMOVIL		-1, R49
		SADDA.M1		R49:R48,AR14,AR10
		SNOP		1
		SLDW		*AR10, R47
		SNOP		5
		SADD.M1		R43,R47,R45
		SADD.M1		R45,R46,R42
		SMOV.M1		R42, R45
		SMOVIL		-232, R42
		SMOVIL		-1, R43
		SMOVIL		-72, R48
		SMOVIL		-1, R49
		SADDA.M1		R49:R48,AR14,OR11
		SNOP		1
		SADDA.M1		R43:R42,OR11,OR11
		SNOP		1
		SMVAAGL.M1		OR11, R43:R42
		SNOP		1
		SMVAAGH.M1		OR11, R43:R42
		SNOP		1
	;no-op trunc di R45:R44 to pdi R45:R44
		SMVAGA36.M1		R43:R42, AR10
		SNOP		1
		SLDDW		*AR10, R43:R42
		SNOP		5
		SMVAGA36.M1		R43:R42, OR11
		SNOP		1
		SADDA.M1		R45:R44,OR11,OR11
		SNOP		1
		SMVAAGL.M1		OR11, R47:R46
		SNOP		1
		SMVAAGH.M1		OR11, R47:R46
		SNOP		1
		SMOVIL		-152, R42
		SMOVIL		-1, R43
		SMOVIL		-72, R48
		SMOVIL		-1, R49
		SADDA.M1		R49:R48,AR14,OR11
		SNOP		1
		SADDA.M1		R43:R42,OR11,OR11
		SNOP		1
		SMVAAGL.M1		OR11, R45:R44
		SNOP		1
		SMVAAGH.M1		OR11, R45:R44
		SNOP		1
		SMVAGA36.M1		R47:R46, AR10
		SNOP		1
		SLDDW		*AR10, R43:R42
		SNOP		5
		SMVAGA36.M1		R45:R44, AR10
		SNOP		1
		SSTDW		R43:R42, *AR10
	.loc 1 383 0 discriminator 2
		SMOVIL		-128, R42
		SMOVIL		-1, R43
		SMOVIL		-72, R46
		SMOVIL		-1, R47
		SADDA.M1		R47:R46,AR14,OR11
		SNOP		1
		SADDA.M1		R43:R42,OR11,OR11
		SNOP		1
		SMVAAGL.M1		OR11, R45:R44
		SNOP		1
		SMVAAGH.M1		OR11, R45:R44
		SNOP		1
		SMOVIL		-144, R42
		SMOVIL		-1, R43
		SMOVIL		-72, R46
		SMOVIL		-1, R47
		SADDA.M1		R47:R46,AR14,OR11
		SNOP		1
		SADDA.M1		R43:R42,OR11,OR11
		SNOP		1
		SMVAAGL.M1		OR11, R43:R42
		SNOP		1
		SMVAAGH.M1		OR11, R43:R42
		SNOP		1
		SMVAGA36.M1		R45:R44, AR10
		SNOP		1
		SLDDW		*AR10, R45:R44
		SNOP		5
		SMVAGA36.M1		R43:R42, AR10
		SNOP		1
		SLDDW		*AR10, R43:R42
		SNOP		5
		SFMULD.M1		R45:R44, R43:R42, R47:R46
		SNOP		5
		SMOVIL		-136, R42
		SMOVIL		-1, R43
		SMOVIL		-72, R48
		SMOVIL		-1, R49
		SADDA.M1		R49:R48,AR14,OR11
		SNOP		1
		SADDA.M1		R43:R42,OR11,OR11
		SNOP		1
		SMVAAGL.M1		OR11, R45:R44
		SNOP		1
		SMVAAGH.M1		OR11, R45:R44
		SNOP		1
		SMOVIL		-152, R42
		SMOVIL		-1, R43
		SMOVIL		-72, R48
		SMOVIL		-1, R49
		SADDA.M1		R49:R48,AR14,OR11
		SNOP		1
		SADDA.M1		R43:R42,OR11,OR11
		SNOP		1
		SMVAAGL.M1		OR11, R43:R42
		SNOP		1
		SMVAAGH.M1		OR11, R43:R42
		SNOP		1
		SMVAGA36.M1		R45:R44, AR10
		SNOP		1
		SLDDW		*AR10, R45:R44
		SNOP		5
		SMVAGA36.M1		R43:R42, AR10
		SNOP		1
		SLDDW		*AR10, R43:R42
		SNOP		5
		SFMULD.M1		R45:R44, R43:R42, R43:R42
		SNOP		5
		SFSUBD.M1	R43:R42, R47:R46, R45:R44
		SNOP		4
		SLDDW		*-AR14[11], R43:R42
		SNOP		5
		SFADDD.M1		R43:R42, R45:R44, R43:R42
		SNOP		4
		SSTDW		R43:R42, *-AR14[11]
	.loc 1 384 0 discriminator 2
		SMOVIL		-128, R42
		SMOVIL		-1, R43
		SMOVIL		-72, R46
		SMOVIL		-1, R47
		SADDA.M1		R47:R46,AR14,OR11
		SNOP		1
		SADDA.M1		R43:R42,OR11,OR11
		SNOP		1
		SMVAAGL.M1		OR11, R45:R44
		SNOP		1
		SMVAAGH.M1		OR11, R45:R44
		SNOP		1
		SMOVIL		-152, R42
		SMOVIL		-1, R43
		SMOVIL		-72, R46
		SMOVIL		-1, R47
		SADDA.M1		R47:R46,AR14,OR11
		SNOP		1
		SADDA.M1		R43:R42,OR11,OR11
		SNOP		1
		SMVAAGL.M1		OR11, R43:R42
		SNOP		1
		SMVAAGH.M1		OR11, R43:R42
		SNOP		1
		SMVAGA36.M1		R45:R44, AR10
		SNOP		1
		SLDDW		*AR10, R45:R44
		SNOP		5
		SMVAGA36.M1		R43:R42, AR10
		SNOP		1
		SLDDW		*AR10, R43:R42
		SNOP		5
		SFMULD.M1		R45:R44, R43:R42, R47:R46
		SNOP		5
		SMOVIL		-136, R42
		SMOVIL		-1, R43
		SMOVIL		-72, R48
		SMOVIL		-1, R49
		SADDA.M1		R49:R48,AR14,OR11
		SNOP		1
		SADDA.M1		R43:R42,OR11,OR11
		SNOP		1
		SMVAAGL.M1		OR11, R45:R44
		SNOP		1
		SMVAAGH.M1		OR11, R45:R44
		SNOP		1
		SMOVIL		-144, R42
		SMOVIL		-1, R43
		SMOVIL		-72, R48
		SMOVIL		-1, R49
		SADDA.M1		R49:R48,AR14,OR11
		SNOP		1
		SADDA.M1		R43:R42,OR11,OR11
		SNOP		1
		SMVAAGL.M1		OR11, R43:R42
		SNOP		1
		SMVAAGH.M1		OR11, R43:R42
		SNOP		1
		SMVAGA36.M1		R45:R44, AR10
		SNOP		1
		SLDDW		*AR10, R45:R44
		SNOP		5
		SMVAGA36.M1		R43:R42, AR10
		SNOP		1
		SLDDW		*AR10, R43:R42
		SNOP		5
		SFMULD.M1		R45:R44, R43:R42, R43:R42
		SNOP		5
		SFADDD.M1		R47:R46, R43:R42, R45:R44
		SNOP		4
		SLDDW		*-AR14[12], R43:R42
		SNOP		5
		SFADDD.M1		R43:R42, R45:R44, R43:R42
		SNOP		4
		SSTDW		R43:R42, *-AR14[12]
	.loc 1 377 0 discriminator 2
		SMOVIL		-72, R42
		SMOVIL		-1, R43
		SMOVIL		-72, R46
		SMOVIL		-1, R47
		SADDA.M1		R47:R46,AR14,OR11
		SNOP		1
		SADDA.M1		R43:R42,OR11,OR11
		SNOP		1
		SMVAAGL.M1		OR11, R45:R44
		SNOP		1
		SMVAAGH.M1		OR11, R45:R44
		SNOP		1
		SMOVIL		-72, R42
		SMOVIL		-1, R43
		SMOVIL		-72, R46
		SMOVIL		-1, R47
		SADDA.M1		R47:R46,AR14,OR11
		SNOP		1
		SADDA.M1		R43:R42,OR11,OR11
		SNOP		1
		SMVAAGL.M1		OR11, R43:R42
		SNOP		1
		SMVAAGH.M1		OR11, R43:R42
		SNOP		1
		SMVAGA36.M1		R43:R42, AR10
		SNOP		1
		SLDW		*AR10, R42
		SNOP		5
		SADD.M1		1,R42,R42
		SMVAGA36.M1		R45:R44, AR10
		SNOP		1
		SSTW		R42, *AR10
.L113:
	.loc 1 377 0 is_stmt 0 discriminator 1
		SMOVIL		-80, R44
		SMOVIL		-1, R45
		SADDA.M1		R45:R44,AR14,AR10
		SNOP		1
		SLDH		*AR10, R42
		SNOP		5
		SSHFLL		16, R42, R44
		SSHFLR		16, R44, R44
		SMOVIL		-72, R42
		SMOVIL		-1, R43
		SMOVIL		-72, R46
		SMOVIL		-1, R47
		SADDA.M1		R47:R46,AR14,OR11
		SNOP		1
		SADDA.M1		R43:R42,OR11,OR11
		SNOP		1
		SMVAAGL.M1		OR11, R43:R42
		SNOP		1
		SMVAAGH.M1		OR11, R43:R42
		SNOP		1
		SMVAGA36.M1		R43:R42, AR10
		SNOP		1
		SLDW		*AR10, R42
		SNOP		5
		SLT		R42, R44, R42
		SMOV.M1		R42, R0
	[R0]	SBR		.L114
		SNOP		6
	.loc 1 386 0 is_stmt 1
		SMOVIL		-68, R42
		SMOVIL		-1, R43
		SMOVIL		-72, R44
		SMOVIL		-1, R45
		SADDA.M1		R45:R44,AR14,OR11
		SNOP		1
		SADDA.M1		R43:R42,OR11,OR11
		SNOP		1
		SMVAAGL.M1		OR11, R43:R42
		SNOP		1
		SMVAAGH.M1		OR11, R43:R42
		SNOP		1
		SMVAGA36.M1		R43:R42, AR10
		SNOP		1
		SLDW		*AR10, R46
		SNOP		5
		SMOVIL		-848, R44
		SMOVIL		-1, R45
		SADDA.M1		R45:R44,AR14,AR10
		SNOP		1
		SSTW		R46, *AR10
		SMVAGA36.M1		R43:R42, AR10
		SNOP		1
		SLDW		*AR10, R42
		SNOP		5
		SSHFAR		31, R42, R42
		SMOVIL		-844, R44
		SMOVIL		-1, R45
		SADDA.M1		R45:R44,AR14,AR10
		SNOP		1
		SSTW		R42, *AR10
		SMOVIL		-848, R44
		SMOVIL		-1, R45
		SADDA.M1		R45:R44,AR14,AR10
		SNOP		1
		SLDW		*AR10, R43
		SNOP		5
		SSHFLR		28, R43, R42
		SMOVIL		-844, R44
		SMOVIL		-1, R45
		SADDA.M1		R45:R44,AR14,AR10
		SNOP		1
		SLDW		*AR10, R43
		SNOP		5
		SSHFLL		4, R43, R43
		SMOVIL		-852, R44
		SMOVIL		-1, R45
		SADDA.M1		R45:R44,AR14,AR10
		SNOP		1
		SSTW		R43, *AR10
		SMOVIL		-852, R44
		SMOVIL		-1, R45
		SADDA.M1		R45:R44,AR14,AR10
		SNOP		1
		SLDW		*AR10, R43
		SNOP		5
		SOR		R43, R42, R43
		SMOVIL		-852, R44
		SMOVIL		-1, R45
		SADDA.M1		R45:R44,AR14,AR10
		SNOP		1
		SSTW		R43, *AR10
		SMOVIL		-848, R42
		SMOVIL		-1, R43
		SADDA.M1		R43:R42,AR14,AR10
		SNOP		1
		SLDW		*AR10, R42
		SNOP		5
		SSHFLL		4, R42, R44
		SMOVIL		-856, R42
		SMOVIL		-1, R43
		SADDA.M1		R43:R42,AR14,AR10
		SNOP		1
		SSTW		R44, *AR10
		SMOVIL		-216, R42
		SMOVIL		-1, R43
		SMOVIL		-72, R44
		SMOVIL		-1, R45
		SADDA.M1		R45:R44,AR14,OR11
		SNOP		1
		SADDA.M1		R43:R42,OR11,OR11
		SNOP		1
		SMVAAGL.M1		OR11, R43:R42
		SNOP		1
		SMVAAGH.M1		OR11, R43:R42
		SNOP		1
		SMOVIL		-856, R46
		SMOVIL		-1, R47
		SADDA.M1		R47:R46,AR14,AR10
		SNOP		1
		SLDDW		*AR10, R45:R44
		SNOP		5
	;no-op trunc di R45:R44 to pdi R45:R44
		SMVAGA36.M1		R43:R42, AR10
		SNOP		1
		SLDDW		*AR10, R43:R42
		SNOP		5
		SMVAGA36.M1		R43:R42, OR11
		SNOP		1
		SADDA.M1		R45:R44,OR11,OR11
		SNOP		1
		SMVAAGL.M1		OR11, R43:R42
		SNOP		1
		SMVAAGH.M1		OR11, R43:R42
		SNOP		1
		SMVAGA36.M1		R43:R42, AR10
		SNOP		1
		SLDDW		*AR10, R45:R44
		SNOP		5
		SLDDW		*-AR14[11], R43:R42
		SNOP		5
		SFSUBD.M1	R43:R42, R45:R44, R43:R42
		SNOP		4
		SFABSD.M1		R43:R42, R43:R42
		SNOP		1
		SSTDW		R43:R42, *-AR14[13]
	.loc 1 387 0
		SLDDW		*-AR14[13], R45:R44
		SNOP		5
		SLDDW		*-AR14[15], R43:R42
		SNOP		5
		SFCMPGD.M1		R45:R44, R43:R42, R42
		SNOP		1
		SMOV.M1		R42, R0
	[!R0]	SBR		.L115
		SNOP		6
.L152:
	.loc 1 389 0
		SLDDW		*-AR14[13], R43:R42
		SNOP		5
		SSTDW		R43:R42, *-AR14[15]
.L115:
	.loc 1 391 0
		SMOVIL		-68, R42
		SMOVIL		-1, R43
		SMOVIL		-72, R44
		SMOVIL		-1, R45
		SADDA.M1		R45:R44,AR14,OR11
		SNOP		1
		SADDA.M1		R43:R42,OR11,OR11
		SNOP		1
		SMVAAGL.M1		OR11, R43:R42
		SNOP		1
		SMVAAGH.M1		OR11, R43:R42
		SNOP		1
		SMVAGA36.M1		R43:R42, AR10
		SNOP		1
		SLDW		*AR10, R46
		SNOP		5
		SMOVIL		-864, R44
		SMOVIL		-1, R45
		SADDA.M1		R45:R44,AR14,AR10
		SNOP		1
		SSTW		R46, *AR10
		SMVAGA36.M1		R43:R42, AR10
		SNOP		1
		SLDW		*AR10, R42
		SNOP		5
		SSHFAR		31, R42, R42
		SMOVIL		-860, R44
		SMOVIL		-1, R45
		SADDA.M1		R45:R44,AR14,AR10
		SNOP		1
		SSTW		R42, *AR10
		SMOVIL		-864, R44
		SMOVIL		-1, R45
		SADDA.M1		R45:R44,AR14,AR10
		SNOP		1
		SLDW		*AR10, R43
		SNOP		5
		SSHFLR		28, R43, R42
		SMOVIL		-860, R44
		SMOVIL		-1, R45
		SADDA.M1		R45:R44,AR14,AR10
		SNOP		1
		SLDW		*AR10, R43
		SNOP		5
		SSHFLL		4, R43, R43
		SMOVIL		-868, R44
		SMOVIL		-1, R45
		SADDA.M1		R45:R44,AR14,AR10
		SNOP		1
		SSTW		R43, *AR10
		SMOVIL		-868, R44
		SMOVIL		-1, R45
		SADDA.M1		R45:R44,AR14,AR10
		SNOP		1
		SLDW		*AR10, R43
		SNOP		5
		SOR		R43, R42, R43
		SMOVIL		-868, R44
		SMOVIL		-1, R45
		SADDA.M1		R45:R44,AR14,AR10
		SNOP		1
		SSTW		R43, *AR10
		SMOVIL		-864, R42
		SMOVIL		-1, R43
		SADDA.M1		R43:R42,AR14,AR10
		SNOP		1
		SLDW		*AR10, R42
		SNOP		5
		SSHFLL		4, R42, R44
		SMOVIL		-872, R42
		SMOVIL		-1, R43
		SADDA.M1		R43:R42,AR14,AR10
		SNOP		1
		SSTW		R44, *AR10
		SMOVIL		8, R42
		SMOVIL		0, R43
		SMOVIL		-872, R46
		SMOVIL		-1, R47
		SADDA.M1		R47:R46,AR14,AR10
		SNOP		1
		SLDW		*AR10, R46
		SNOP		5
		SADD.M1		R42,R46,R44
		SMOVIL		-872, R48
		SMOVIL		-1, R49
		SADDA.M1		R49:R48,AR14,AR10
		SNOP		1
		SLDW		*AR10, R47
		SNOP		5
		SLTU		R44, R47, R46
		SMOVIL		-868, R48
		SMOVIL		-1, R49
		SADDA.M1		R49:R48,AR14,AR10
		SNOP		1
		SLDW		*AR10, R47
		SNOP		5
		SADD.M1		R43,R47,R45
		SADD.M1		R45,R46,R42
		SMOV.M1		R42, R45
		SMOVIL		-216, R42
		SMOVIL		-1, R43
		SMOVIL		-72, R48
		SMOVIL		-1, R49
		SADDA.M1		R49:R48,AR14,OR11
		SNOP		1
		SADDA.M1		R43:R42,OR11,OR11
		SNOP		1
		SMVAAGL.M1		OR11, R43:R42
		SNOP		1
		SMVAAGH.M1		OR11, R43:R42
		SNOP		1
	;no-op trunc di R45:R44 to pdi R45:R44
		SMVAGA36.M1		R43:R42, AR10
		SNOP		1
		SLDDW		*AR10, R43:R42
		SNOP		5
		SMVAGA36.M1		R43:R42, OR11
		SNOP		1
		SADDA.M1		R45:R44,OR11,OR11
		SNOP		1
		SMVAAGL.M1		OR11, R43:R42
		SNOP		1
		SMVAAGH.M1		OR11, R43:R42
		SNOP		1
		SMVAGA36.M1		R43:R42, AR10
		SNOP		1
		SLDDW		*AR10, R45:R44
		SNOP		5
		SLDDW		*-AR14[12], R43:R42
		SNOP		5
		SFSUBD.M1	R43:R42, R45:R44, R47:R46
		SNOP		4
		SMOVIL		-160, R42
		SMOVIL		-1, R43
		SMOVIL		-72, R48
		SMOVIL		-1, R49
		SADDA.M1		R49:R48,AR14,OR11
		SNOP		1
		SADDA.M1		R43:R42,OR11,OR11
		SNOP		1
		SMVAAGL.M1		OR11, R45:R44
		SNOP		1
		SMVAAGH.M1		OR11, R45:R44
		SNOP		1
		SFABSD.M1		R47:R46, R43:R42
		SNOP		1
		SMVAGA36.M1		R45:R44, AR10
		SNOP		1
		SSTDW		R43:R42, *AR10
	.loc 1 392 0
		SMOVIL		-160, R42
		SMOVIL		-1, R43
		SMOVIL		-72, R44
		SMOVIL		-1, R45
		SADDA.M1		R45:R44,AR14,OR11
		SNOP		1
		SADDA.M1		R43:R42,OR11,OR11
		SNOP		1
		SMVAAGL.M1		OR11, R43:R42
		SNOP		1
		SMVAAGH.M1		OR11, R43:R42
		SNOP		1
		SMVAGA36.M1		R43:R42, AR10
		SNOP		1
		SLDDW		*AR10, R45:R44
		SNOP		5
		SLDDW		*-AR14[15], R43:R42
		SNOP		5
		SFCMPGD.M1		R45:R44, R43:R42, R42
		SNOP		1
		SMOV.M1		R42, R0
	[!R0]	SBR		.L117
		SNOP		6
.L153:
	.loc 1 394 0
		SMOVIL		-160, R42
		SMOVIL		-1, R43
		SMOVIL		-72, R44
		SMOVIL		-1, R45
		SADDA.M1		R45:R44,AR14,OR11
		SNOP		1
		SADDA.M1		R43:R42,OR11,OR11
		SNOP		1
		SMVAAGL.M1		OR11, R43:R42
		SNOP		1
		SMVAAGH.M1		OR11, R43:R42
		SNOP		1
		SMVAGA36.M1		R43:R42, AR10
		SNOP		1
		SLDDW		*AR10, R43:R42
		SNOP		5
		SSTDW		R43:R42, *-AR14[15]
.L117:
	.loc 1 396 0
		SLDDW		*-AR14[13], R45:R44
		SNOP		5
		SMOVIL		-184, R46
		SMOVIL		-1, R47
		SADDA.M1		R47:R46,AR14,AR10
		SNOP		1
		SLDDW		*AR10, R43:R42
		SNOP		5
		SFCMPGD.M1		R45:R44, R43:R42, R42
		SNOP		1
		SMOV.M1		R42, R0
	[!R0]	SBR		.L162
		SNOP		6
.L154:
	.loc 1 398 0
		SMOVIL		0, R42
		SMOVIL		-76, R44
		SMOVIL		-1, R45
		SADDA.M1		R45:R44,AR14,AR10
		SNOP		1
		SSTH		R42, *AR10
	.loc 1 399 0
		SMOVIL.L		.LC15, R42
		SMOVIH.L		.LC15, R42
		SMOVIH4.L		.LC15, R43
		SSTDW		R43:R42, *+AR15[1]
		SLDDW		*-AR14[13], R43:R42
		SNOP		5
		SSTDW		R43:R42, *+AR15[2]
		SMOVIL		-68, R42
		SMOVIL		-1, R43
		SMOVIL		-72, R44
		SMOVIL		-1, R45
		SADDA.M1		R45:R44,AR14,OR11
		SNOP		1
		SADDA.M1		R43:R42,OR11,OR11
		SNOP		1
		SMVAAGL.M1		OR11, R43:R42
		SNOP		1
		SMVAAGH.M1		OR11, R43:R42
		SNOP		1
		SMVAGA36.M1		R43:R42, AR10
		SNOP		1
		SLDW		*AR10, R42
		SNOP		5
		SSTW		R42, *+AR15[6]
		SMOVIL		-72, R42
		SMOVIL		-1, R43
		SMOVIL		-72, R44
		SMOVIL		-1, R45
		SADDA.M1		R45:R44,AR14,OR11
		SNOP		1
		SADDA.M1		R43:R42,OR11,OR11
		SNOP		1
		SMVAAGL.M1		OR11, R43:R42
		SNOP		1
		SMVAAGH.M1		OR11, R43:R42
		SNOP		1
		SMVAGA36.M1		R43:R42, AR10
		SNOP		1
		SLDW		*AR10, R42
		SNOP		5
		SSTW		R42, *+AR15[7]
		SBR		printf
		SMOVIL		.L188, R62
		SMOVIH		.L188, R62
		SMOVIH4.L		.L188, R63
		SNOP		4
.L188:
	.loc 1 400 0
		SBR		.L111
		SNOP		6
.L162:
	.loc 1 402 0
		SMOVIL		-160, R42
		SMOVIL		-1, R43
		SMOVIL		-72, R44
		SMOVIL		-1, R45
		SADDA.M1		R45:R44,AR14,OR11
		SNOP		1
		SADDA.M1		R43:R42,OR11,OR11
		SNOP		1
		SMVAAGL.M1		OR11, R43:R42
		SNOP		1
		SMVAAGH.M1		OR11, R43:R42
		SNOP		1
		SMVAGA36.M1		R43:R42, AR10
		SNOP		1
		SLDDW		*AR10, R45:R44
		SNOP		5
		SMOVIL		-184, R46
		SMOVIL		-1, R47
		SADDA.M1		R47:R46,AR14,AR10
		SNOP		1
		SLDDW		*AR10, R43:R42
		SNOP		5
		SFCMPGD.M1		R45:R44, R43:R42, R42
		SNOP		1
		SMOV.M1		R42, R0
	[!R0]	SBR		.L163
		SNOP		6
.L155:
	.loc 1 404 0
		SMOVIL		0, R42
		SMOVIL		-76, R44
		SMOVIL		-1, R45
		SADDA.M1		R45:R44,AR14,AR10
		SNOP		1
		SSTH		R42, *AR10
	.loc 1 405 0
		SMOVIL.L		.LC16, R42
		SMOVIH.L		.LC16, R42
		SMOVIH4.L		.LC16, R43
		SSTDW		R43:R42, *+AR15[1]
		SMOVIL		-160, R42
		SMOVIL		-1, R43
		SMOVIL		-72, R44
		SMOVIL		-1, R45
		SADDA.M1		R45:R44,AR14,OR11
		SNOP		1
		SADDA.M1		R43:R42,OR11,OR11
		SNOP		1
		SMVAAGL.M1		OR11, R43:R42
		SNOP		1
		SMVAAGH.M1		OR11, R43:R42
		SNOP		1
		SMVAGA36.M1		R43:R42, AR10
		SNOP		1
		SLDDW		*AR10, R43:R42
		SNOP		5
		SSTDW		R43:R42, *+AR15[2]
		SMOVIL		-68, R42
		SMOVIL		-1, R43
		SMOVIL		-72, R44
		SMOVIL		-1, R45
		SADDA.M1		R45:R44,AR14,OR11
		SNOP		1
		SADDA.M1		R43:R42,OR11,OR11
		SNOP		1
		SMVAAGL.M1		OR11, R43:R42
		SNOP		1
		SMVAAGH.M1		OR11, R43:R42
		SNOP		1
		SMVAGA36.M1		R43:R42, AR10
		SNOP		1
		SLDW		*AR10, R42
		SNOP		5
		SSTW		R42, *+AR15[6]
		SMOVIL		-72, R42
		SMOVIL		-1, R43
		SMOVIL		-72, R44
		SMOVIL		-1, R45
		SADDA.M1		R45:R44,AR14,OR11
		SNOP		1
		SADDA.M1		R43:R42,OR11,OR11
		SNOP		1
		SMVAAGL.M1		OR11, R43:R42
		SNOP		1
		SMVAAGH.M1		OR11, R43:R42
		SNOP		1
		SMVAGA36.M1		R43:R42, AR10
		SNOP		1
		SLDW		*AR10, R42
		SNOP		5
		SSTW		R42, *+AR15[7]
		SBR		printf
		SMOVIL		.L189, R62
		SMOVIH		.L189, R62
		SMOVIH4.L		.L189, R63
		SNOP		4
.L189:
	.loc 1 406 0
		SBR		.L111
		SNOP		6
.L163:
	.loc 1 373 0
		SMOVIL		-68, R42
		SMOVIL		-1, R43
		SMOVIL		-72, R46
		SMOVIL		-1, R47
		SADDA.M1		R47:R46,AR14,OR11
		SNOP		1
		SADDA.M1		R43:R42,OR11,OR11
		SNOP		1
		SMVAAGL.M1		OR11, R45:R44
		SNOP		1
		SMVAAGH.M1		OR11, R45:R44
		SNOP		1
		SMOVIL		-68, R42
		SMOVIL		-1, R43
		SMOVIL		-72, R46
		SMOVIL		-1, R47
		SADDA.M1		R47:R46,AR14,OR11
		SNOP		1
		SADDA.M1		R43:R42,OR11,OR11
		SNOP		1
		SMVAAGL.M1		OR11, R43:R42
		SNOP		1
		SMVAAGH.M1		OR11, R43:R42
		SNOP		1
		SMVAGA36.M1		R43:R42, AR10
		SNOP		1
		SLDW		*AR10, R42
		SNOP		5
		SADD.M1		1,R42,R42
		SMVAGA36.M1		R45:R44, AR10
		SNOP		1
		SSTW		R42, *AR10
.L112:
	.loc 1 373 0 is_stmt 0 discriminator 1
		SMOVIL		-78, R44
		SMOVIL		-1, R45
		SADDA.M1		R45:R44,AR14,AR10
		SNOP		1
		SLDH		*AR10, R42
		SNOP		5
		SSHFLL		16, R42, R44
		SSHFLR		16, R44, R44
		SMOVIL		-68, R42
		SMOVIL		-1, R43
		SMOVIL		-72, R46
		SMOVIL		-1, R47
		SADDA.M1		R47:R46,AR14,OR11
		SNOP		1
		SADDA.M1		R43:R42,OR11,OR11
		SNOP		1
		SMVAAGL.M1		OR11, R43:R42
		SNOP		1
		SMVAAGH.M1		OR11, R43:R42
		SNOP		1
		SMVAGA36.M1		R43:R42, AR10
		SNOP		1
		SLDW		*AR10, R42
		SNOP		5
		SLT		R42, R44, R42
		SMOV.M1		R42, R0
	[R0]	SBR		.L123
		SNOP		6
.L111:
	.loc 1 415 0 is_stmt 1
		SMOVIL		-78, R44
		SMOVIL		-1, R45
		SADDA.M1		R45:R44,AR14,AR10
		SNOP		1
		SLDH		*AR10, R42
		SNOP		5
		SSHFLL		16, R42, R53
		SSHFLR		16, R53, R53
		SMOVIL		-80, R44
		SMOVIL		-1, R45
		SADDA.M1		R45:R44,AR14,AR10
		SNOP		1
		SLDH		*AR10, R42
		SNOP		5
		SSHFLL		16, R42, R52
		SSHFLR		16, R52, R52
		SMOVIL		-116, R42
		SMOVIL		-1, R43
		SMOVIL		-72, R44
		SMOVIL		-1, R45
		SADDA.M1		R45:R44,AR14,OR11
		SNOP		1
		SADDA.M1		R43:R42,OR11,AR8
		SNOP		1
		SMOVIL		-164, R42
		SMOVIL		-1, R43
		SMOVIL		-72, R44
		SMOVIL		-1, R45
		SADDA.M1		R45:R44,AR14,OR11
		SNOP		1
		SADDA.M1		R43:R42,OR11,OR11
		SNOP		1
		SMVAAGL.M1		OR11, R51:R50
		SNOP		1
		SMVAAGH.M1		OR11, R51:R50
		SNOP		1
		SMOVIL		-168, R42
		SMOVIL		-1, R43
		SMOVIL		-72, R44
		SMOVIL		-1, R45
		SADDA.M1		R45:R44,AR14,OR11
		SNOP		1
		SADDA.M1		R43:R42,OR11,OR11
		SNOP		1
		SMVAAGL.M1		OR11, R47:R46
		SNOP		1
		SMVAAGH.M1		OR11, R47:R46
		SNOP		1
		SMOVIL		-184, R42
		SMOVIL		-1, R43
		SMOVIL		-72, R44
		SMOVIL		-1, R45
		SADDA.M1		R45:R44,AR14,OR11
		SNOP		1
		SADDA.M1		R43:R42,OR11,OR11
		SNOP		1
		SMVAAGL.M1		OR11, R49:R48
		SNOP		1
		SMVAAGH.M1		OR11, R49:R48
		SNOP		1
		SMOVIL		-192, R42
		SMOVIL		-1, R43
		SMOVIL		-72, R54
		SMOVIL		-1, R55
		SADDA.M1		R55:R54,AR14,OR11
		SNOP		1
		SADDA.M1		R43:R42,OR11,OR11
		SNOP		1
		SMVAAGL.M1		OR11, R45:R44
		SNOP		1
		SMVAAGH.M1		OR11, R45:R44
		SNOP		1
		SMOVIL		-200, R42
		SMOVIL		-1, R43
		SMOVIL		-72, R54
		SMOVIL		-1, R55
		SADDA.M1		R55:R54,AR14,OR11
		SNOP		1
		SADDA.M1		R43:R42,OR11,OR11
		SNOP		1
		SMVAAGL.M1		OR11, R43:R42
		SNOP		1
		SMVAAGH.M1		OR11, R43:R42
		SNOP		1
		SMVAGA36.M1		R51:R50, OR11
		SNOP		1
		SMVAAGL.M1		OR11, R11:R10
		SNOP		1
		SMVAAGH.M1		OR11, R11:R10
		SNOP		1
		SMVAGA36.M1		R47:R46, OR11
		SNOP		1
		SMVAAGL.M1		OR11, R13:R12
		SNOP		1
		SMVAAGH.M1		OR11, R13:R12
		SNOP		1
		SMOV.M1		R53, R14
		SMOV.M1		R52, R16
		SMVAGA36.M1		R49:R48, AR10
		SNOP		1
		SLDDW		*AR10, R19:R18
		SNOP		5
		SMVAGA36.M1		R45:R44, AR10
		SNOP		1
		SLDDW		*AR10, R21:R20
		SNOP		5
		SMVAGA36.M1		R43:R42, AR10
		SNOP		1
		SLDDW		*AR10, R23:R22
		SNOP		5
		SBR		DSPF_sp_qrd_inverse_cmplx_wrapper
		SMOVIL		.L190, R62
		SMOVIH		.L190, R62
		SMOVIH4.L		.L190, R63
		SNOP		4
.L190:
		SSTW		R10, *AR8
	.loc 1 416 0
		SMOVIL		-168, R42
		SMOVIL		-1, R43
		SMOVIL		-72, R44
		SMOVIL		-1, R45
		SADDA.M1		R45:R44,AR14,OR11
		SNOP		1
		SADDA.M1		R43:R42,OR11,OR11
		SNOP		1
		SMVAAGL.M1		OR11, R43:R42
		SNOP		1
		SMVAAGH.M1		OR11, R43:R42
		SNOP		1
		SMVAGA36.M1		R43:R42, AR10
		SNOP		1
		SLDW		*AR10, R44
		SNOP		5
		SMOVIL		-164, R42
		SMOVIL		-1, R43
		SMOVIL		-72, R46
		SMOVIL		-1, R47
		SADDA.M1		R47:R46,AR14,OR11
		SNOP		1
		SADDA.M1		R43:R42,OR11,OR11
		SNOP		1
		SMVAAGL.M1		OR11, R43:R42
		SNOP		1
		SMVAAGH.M1		OR11, R43:R42
		SNOP		1
		SMVAGA36.M1		R43:R42, AR10
		SNOP		1
		SLDW		*AR10, R42
		SNOP		5
		SSUB.M1		R42, R44, R45
		SMOVIL		-104, R42
		SMOVIL		-1, R43
		SMOVIL		-72, R46
		SMOVIL		-1, R47
		SADDA.M1		R47:R46,AR14,OR11
		SNOP		1
		SADDA.M1		R43:R42,OR11,OR11
		SNOP		1
		SMVAAGL.M1		OR11, R43:R42
		SNOP		1
		SMVAAGH.M1		OR11, R43:R42
		SNOP		1
		SMVAGA36.M1		R43:R42, AR10
		SNOP		1
		SLDW		*AR10, R44
		SNOP		5
		SMOVIL		-88, R42
		SMOVIL		-1, R43
		SMOVIL		-72, R46
		SMOVIL		-1, R47
		SADDA.M1		R47:R46,AR14,OR11
		SNOP		1
		SADDA.M1		R43:R42,OR11,OR11
		SNOP		1
		SMVAAGL.M1		OR11, R43:R42
		SNOP		1
		SMVAAGH.M1		OR11, R43:R42
		SNOP		1
		SSUB.M1		R44, R45, R44
		SMVAGA36.M1		R43:R42, AR10
		SNOP		1
		SSTW		R44, *AR10
	.loc 1 421 0
		SMOVIL		-92, R42
		SMOVIL		-1, R43
		SMOVIL		-72, R44
		SMOVIL		-1, R45
		SADDA.M1		R45:R44,AR14,OR11
		SNOP		1
		SADDA.M1		R43:R42,OR11,OR11
		SNOP		1
		SMVAAGL.M1		OR11, R43:R42
		SNOP		1
		SMVAAGH.M1		OR11, R43:R42
		SNOP		1
		SMVAGA36.M1		R43:R42, AR10
		SNOP		1
		SLDW		*AR10, R42
		SNOP		5
		SMOV.M1		R42, R0
	[!R0]	SBR		.L109
		SNOP		6
	.loc 1 423 0
		SMOVIL		0, R42
		SMOVIL		0, R43
		SMOVIL		-128, R44
		SMOVIL		-1, R45
		SADDA.M1		R45:R44,AR14,AR10
		SNOP		1
		SSTDW		R43:R42, *AR10
	.loc 1 424 0
		SMOVIL		-68, R42
		SMOVIL		-1, R43
		SMOVIL		-72, R44
		SMOVIL		-1, R45
		SADDA.M1		R45:R44,AR14,OR11
		SNOP		1
		SADDA.M1		R43:R42,OR11,OR11
		SNOP		1
		SMVAAGL.M1		OR11, R43:R42
		SNOP		1
		SMVAAGH.M1		OR11, R43:R42
		SNOP		1
		SMOVIL		0, R44
		SMVAGA36.M1		R43:R42, AR10
		SNOP		1
		SSTW		R44, *AR10
		SBR		.L124
		SNOP		6
.L140:
	.loc 1 426 0
		SMOVIL		-72, R42
		SMOVIL		-1, R43
		SMOVIL		-72, R44
		SMOVIL		-1, R45
		SADDA.M1		R45:R44,AR14,OR11
		SNOP		1
		SADDA.M1		R43:R42,OR11,OR11
		SNOP		1
		SMVAAGL.M1		OR11, R43:R42
		SNOP		1
		SMVAAGH.M1		OR11, R43:R42
		SNOP		1
		SMOVIL		0, R44
		SMVAGA36.M1		R43:R42, AR10
		SNOP		1
		SSTW		R44, *AR10
		SBR		.L125
		SNOP		6
.L139:
	.loc 1 428 0
		SMOVIL		0, R42
		SMOVIL		0, R43
		SSTDW		R43:R42, *-AR14[11]
	.loc 1 429 0
		SMOVIL		0, R42
		SMOVIL		0, R43
		SSTDW		R43:R42, *-AR14[12]
	.loc 1 430 0
		SMOVIL		-76, R42
		SMOVIL		-1, R43
		SMOVIL		-72, R44
		SMOVIL		-1, R45
		SADDA.M1		R45:R44,AR14,OR11
		SNOP		1
		SADDA.M1		R43:R42,OR11,OR11
		SNOP		1
		SMVAAGL.M1		OR11, R43:R42
		SNOP		1
		SMVAAGH.M1		OR11, R43:R42
		SNOP		1
		SMOVIL		0, R44
		SMVAGA36.M1		R43:R42, AR10
		SNOP		1
		SSTW		R44, *AR10
		SBR		.L126
		SNOP		6
.L127:
	.loc 1 432 0 discriminator 2
		SMOVIL		-76, R42
		SMOVIL		-1, R43
		SMOVIL		-72, R44
		SMOVIL		-1, R45
		SADDA.M1		R45:R44,AR14,OR11
		SNOP		1
		SADDA.M1		R43:R42,OR11,OR11
		SNOP		1
		SMVAAGL.M1		OR11, R43:R42
		SNOP		1
		SMVAAGH.M1		OR11, R43:R42
		SNOP		1
		SMVAGA36.M1		R43:R42, AR10
		SNOP		1
		SLDW		*AR10, R46
		SNOP		5
		SMOVIL		-880, R44
		SMOVIL		-1, R45
		SADDA.M1		R45:R44,AR14,AR10
		SNOP		1
		SSTW		R46, *AR10
		SMVAGA36.M1		R43:R42, AR10
		SNOP		1
		SLDW		*AR10, R42
		SNOP		5
		SSHFAR		31, R42, R42
		SMOVIL		-876, R44
		SMOVIL		-1, R45
		SADDA.M1		R45:R44,AR14,AR10
		SNOP		1
		SSTW		R42, *AR10
		SMOVIL		-68, R42
		SMOVIL		-1, R43
		SMOVIL		-72, R44
		SMOVIL		-1, R45
		SADDA.M1		R45:R44,AR14,OR11
		SNOP		1
		SADDA.M1		R43:R42,OR11,OR11
		SNOP		1
		SMVAAGL.M1		OR11, R43:R42
		SNOP		1
		SMVAAGH.M1		OR11, R43:R42
		SNOP		1
		SMVAGA36.M1		R43:R42, AR10
		SNOP		1
		SLDW		*AR10, R46
		SNOP		5
		SMOVIL		-888, R44
		SMOVIL		-1, R45
		SADDA.M1		R45:R44,AR14,AR10
		SNOP		1
		SSTW		R46, *AR10
		SMVAGA36.M1		R43:R42, AR10
		SNOP		1
		SLDW		*AR10, R42
		SNOP		5
		SSHFAR		31, R42, R42
		SMOVIL		-884, R44
		SMOVIL		-1, R45
		SADDA.M1		R45:R44,AR14,AR10
		SNOP		1
		SSTW		R42, *AR10
		SMOVIL		-80, R44
		SMOVIL		-1, R45
		SADDA.M1		R45:R44,AR14,AR10
		SNOP		1
		SLDH		*AR10, R42
		SNOP		5
		SSHFLL		16, R42, R42
		SSHFLR		16, R42, R42
		SMOVIL		-896, R44
		SMOVIL		-1, R45
		SADDA.M1		R45:R44,AR14,AR10
		SNOP		1
		SSTW		R42, *AR10
		SMOVIL		0, R44
		SMOVIL		-892, R42
		SMOVIL		-1, R43
		SADDA.M1		R43:R42,AR14,AR10
		SNOP		1
		SSTW		R44, *AR10
		SMOVIL		-884, R44
		SMOVIL		-1, R45
		SADDA.M1		R45:R44,AR14,AR10
		SNOP		1
		SLDW		*AR10, R42
		SNOP		5
		SMOVIL		-896, R44
		SMOVIL		-1, R45
		SADDA.M1		R45:R44,AR14,AR10
		SNOP		1
		SLDW		*AR10, R44
		SNOP		5
		SMULIS.M1		R44,R42,R43
		SNOP		2
		SMOVIL		-892, R44
		SMOVIL		-1, R45
		SADDA.M1		R45:R44,AR14,AR10
		SNOP		1
		SLDW		*AR10, R46
		SNOP		5
		SMOVIL		-888, R44
		SMOVIL		-1, R45
		SADDA.M1		R45:R44,AR14,AR10
		SNOP		1
		SLDW		*AR10, R44
		SNOP		5
		SMULIS.M1		R44,R46,R42
		SNOP		2
		SADD.M1		R42,R43,R44
		SMOVIL		-888, R46
		SMOVIL		-1, R47
		SADDA.M1		R47:R46,AR14,AR10
		SNOP		1
		SLDW		*AR10, R45
		SNOP		5
		SMOVIL		-896, R46
		SMOVIL		-1, R47
		SADDA.M1		R47:R46,AR14,AR10
		SNOP		1
		SLDW		*AR10, R46
		SNOP		5
		SMULU.M1		R46,R45,R43:R42
		SNOP		3
		SADD.M1		R43,R44,R44
		SMOV.M1		R44, R43
		SMOVIL		-880, R46
		SMOVIL		-1, R47
		SADDA.M1		R47:R46,AR14,AR10
		SNOP		1
		SLDW		*AR10, R46
		SNOP		5
		SADD.M1		R42,R46,R44
		SMOVIL		-880, R48
		SMOVIL		-1, R49
		SADDA.M1		R49:R48,AR14,AR10
		SNOP		1
		SLDW		*AR10, R47
		SNOP		5
		SLTU		R44, R47, R46
		SMOVIL		-876, R48
		SMOVIL		-1, R49
		SADDA.M1		R49:R48,AR14,AR10
		SNOP		1
		SLDW		*AR10, R47
		SNOP		5
		SADD.M1		R43,R47,R45
		SADD.M1		R45,R46,R42
		SMOV.M1		R42, R45
		SMOV.M1		R44, R42
		SMOV.M1		R45, R43
		SSHFLR		28, R42, R44
		SSHFLL		4, R43, R45
		SMOVIL		-900, R46
		SMOVIL		-1, R47
		SADDA.M1		R47:R46,AR14,AR10
		SNOP		1
		SSTW		R45, *AR10
		SMOVIL		-900, R46
		SMOVIL		-1, R47
		SADDA.M1		R47:R46,AR14,AR10
		SNOP		1
		SLDW		*AR10, R45
		SNOP		5
		SOR		R45, R44, R45
		SMOVIL		-900, R46
		SMOVIL		-1, R47
		SADDA.M1		R47:R46,AR14,AR10
		SNOP		1
		SSTW		R45, *AR10
		SSHFLL		4, R42, R46
		SMOVIL		-904, R44
		SMOVIL		-1, R45
		SADDA.M1		R45:R44,AR14,AR10
		SNOP		1
		SSTW		R46, *AR10
		SMOVIL		-200, R42
		SMOVIL		-1, R43
		SMOVIL		-72, R48
		SMOVIL		-1, R49
		SADDA.M1		R49:R48,AR14,OR11
		SNOP		1
		SADDA.M1		R43:R42,OR11,OR11
		SNOP		1
		SMVAAGL.M1		OR11, R43:R42
		SNOP		1
		SMVAAGH.M1		OR11, R43:R42
		SNOP		1
		SMOVIL		-904, R46
		SMOVIL		-1, R47
		SADDA.M1		R47:R46,AR14,AR10
		SNOP		1
		SLDDW		*AR10, R45:R44
		SNOP		5
	;no-op trunc di R45:R44 to pdi R45:R44
		SMVAGA36.M1		R43:R42, AR10
		SNOP		1
		SLDDW		*AR10, R43:R42
		SNOP		5
		SMVAGA36.M1		R43:R42, OR11
		SNOP		1
		SADDA.M1		R45:R44,OR11,OR11
		SNOP		1
		SMVAAGL.M1		OR11, R47:R46
		SNOP		1
		SMVAAGH.M1		OR11, R47:R46
		SNOP		1
		SMOVIL		-128, R42
		SMOVIL		-1, R43
		SMOVIL		-72, R48
		SMOVIL		-1, R49
		SADDA.M1		R49:R48,AR14,OR11
		SNOP		1
		SADDA.M1		R43:R42,OR11,OR11
		SNOP		1
		SMVAAGL.M1		OR11, R45:R44
		SNOP		1
		SMVAAGH.M1		OR11, R45:R44
		SNOP		1
		SMVAGA36.M1		R47:R46, AR10
		SNOP		1
		SLDDW		*AR10, R43:R42
		SNOP		5
		SMVAGA36.M1		R45:R44, AR10
		SNOP		1
		SSTDW		R43:R42, *AR10
	.loc 1 433 0 discriminator 2
		SMOVIL		-76, R42
		SMOVIL		-1, R43
		SMOVIL		-72, R44
		SMOVIL		-1, R45
		SADDA.M1		R45:R44,AR14,OR11
		SNOP		1
		SADDA.M1		R43:R42,OR11,OR11
		SNOP		1
		SMVAAGL.M1		OR11, R43:R42
		SNOP		1
		SMVAAGH.M1		OR11, R43:R42
		SNOP		1
		SMVAGA36.M1		R43:R42, AR10
		SNOP		1
		SLDW		*AR10, R46
		SNOP		5
		SMOVIL		-912, R44
		SMOVIL		-1, R45
		SADDA.M1		R45:R44,AR14,AR10
		SNOP		1
		SSTW		R46, *AR10
		SMVAGA36.M1		R43:R42, AR10
		SNOP		1
		SLDW		*AR10, R42
		SNOP		5
		SSHFAR		31, R42, R42
		SMOVIL		-908, R44
		SMOVIL		-1, R45
		SADDA.M1		R45:R44,AR14,AR10
		SNOP		1
		SSTW		R42, *AR10
		SMOVIL		-68, R42
		SMOVIL		-1, R43
		SMOVIL		-72, R44
		SMOVIL		-1, R45
		SADDA.M1		R45:R44,AR14,OR11
		SNOP		1
		SADDA.M1		R43:R42,OR11,OR11
		SNOP		1
		SMVAAGL.M1		OR11, R43:R42
		SNOP		1
		SMVAAGH.M1		OR11, R43:R42
		SNOP		1
		SMVAGA36.M1		R43:R42, AR10
		SNOP		1
		SLDW		*AR10, R46
		SNOP		5
		SMOVIL		-920, R44
		SMOVIL		-1, R45
		SADDA.M1		R45:R44,AR14,AR10
		SNOP		1
		SSTW		R46, *AR10
		SMVAGA36.M1		R43:R42, AR10
		SNOP		1
		SLDW		*AR10, R42
		SNOP		5
		SSHFAR		31, R42, R42
		SMOVIL		-916, R44
		SMOVIL		-1, R45
		SADDA.M1		R45:R44,AR14,AR10
		SNOP		1
		SSTW		R42, *AR10
		SMOVIL		-80, R44
		SMOVIL		-1, R45
		SADDA.M1		R45:R44,AR14,AR10
		SNOP		1
		SLDH		*AR10, R42
		SNOP		5
		SSHFLL		16, R42, R42
		SSHFLR		16, R42, R42
		SMOVIL		-928, R44
		SMOVIL		-1, R45
		SADDA.M1		R45:R44,AR14,AR10
		SNOP		1
		SSTW		R42, *AR10
		SMOVIL		0, R44
		SMOVIL		-924, R42
		SMOVIL		-1, R43
		SADDA.M1		R43:R42,AR14,AR10
		SNOP		1
		SSTW		R44, *AR10
		SMOVIL		-916, R44
		SMOVIL		-1, R45
		SADDA.M1		R45:R44,AR14,AR10
		SNOP		1
		SLDW		*AR10, R42
		SNOP		5
		SMOVIL		-928, R44
		SMOVIL		-1, R45
		SADDA.M1		R45:R44,AR14,AR10
		SNOP		1
		SLDW		*AR10, R44
		SNOP		5
		SMULIS.M1		R44,R42,R43
		SNOP		2
		SMOVIL		-924, R44
		SMOVIL		-1, R45
		SADDA.M1		R45:R44,AR14,AR10
		SNOP		1
		SLDW		*AR10, R46
		SNOP		5
		SMOVIL		-920, R44
		SMOVIL		-1, R45
		SADDA.M1		R45:R44,AR14,AR10
		SNOP		1
		SLDW		*AR10, R44
		SNOP		5
		SMULIS.M1		R44,R46,R42
		SNOP		2
		SADD.M1		R42,R43,R44
		SMOVIL		-920, R46
		SMOVIL		-1, R47
		SADDA.M1		R47:R46,AR14,AR10
		SNOP		1
		SLDW		*AR10, R45
		SNOP		5
		SMOVIL		-928, R46
		SMOVIL		-1, R47
		SADDA.M1		R47:R46,AR14,AR10
		SNOP		1
		SLDW		*AR10, R46
		SNOP		5
		SMULU.M1		R46,R45,R43:R42
		SNOP		3
		SADD.M1		R43,R44,R44
		SMOV.M1		R44, R43
		SMOVIL		-912, R46
		SMOVIL		-1, R47
		SADDA.M1		R47:R46,AR14,AR10
		SNOP		1
		SLDW		*AR10, R46
		SNOP		5
		SADD.M1		R42,R46,R44
		SMOVIL		-912, R48
		SMOVIL		-1, R49
		SADDA.M1		R49:R48,AR14,AR10
		SNOP		1
		SLDW		*AR10, R47
		SNOP		5
		SLTU		R44, R47, R46
		SMOVIL		-908, R48
		SMOVIL		-1, R49
		SADDA.M1		R49:R48,AR14,AR10
		SNOP		1
		SLDW		*AR10, R47
		SNOP		5
		SADD.M1		R43,R47,R45
		SADD.M1		R45,R46,R42
		SMOV.M1		R42, R45
		SMOV.M1		R44, R42
		SMOV.M1		R45, R43
		SSHFLR		28, R42, R44
		SSHFLL		4, R43, R45
		SMOVIL		-932, R46
		SMOVIL		-1, R47
		SADDA.M1		R47:R46,AR14,AR10
		SNOP		1
		SSTW		R45, *AR10
		SMOVIL		-932, R46
		SMOVIL		-1, R47
		SADDA.M1		R47:R46,AR14,AR10
		SNOP		1
		SLDW		*AR10, R45
		SNOP		5
		SOR		R45, R44, R45
		SMOVIL		-932, R46
		SMOVIL		-1, R47
		SADDA.M1		R47:R46,AR14,AR10
		SNOP		1
		SSTW		R45, *AR10
		SSHFLL		4, R42, R46
		SMOVIL		-936, R44
		SMOVIL		-1, R45
		SADDA.M1		R45:R44,AR14,AR10
		SNOP		1
		SSTW		R46, *AR10
		SMOVIL		8, R42
		SMOVIL		0, R43
		SMOVIL		-936, R46
		SMOVIL		-1, R47
		SADDA.M1		R47:R46,AR14,AR10
		SNOP		1
		SLDW		*AR10, R46
		SNOP		5
		SADD.M1		R42,R46,R44
		SMOVIL		-936, R48
		SMOVIL		-1, R49
		SADDA.M1		R49:R48,AR14,AR10
		SNOP		1
		SLDW		*AR10, R47
		SNOP		5
		SLTU		R44, R47, R46
		SMOVIL		-932, R48
		SMOVIL		-1, R49
		SADDA.M1		R49:R48,AR14,AR10
		SNOP		1
		SLDW		*AR10, R47
		SNOP		5
		SADD.M1		R43,R47,R45
		SADD.M1		R45,R46,R42
		SMOV.M1		R42, R45
		SMOVIL		-200, R42
		SMOVIL		-1, R43
		SMOVIL		-72, R48
		SMOVIL		-1, R49
		SADDA.M1		R49:R48,AR14,OR11
		SNOP		1
		SADDA.M1		R43:R42,OR11,OR11
		SNOP		1
		SMVAAGL.M1		OR11, R43:R42
		SNOP		1
		SMVAAGH.M1		OR11, R43:R42
		SNOP		1
	;no-op trunc di R45:R44 to pdi R45:R44
		SMVAGA36.M1		R43:R42, AR10
		SNOP		1
		SLDDW		*AR10, R43:R42
		SNOP		5
		SMVAGA36.M1		R43:R42, OR11
		SNOP		1
		SADDA.M1		R45:R44,OR11,OR11
		SNOP		1
		SMVAAGL.M1		OR11, R47:R46
		SNOP		1
		SMVAAGH.M1		OR11, R47:R46
		SNOP		1
		SMOVIL		-136, R42
		SMOVIL		-1, R43
		SMOVIL		-72, R48
		SMOVIL		-1, R49
		SADDA.M1		R49:R48,AR14,OR11
		SNOP		1
		SADDA.M1		R43:R42,OR11,OR11
		SNOP		1
		SMVAAGL.M1		OR11, R45:R44
		SNOP		1
		SMVAAGH.M1		OR11, R45:R44
		SNOP		1
		SMVAGA36.M1		R47:R46, AR10
		SNOP		1
		SLDDW		*AR10, R43:R42
		SNOP		5
		SMVAGA36.M1		R45:R44, AR10
		SNOP		1
		SSTDW		R43:R42, *AR10
	.loc 1 434 0 discriminator 2
		SMOVIL		-72, R42
		SMOVIL		-1, R43
		SMOVIL		-72, R44
		SMOVIL		-1, R45
		SADDA.M1		R45:R44,AR14,OR11
		SNOP		1
		SADDA.M1		R43:R42,OR11,OR11
		SNOP		1
		SMVAAGL.M1		OR11, R43:R42
		SNOP		1
		SMVAAGH.M1		OR11, R43:R42
		SNOP		1
		SMVAGA36.M1		R43:R42, AR10
		SNOP		1
		SLDW		*AR10, R46
		SNOP		5
		SMOVIL		-944, R44
		SMOVIL		-1, R45
		SADDA.M1		R45:R44,AR14,AR10
		SNOP		1
		SSTW		R46, *AR10
		SMVAGA36.M1		R43:R42, AR10
		SNOP		1
		SLDW		*AR10, R42
		SNOP		5
		SSHFAR		31, R42, R42
		SMOVIL		-940, R44
		SMOVIL		-1, R45
		SADDA.M1		R45:R44,AR14,AR10
		SNOP		1
		SSTW		R42, *AR10
		SMOVIL		-76, R42
		SMOVIL		-1, R43
		SMOVIL		-72, R44
		SMOVIL		-1, R45
		SADDA.M1		R45:R44,AR14,OR11
		SNOP		1
		SADDA.M1		R43:R42,OR11,OR11
		SNOP		1
		SMVAAGL.M1		OR11, R43:R42
		SNOP		1
		SMVAAGH.M1		OR11, R43:R42
		SNOP		1
		SMVAGA36.M1		R43:R42, AR10
		SNOP		1
		SLDW		*AR10, R46
		SNOP		5
		SMOVIL		-952, R44
		SMOVIL		-1, R45
		SADDA.M1		R45:R44,AR14,AR10
		SNOP		1
		SSTW		R46, *AR10
		SMVAGA36.M1		R43:R42, AR10
		SNOP		1
		SLDW		*AR10, R42
		SNOP		5
		SSHFAR		31, R42, R42
		SMOVIL		-948, R44
		SMOVIL		-1, R45
		SADDA.M1		R45:R44,AR14,AR10
		SNOP		1
		SSTW		R42, *AR10
		SMOVIL		-80, R44
		SMOVIL		-1, R45
		SADDA.M1		R45:R44,AR14,AR10
		SNOP		1
		SLDH		*AR10, R42
		SNOP		5
		SSHFLL		16, R42, R42
		SSHFLR		16, R42, R42
		SMOVIL		-960, R44
		SMOVIL		-1, R45
		SADDA.M1		R45:R44,AR14,AR10
		SNOP		1
		SSTW		R42, *AR10
		SMOVIL		0, R44
		SMOVIL		-956, R42
		SMOVIL		-1, R43
		SADDA.M1		R43:R42,AR14,AR10
		SNOP		1
		SSTW		R44, *AR10
		SMOVIL		-948, R44
		SMOVIL		-1, R45
		SADDA.M1		R45:R44,AR14,AR10
		SNOP		1
		SLDW		*AR10, R42
		SNOP		5
		SMOVIL		-960, R44
		SMOVIL		-1, R45
		SADDA.M1		R45:R44,AR14,AR10
		SNOP		1
		SLDW		*AR10, R44
		SNOP		5
		SMULIS.M1		R44,R42,R43
		SNOP		2
		SMOVIL		-956, R44
		SMOVIL		-1, R45
		SADDA.M1		R45:R44,AR14,AR10
		SNOP		1
		SLDW		*AR10, R46
		SNOP		5
		SMOVIL		-952, R44
		SMOVIL		-1, R45
		SADDA.M1		R45:R44,AR14,AR10
		SNOP		1
		SLDW		*AR10, R44
		SNOP		5
		SMULIS.M1		R44,R46,R42
		SNOP		2
		SADD.M1		R42,R43,R44
		SMOVIL		-952, R46
		SMOVIL		-1, R47
		SADDA.M1		R47:R46,AR14,AR10
		SNOP		1
		SLDW		*AR10, R45
		SNOP		5
		SMOVIL		-960, R46
		SMOVIL		-1, R47
		SADDA.M1		R47:R46,AR14,AR10
		SNOP		1
		SLDW		*AR10, R46
		SNOP		5
		SMULU.M1		R46,R45,R43:R42
		SNOP		3
		SADD.M1		R43,R44,R44
		SMOV.M1		R44, R43
		SMOVIL		-944, R46
		SMOVIL		-1, R47
		SADDA.M1		R47:R46,AR14,AR10
		SNOP		1
		SLDW		*AR10, R46
		SNOP		5
		SADD.M1		R42,R46,R44
		SMOVIL		-944, R48
		SMOVIL		-1, R49
		SADDA.M1		R49:R48,AR14,AR10
		SNOP		1
		SLDW		*AR10, R47
		SNOP		5
		SLTU		R44, R47, R46
		SMOVIL		-940, R48
		SMOVIL		-1, R49
		SADDA.M1		R49:R48,AR14,AR10
		SNOP		1
		SLDW		*AR10, R47
		SNOP		5
		SADD.M1		R43,R47,R45
		SADD.M1		R45,R46,R42
		SMOV.M1		R42, R45
		SMOV.M1		R44, R42
		SMOV.M1		R45, R43
		SSHFLR		28, R42, R44
		SSHFLL		4, R43, R45
		SMOVIL		-964, R46
		SMOVIL		-1, R47
		SADDA.M1		R47:R46,AR14,AR10
		SNOP		1
		SSTW		R45, *AR10
		SMOVIL		-964, R46
		SMOVIL		-1, R47
		SADDA.M1		R47:R46,AR14,AR10
		SNOP		1
		SLDW		*AR10, R45
		SNOP		5
		SOR		R45, R44, R45
		SMOVIL		-964, R46
		SMOVIL		-1, R47
		SADDA.M1		R47:R46,AR14,AR10
		SNOP		1
		SSTW		R45, *AR10
		SSHFLL		4, R42, R46
		SMOVIL		-968, R44
		SMOVIL		-1, R45
		SADDA.M1		R45:R44,AR14,AR10
		SNOP		1
		SSTW		R46, *AR10
		SMOVIL		-176, R42
		SMOVIL		-1, R43
		SMOVIL		-72, R48
		SMOVIL		-1, R49
		SADDA.M1		R49:R48,AR14,OR11
		SNOP		1
		SADDA.M1		R43:R42,OR11,OR11
		SNOP		1
		SMVAAGL.M1		OR11, R43:R42
		SNOP		1
		SMVAAGH.M1		OR11, R43:R42
		SNOP		1
		SMOVIL		-968, R46
		SMOVIL		-1, R47
		SADDA.M1		R47:R46,AR14,AR10
		SNOP		1
		SLDDW		*AR10, R45:R44
		SNOP		5
	;no-op trunc di R45:R44 to pdi R45:R44
		SMVAGA36.M1		R43:R42, AR10
		SNOP		1
		SLDDW		*AR10, R43:R42
		SNOP		5
		SMVAGA36.M1		R43:R42, OR11
		SNOP		1
		SADDA.M1		R45:R44,OR11,OR11
		SNOP		1
		SMVAAGL.M1		OR11, R47:R46
		SNOP		1
		SMVAAGH.M1		OR11, R47:R46
		SNOP		1
		SMOVIL		-144, R42
		SMOVIL		-1, R43
		SMOVIL		-72, R48
		SMOVIL		-1, R49
		SADDA.M1		R49:R48,AR14,OR11
		SNOP		1
		SADDA.M1		R43:R42,OR11,OR11
		SNOP		1
		SMVAAGL.M1		OR11, R45:R44
		SNOP		1
		SMVAAGH.M1		OR11, R45:R44
		SNOP		1
		SMVAGA36.M1		R47:R46, AR10
		SNOP		1
		SLDDW		*AR10, R43:R42
		SNOP		5
		SMVAGA36.M1		R45:R44, AR10
		SNOP		1
		SSTDW		R43:R42, *AR10
	.loc 1 435 0 discriminator 2
		SMOVIL		-72, R42
		SMOVIL		-1, R43
		SMOVIL		-72, R44
		SMOVIL		-1, R45
		SADDA.M1		R45:R44,AR14,OR11
		SNOP		1
		SADDA.M1		R43:R42,OR11,OR11
		SNOP		1
		SMVAAGL.M1		OR11, R43:R42
		SNOP		1
		SMVAAGH.M1		OR11, R43:R42
		SNOP		1
		SMVAGA36.M1		R43:R42, AR10
		SNOP		1
		SLDW		*AR10, R46
		SNOP		5
		SMOVIL		-976, R44
		SMOVIL		-1, R45
		SADDA.M1		R45:R44,AR14,AR10
		SNOP		1
		SSTW		R46, *AR10
		SMVAGA36.M1		R43:R42, AR10
		SNOP		1
		SLDW		*AR10, R42
		SNOP		5
		SSHFAR		31, R42, R42
		SMOVIL		-972, R44
		SMOVIL		-1, R45
		SADDA.M1		R45:R44,AR14,AR10
		SNOP		1
		SSTW		R42, *AR10
		SMOVIL		-76, R42
		SMOVIL		-1, R43
		SMOVIL		-72, R44
		SMOVIL		-1, R45
		SADDA.M1		R45:R44,AR14,OR11
		SNOP		1
		SADDA.M1		R43:R42,OR11,OR11
		SNOP		1
		SMVAAGL.M1		OR11, R43:R42
		SNOP		1
		SMVAAGH.M1		OR11, R43:R42
		SNOP		1
		SMVAGA36.M1		R43:R42, AR10
		SNOP		1
		SLDW		*AR10, R46
		SNOP		5
		SMOVIL		-984, R44
		SMOVIL		-1, R45
		SADDA.M1		R45:R44,AR14,AR10
		SNOP		1
		SSTW		R46, *AR10
		SMVAGA36.M1		R43:R42, AR10
		SNOP		1
		SLDW		*AR10, R42
		SNOP		5
		SSHFAR		31, R42, R42
		SMOVIL		-980, R44
		SMOVIL		-1, R45
		SADDA.M1		R45:R44,AR14,AR10
		SNOP		1
		SSTW		R42, *AR10
		SMOVIL		-80, R44
		SMOVIL		-1, R45
		SADDA.M1		R45:R44,AR14,AR10
		SNOP		1
		SLDH		*AR10, R42
		SNOP		5
		SSHFLL		16, R42, R42
		SSHFLR		16, R42, R42
		SMOVIL		-992, R44
		SMOVIL		-1, R45
		SADDA.M1		R45:R44,AR14,AR10
		SNOP		1
		SSTW		R42, *AR10
		SMOVIL		0, R44
		SMOVIL		-988, R42
		SMOVIL		-1, R43
		SADDA.M1		R43:R42,AR14,AR10
		SNOP		1
		SSTW		R44, *AR10
		SMOVIL		-980, R44
		SMOVIL		-1, R45
		SADDA.M1		R45:R44,AR14,AR10
		SNOP		1
		SLDW		*AR10, R42
		SNOP		5
		SMOVIL		-992, R44
		SMOVIL		-1, R45
		SADDA.M1		R45:R44,AR14,AR10
		SNOP		1
		SLDW		*AR10, R44
		SNOP		5
		SMULIS.M1		R44,R42,R43
		SNOP		2
		SMOVIL		-988, R44
		SMOVIL		-1, R45
		SADDA.M1		R45:R44,AR14,AR10
		SNOP		1
		SLDW		*AR10, R46
		SNOP		5
		SMOVIL		-984, R44
		SMOVIL		-1, R45
		SADDA.M1		R45:R44,AR14,AR10
		SNOP		1
		SLDW		*AR10, R44
		SNOP		5
		SMULIS.M1		R44,R46,R42
		SNOP		2
		SADD.M1		R42,R43,R44
		SMOVIL		-984, R46
		SMOVIL		-1, R47
		SADDA.M1		R47:R46,AR14,AR10
		SNOP		1
		SLDW		*AR10, R45
		SNOP		5
		SMOVIL		-992, R46
		SMOVIL		-1, R47
		SADDA.M1		R47:R46,AR14,AR10
		SNOP		1
		SLDW		*AR10, R46
		SNOP		5
		SMULU.M1		R46,R45,R43:R42
		SNOP		3
		SADD.M1		R43,R44,R44
		SMOV.M1		R44, R43
		SMOVIL		-976, R46
		SMOVIL		-1, R47
		SADDA.M1		R47:R46,AR14,AR10
		SNOP		1
		SLDW		*AR10, R46
		SNOP		5
		SADD.M1		R42,R46,R44
		SMOVIL		-976, R48
		SMOVIL		-1, R49
		SADDA.M1		R49:R48,AR14,AR10
		SNOP		1
		SLDW		*AR10, R47
		SNOP		5
		SLTU		R44, R47, R46
		SMOVIL		-972, R48
		SMOVIL		-1, R49
		SADDA.M1		R49:R48,AR14,AR10
		SNOP		1
		SLDW		*AR10, R47
		SNOP		5
		SADD.M1		R43,R47,R45
		SADD.M1		R45,R46,R42
		SMOV.M1		R42, R45
		SMOV.M1		R44, R42
		SMOV.M1		R45, R43
		SSHFLR		28, R42, R44
		SSHFLL		4, R43, R45
		SMOVIL		-996, R46
		SMOVIL		-1, R47
		SADDA.M1		R47:R46,AR14,AR10
		SNOP		1
		SSTW		R45, *AR10
		SMOVIL		-996, R46
		SMOVIL		-1, R47
		SADDA.M1		R47:R46,AR14,AR10
		SNOP		1
		SLDW		*AR10, R45
		SNOP		5
		SOR		R45, R44, R45
		SMOVIL		-996, R46
		SMOVIL		-1, R47
		SADDA.M1		R47:R46,AR14,AR10
		SNOP		1
		SSTW		R45, *AR10
		SSHFLL		4, R42, R46
		SMOVIL		-1000, R44
		SMOVIL		-1, R45
		SADDA.M1		R45:R44,AR14,AR10
		SNOP		1
		SSTW		R46, *AR10
		SMOVIL		8, R42
		SMOVIL		0, R43
		SMOVIL		-1000, R46
		SMOVIL		-1, R47
		SADDA.M1		R47:R46,AR14,AR10
		SNOP		1
		SLDW		*AR10, R46
		SNOP		5
		SADD.M1		R42,R46,R44
		SMOVIL		-1000, R48
		SMOVIL		-1, R49
		SADDA.M1		R49:R48,AR14,AR10
		SNOP		1
		SLDW		*AR10, R47
		SNOP		5
		SLTU		R44, R47, R46
		SMOVIL		-996, R48
		SMOVIL		-1, R49
		SADDA.M1		R49:R48,AR14,AR10
		SNOP		1
		SLDW		*AR10, R47
		SNOP		5
		SADD.M1		R43,R47,R45
		SADD.M1		R45,R46,R42
		SMOV.M1		R42, R45
		SMOVIL		-176, R42
		SMOVIL		-1, R43
		SMOVIL		-72, R48
		SMOVIL		-1, R49
		SADDA.M1		R49:R48,AR14,OR11
		SNOP		1
		SADDA.M1		R43:R42,OR11,OR11
		SNOP		1
		SMVAAGL.M1		OR11, R43:R42
		SNOP		1
		SMVAAGH.M1		OR11, R43:R42
		SNOP		1
	;no-op trunc di R45:R44 to pdi R45:R44
		SMVAGA36.M1		R43:R42, AR10
		SNOP		1
		SLDDW		*AR10, R43:R42
		SNOP		5
		SMVAGA36.M1		R43:R42, OR11
		SNOP		1
		SADDA.M1		R45:R44,OR11,OR11
		SNOP		1
		SMVAAGL.M1		OR11, R47:R46
		SNOP		1
		SMVAAGH.M1		OR11, R47:R46
		SNOP		1
		SMOVIL		-152, R42
		SMOVIL		-1, R43
		SMOVIL		-72, R48
		SMOVIL		-1, R49
		SADDA.M1		R49:R48,AR14,OR11
		SNOP		1
		SADDA.M1		R43:R42,OR11,OR11
		SNOP		1
		SMVAAGL.M1		OR11, R45:R44
		SNOP		1
		SMVAAGH.M1		OR11, R45:R44
		SNOP		1
		SMVAGA36.M1		R47:R46, AR10
		SNOP		1
		SLDDW		*AR10, R43:R42
		SNOP		5
		SMVAGA36.M1		R45:R44, AR10
		SNOP		1
		SSTDW		R43:R42, *AR10
	.loc 1 436 0 discriminator 2
		SMOVIL		-128, R42
		SMOVIL		-1, R43
		SMOVIL		-72, R46
		SMOVIL		-1, R47
		SADDA.M1		R47:R46,AR14,OR11
		SNOP		1
		SADDA.M1		R43:R42,OR11,OR11
		SNOP		1
		SMVAAGL.M1		OR11, R45:R44
		SNOP		1
		SMVAAGH.M1		OR11, R45:R44
		SNOP		1
		SMOVIL		-144, R42
		SMOVIL		-1, R43
		SMOVIL		-72, R46
		SMOVIL		-1, R47
		SADDA.M1		R47:R46,AR14,OR11
		SNOP		1
		SADDA.M1		R43:R42,OR11,OR11
		SNOP		1
		SMVAAGL.M1		OR11, R43:R42
		SNOP		1
		SMVAAGH.M1		OR11, R43:R42
		SNOP		1
		SMVAGA36.M1		R45:R44, AR10
		SNOP		1
		SLDDW		*AR10, R45:R44
		SNOP		5
		SMVAGA36.M1		R43:R42, AR10
		SNOP		1
		SLDDW		*AR10, R43:R42
		SNOP		5
		SFMULD.M1		R45:R44, R43:R42, R47:R46
		SNOP		5
		SMOVIL		-136, R42
		SMOVIL		-1, R43
		SMOVIL		-72, R48
		SMOVIL		-1, R49
		SADDA.M1		R49:R48,AR14,OR11
		SNOP		1
		SADDA.M1		R43:R42,OR11,OR11
		SNOP		1
		SMVAAGL.M1		OR11, R45:R44
		SNOP		1
		SMVAAGH.M1		OR11, R45:R44
		SNOP		1
		SMOVIL		-152, R42
		SMOVIL		-1, R43
		SMOVIL		-72, R48
		SMOVIL		-1, R49
		SADDA.M1		R49:R48,AR14,OR11
		SNOP		1
		SADDA.M1		R43:R42,OR11,OR11
		SNOP		1
		SMVAAGL.M1		OR11, R43:R42
		SNOP		1
		SMVAAGH.M1		OR11, R43:R42
		SNOP		1
		SMVAGA36.M1		R45:R44, AR10
		SNOP		1
		SLDDW		*AR10, R45:R44
		SNOP		5
		SMVAGA36.M1		R43:R42, AR10
		SNOP		1
		SLDDW		*AR10, R43:R42
		SNOP		5
		SFMULD.M1		R45:R44, R43:R42, R43:R42
		SNOP		5
		SFSUBD.M1	R43:R42, R47:R46, R45:R44
		SNOP		4
		SLDDW		*-AR14[11], R43:R42
		SNOP		5
		SFADDD.M1		R43:R42, R45:R44, R43:R42
		SNOP		4
		SSTDW		R43:R42, *-AR14[11]
	.loc 1 437 0 discriminator 2
		SMOVIL		-128, R42
		SMOVIL		-1, R43
		SMOVIL		-72, R46
		SMOVIL		-1, R47
		SADDA.M1		R47:R46,AR14,OR11
		SNOP		1
		SADDA.M1		R43:R42,OR11,OR11
		SNOP		1
		SMVAAGL.M1		OR11, R45:R44
		SNOP		1
		SMVAAGH.M1		OR11, R45:R44
		SNOP		1
		SMOVIL		-152, R42
		SMOVIL		-1, R43
		SMOVIL		-72, R46
		SMOVIL		-1, R47
		SADDA.M1		R47:R46,AR14,OR11
		SNOP		1
		SADDA.M1		R43:R42,OR11,OR11
		SNOP		1
		SMVAAGL.M1		OR11, R43:R42
		SNOP		1
		SMVAAGH.M1		OR11, R43:R42
		SNOP		1
		SMVAGA36.M1		R45:R44, AR10
		SNOP		1
		SLDDW		*AR10, R45:R44
		SNOP		5
		SMVAGA36.M1		R43:R42, AR10
		SNOP		1
		SLDDW		*AR10, R43:R42
		SNOP		5
		SFMULD.M1		R45:R44, R43:R42, R47:R46
		SNOP		5
		SMOVIL		-136, R42
		SMOVIL		-1, R43
		SMOVIL		-72, R48
		SMOVIL		-1, R49
		SADDA.M1		R49:R48,AR14,OR11
		SNOP		1
		SADDA.M1		R43:R42,OR11,OR11
		SNOP		1
		SMVAAGL.M1		OR11, R45:R44
		SNOP		1
		SMVAAGH.M1		OR11, R45:R44
		SNOP		1
		SMOVIL		-144, R42
		SMOVIL		-1, R43
		SMOVIL		-72, R48
		SMOVIL		-1, R49
		SADDA.M1		R49:R48,AR14,OR11
		SNOP		1
		SADDA.M1		R43:R42,OR11,OR11
		SNOP		1
		SMVAAGL.M1		OR11, R43:R42
		SNOP		1
		SMVAAGH.M1		OR11, R43:R42
		SNOP		1
		SMVAGA36.M1		R45:R44, AR10
		SNOP		1
		SLDDW		*AR10, R45:R44
		SNOP		5
		SMVAGA36.M1		R43:R42, AR10
		SNOP		1
		SLDDW		*AR10, R43:R42
		SNOP		5
		SFMULD.M1		R45:R44, R43:R42, R43:R42
		SNOP		5
		SFADDD.M1		R47:R46, R43:R42, R45:R44
		SNOP		4
		SLDDW		*-AR14[12], R43:R42
		SNOP		5
		SFADDD.M1		R43:R42, R45:R44, R43:R42
		SNOP		4
		SSTDW		R43:R42, *-AR14[12]
	.loc 1 430 0 discriminator 2
		SMOVIL		-76, R42
		SMOVIL		-1, R43
		SMOVIL		-72, R46
		SMOVIL		-1, R47
		SADDA.M1		R47:R46,AR14,OR11
		SNOP		1
		SADDA.M1		R43:R42,OR11,OR11
		SNOP		1
		SMVAAGL.M1		OR11, R45:R44
		SNOP		1
		SMVAAGH.M1		OR11, R45:R44
		SNOP		1
		SMOVIL		-76, R42
		SMOVIL		-1, R43
		SMOVIL		-72, R46
		SMOVIL		-1, R47
		SADDA.M1		R47:R46,AR14,OR11
		SNOP		1
		SADDA.M1		R43:R42,OR11,OR11
		SNOP		1
		SMVAAGL.M1		OR11, R43:R42
		SNOP		1
		SMVAAGH.M1		OR11, R43:R42
		SNOP		1
		SMVAGA36.M1		R43:R42, AR10
		SNOP		1
		SLDW		*AR10, R42
		SNOP		5
		SADD.M1		1,R42,R42
		SMVAGA36.M1		R45:R44, AR10
		SNOP		1
		SSTW		R42, *AR10
.L126:
	.loc 1 430 0 is_stmt 0 discriminator 1
		SMOVIL		-80, R44
		SMOVIL		-1, R45
		SADDA.M1		R45:R44,AR14,AR10
		SNOP		1
		SLDH		*AR10, R42
		SNOP		5
		SSHFLL		16, R42, R44
		SSHFLR		16, R44, R44
		SMOVIL		-76, R42
		SMOVIL		-1, R43
		SMOVIL		-72, R46
		SMOVIL		-1, R47
		SADDA.M1		R47:R46,AR14,OR11
		SNOP		1
		SADDA.M1		R43:R42,OR11,OR11
		SNOP		1
		SMVAAGL.M1		OR11, R43:R42
		SNOP		1
		SMVAAGH.M1		OR11, R43:R42
		SNOP		1
		SMVAGA36.M1		R43:R42, AR10
		SNOP		1
		SLDW		*AR10, R42
		SNOP		5
		SLT		R42, R44, R42
		SMOV.M1		R42, R0
	[R0]	SBR		.L127
		SNOP		6
	.loc 1 439 0 is_stmt 1
		SMOVIL		-68, R42
		SMOVIL		-1, R43
		SMOVIL		-72, R46
		SMOVIL		-1, R47
		SADDA.M1		R47:R46,AR14,OR11
		SNOP		1
		SADDA.M1		R43:R42,OR11,OR11
		SNOP		1
		SMVAAGL.M1		OR11, R45:R44
		SNOP		1
		SMVAAGH.M1		OR11, R45:R44
		SNOP		1
		SMOVIL		-72, R42
		SMOVIL		-1, R43
		SMOVIL		-72, R46
		SMOVIL		-1, R47
		SADDA.M1		R47:R46,AR14,OR11
		SNOP		1
		SADDA.M1		R43:R42,OR11,OR11
		SNOP		1
		SMVAAGL.M1		OR11, R43:R42
		SNOP		1
		SMVAAGH.M1		OR11, R43:R42
		SNOP		1
		SMVAGA36.M1		R45:R44, AR10
		SNOP		1
		SLDW		*AR10, R44
		SNOP		5
		SMVAGA36.M1		R43:R42, AR10
		SNOP		1
		SLDW		*AR10, R42
		SNOP		5
		SEQ		R42, R44, R42
		SMOV.M1		R42, R0
	[!R0]	SBR		.L128
		SNOP		6
	.loc 1 441 0
		SLDDW		*-AR14[11], R45:R44
		SNOP		5
		SMOVIL		0, R42
		SMOVIL		1072693248, R43
		SMOVIH		1072693248, R43
		SFSUBD.M1	R43:R42, R45:R44, R43:R42
		SNOP		4
		SFABSD.M1		R43:R42, R43:R42
		SNOP		1
		SSTDW		R43:R42, *-AR14[13]
		SBR		.L129
		SNOP		6
.L128:
	.loc 1 445 0
		SLDDW		*-AR14[11], R43:R42
		SNOP		5
		SFABSD.M1		R43:R42, R43:R42
		SNOP		1
		SSTDW		R43:R42, *-AR14[13]
.L129:
	.loc 1 447 0
		SLDDW		*-AR14[13], R45:R44
		SNOP		5
		SMOVIL		-128, R46
		SMOVIL		-1, R47
		SADDA.M1		R47:R46,AR14,AR10
		SNOP		1
		SLDDW		*AR10, R43:R42
		SNOP		5
		SFCMPGD.M1		R45:R44, R43:R42, R42
		SNOP		1
		SMOV.M1		R42, R0
	[!R0]	SBR		.L130
		SNOP		6
.L156:
	.loc 1 449 0
		SLDDW		*-AR14[13], R43:R42
		SNOP		5
		SMOVIL		-128, R44
		SMOVIL		-1, R45
		SADDA.M1		R45:R44,AR14,AR10
		SNOP		1
		SSTDW		R43:R42, *AR10
.L130:
	.loc 1 451 0
		SMOVIL		-160, R42
		SMOVIL		-1, R43
		SMOVIL		-72, R46
		SMOVIL		-1, R47
		SADDA.M1		R47:R46,AR14,OR11
		SNOP		1
		SADDA.M1		R43:R42,OR11,OR11
		SNOP		1
		SMVAAGL.M1		OR11, R45:R44
		SNOP		1
		SMVAAGH.M1		OR11, R45:R44
		SNOP		1
		SLDDW		*-AR14[12], R43:R42
		SNOP		5
		SFABSD.M1		R43:R42, R43:R42
		SNOP		1
		SMVAGA36.M1		R45:R44, AR10
		SNOP		1
		SSTDW		R43:R42, *AR10
	.loc 1 452 0
		SMOVIL		-160, R42
		SMOVIL		-1, R43
		SMOVIL		-72, R44
		SMOVIL		-1, R45
		SADDA.M1		R45:R44,AR14,OR11
		SNOP		1
		SADDA.M1		R43:R42,OR11,OR11
		SNOP		1
		SMVAAGL.M1		OR11, R43:R42
		SNOP		1
		SMVAAGH.M1		OR11, R43:R42
		SNOP		1
		SMVAGA36.M1		R43:R42, AR10
		SNOP		1
		SLDDW		*AR10, R45:R44
		SNOP		5
		SMOVIL		-128, R46
		SMOVIL		-1, R47
		SADDA.M1		R47:R46,AR14,AR10
		SNOP		1
		SLDDW		*AR10, R43:R42
		SNOP		5
		SFCMPGD.M1		R45:R44, R43:R42, R42
		SNOP		1
		SMOV.M1		R42, R0
	[!R0]	SBR		.L132
		SNOP		6
.L157:
	.loc 1 454 0
		SMOVIL		-160, R42
		SMOVIL		-1, R43
		SMOVIL		-72, R44
		SMOVIL		-1, R45
		SADDA.M1		R45:R44,AR14,OR11
		SNOP		1
		SADDA.M1		R43:R42,OR11,OR11
		SNOP		1
		SMVAAGL.M1		OR11, R43:R42
		SNOP		1
		SMVAAGH.M1		OR11, R43:R42
		SNOP		1
		SMVAGA36.M1		R43:R42, AR10
		SNOP		1
		SLDDW		*AR10, R43:R42
		SNOP		5
		SMOVIL		-128, R44
		SMOVIL		-1, R45
		SADDA.M1		R45:R44,AR14,AR10
		SNOP		1
		SSTDW		R43:R42, *AR10
.L132:
	.loc 1 456 0
		SLDDW		*-AR14[13], R45:R44
		SNOP		5
		SMOVIL		-184, R46
		SMOVIL		-1, R47
		SADDA.M1		R47:R46,AR14,AR10
		SNOP		1
		SLDDW		*AR10, R43:R42
		SNOP		5
		SFCMPGD.M1		R45:R44, R43:R42, R42
		SNOP		1
		SMOV.M1		R42, R0
	[!R0]	SBR		.L164
		SNOP		6
.L158:
	.loc 1 458 0
		SMOVIL		0, R42
		SMOVIL		-76, R44
		SMOVIL		-1, R45
		SADDA.M1		R45:R44,AR14,AR10
		SNOP		1
		SSTH		R42, *AR10
	.loc 1 459 0
		SMOVIL.L		.LC17, R42
		SMOVIH.L		.LC17, R42
		SMOVIH4.L		.LC17, R43
		SSTDW		R43:R42, *+AR15[1]
		SLDDW		*-AR14[13], R43:R42
		SNOP		5
		SSTDW		R43:R42, *+AR15[2]
		SBR		printf
		SMOVIL		.L191, R62
		SMOVIH		.L191, R62
		SMOVIH4.L		.L191, R63
		SNOP		4
.L191:
	.loc 1 460 0
		SBR		.L136
		SNOP		6
.L164:
	.loc 1 462 0
		SMOVIL		-160, R42
		SMOVIL		-1, R43
		SMOVIL		-72, R44
		SMOVIL		-1, R45
		SADDA.M1		R45:R44,AR14,OR11
		SNOP		1
		SADDA.M1		R43:R42,OR11,OR11
		SNOP		1
		SMVAAGL.M1		OR11, R43:R42
		SNOP		1
		SMVAAGH.M1		OR11, R43:R42
		SNOP		1
		SMVAGA36.M1		R43:R42, AR10
		SNOP		1
		SLDDW		*AR10, R45:R44
		SNOP		5
		SMOVIL		-184, R46
		SMOVIL		-1, R47
		SADDA.M1		R47:R46,AR14,AR10
		SNOP		1
		SLDDW		*AR10, R43:R42
		SNOP		5
		SFCMPGD.M1		R45:R44, R43:R42, R42
		SNOP		1
		SMOV.M1		R42, R0
	[!R0]	SBR		.L165
		SNOP		6
.L159:
	.loc 1 464 0
		SMOVIL		0, R42
		SMOVIL		-76, R44
		SMOVIL		-1, R45
		SADDA.M1		R45:R44,AR14,AR10
		SNOP		1
		SSTH		R42, *AR10
	.loc 1 465 0
		SMOVIL.L		.LC18, R42
		SMOVIH.L		.LC18, R42
		SMOVIH4.L		.LC18, R43
		SSTDW		R43:R42, *+AR15[1]
		SMOVIL		-160, R42
		SMOVIL		-1, R43
		SMOVIL		-72, R44
		SMOVIL		-1, R45
		SADDA.M1		R45:R44,AR14,OR11
		SNOP		1
		SADDA.M1		R43:R42,OR11,OR11
		SNOP		1
		SMVAAGL.M1		OR11, R43:R42
		SNOP		1
		SMVAAGH.M1		OR11, R43:R42
		SNOP		1
		SMVAGA36.M1		R43:R42, AR10
		SNOP		1
		SLDDW		*AR10, R43:R42
		SNOP		5
		SSTDW		R43:R42, *+AR15[2]
		SBR		printf
		SMOVIL		.L192, R62
		SMOVIH		.L192, R62
		SMOVIH4.L		.L192, R63
		SNOP		4
.L192:
	.loc 1 466 0
		SBR		.L136
		SNOP		6
.L165:
	.loc 1 426 0
		SMOVIL		-72, R42
		SMOVIL		-1, R43
		SMOVIL		-72, R46
		SMOVIL		-1, R47
		SADDA.M1		R47:R46,AR14,OR11
		SNOP		1
		SADDA.M1		R43:R42,OR11,OR11
		SNOP		1
		SMVAAGL.M1		OR11, R45:R44
		SNOP		1
		SMVAAGH.M1		OR11, R45:R44
		SNOP		1
		SMOVIL		-72, R42
		SMOVIL		-1, R43
		SMOVIL		-72, R46
		SMOVIL		-1, R47
		SADDA.M1		R47:R46,AR14,OR11
		SNOP		1
		SADDA.M1		R43:R42,OR11,OR11
		SNOP		1
		SMVAAGL.M1		OR11, R43:R42
		SNOP		1
		SMVAAGH.M1		OR11, R43:R42
		SNOP		1
		SMVAGA36.M1		R43:R42, AR10
		SNOP		1
		SLDW		*AR10, R42
		SNOP		5
		SADD.M1		1,R42,R42
		SMVAGA36.M1		R45:R44, AR10
		SNOP		1
		SSTW		R42, *AR10
.L125:
	.loc 1 426 0 is_stmt 0 discriminator 1
		SMOVIL		-80, R44
		SMOVIL		-1, R45
		SADDA.M1		R45:R44,AR14,AR10
		SNOP		1
		SLDH		*AR10, R42
		SNOP		5
		SSHFLL		16, R42, R44
		SSHFLR		16, R44, R44
		SMOVIL		-72, R42
		SMOVIL		-1, R43
		SMOVIL		-72, R46
		SMOVIL		-1, R47
		SADDA.M1		R47:R46,AR14,OR11
		SNOP		1
		SADDA.M1		R43:R42,OR11,OR11
		SNOP		1
		SMVAAGL.M1		OR11, R43:R42
		SNOP		1
		SMVAAGH.M1		OR11, R43:R42
		SNOP		1
		SMVAGA36.M1		R43:R42, AR10
		SNOP		1
		SLDW		*AR10, R42
		SNOP		5
		SLT		R42, R44, R42
		SMOV.M1		R42, R0
	[R0]	SBR		.L139
		SNOP		6
.L136:
	.loc 1 424 0 is_stmt 1
		SMOVIL		-68, R42
		SMOVIL		-1, R43
		SMOVIL		-72, R46
		SMOVIL		-1, R47
		SADDA.M1		R47:R46,AR14,OR11
		SNOP		1
		SADDA.M1		R43:R42,OR11,OR11
		SNOP		1
		SMVAAGL.M1		OR11, R45:R44
		SNOP		1
		SMVAAGH.M1		OR11, R45:R44
		SNOP		1
		SMOVIL		-68, R42
		SMOVIL		-1, R43
		SMOVIL		-72, R46
		SMOVIL		-1, R47
		SADDA.M1		R47:R46,AR14,OR11
		SNOP		1
		SADDA.M1		R43:R42,OR11,OR11
		SNOP		1
		SMVAAGL.M1		OR11, R43:R42
		SNOP		1
		SMVAAGH.M1		OR11, R43:R42
		SNOP		1
		SMVAGA36.M1		R43:R42, AR10
		SNOP		1
		SLDW		*AR10, R42
		SNOP		5
		SADD.M1		1,R42,R42
		SMVAGA36.M1		R45:R44, AR10
		SNOP		1
		SSTW		R42, *AR10
.L124:
	.loc 1 424 0 is_stmt 0 discriminator 1
		SMOVIL		-78, R44
		SMOVIL		-1, R45
		SADDA.M1		R45:R44,AR14,AR10
		SNOP		1
		SLDH		*AR10, R42
		SNOP		5
		SSHFLL		16, R42, R44
		SSHFLR		16, R44, R44
		SMOVIL		-68, R42
		SMOVIL		-1, R43
		SMOVIL		-72, R46
		SMOVIL		-1, R47
		SADDA.M1		R47:R46,AR14,OR11
		SNOP		1
		SADDA.M1		R43:R42,OR11,OR11
		SNOP		1
		SMVAAGL.M1		OR11, R43:R42
		SNOP		1
		SMVAAGH.M1		OR11, R43:R42
		SNOP		1
		SMVAGA36.M1		R43:R42, AR10
		SNOP		1
		SLDW		*AR10, R42
		SNOP		5
		SLT		R42, R44, R42
		SMOV.M1		R42, R0
	[R0]	SBR		.L140
		SNOP		6
.L109:
	.loc 1 473 0 is_stmt 1
		SMOVIL		-76, R44
		SMOVIL		-1, R45
		SADDA.M1		R45:R44,AR14,AR10
		SNOP		1
		SLDH		*AR10, R42
		SNOP		5
		SSHFLL		16, R42, R42
		SSHFLR		16, R42, R42
		SMOV.M1		R42, R0
	[!R0]	SBR		.L141
		SNOP		6
	.loc 1 475 0
		SMOVIL.L		.LC19, R42
		SMOVIH.L		.LC19, R42
		SMOVIH4.L		.LC19, R43
		SSTDW		R43:R42, *+AR15[1]
		SBR		printf
		SMOVIL		.L193, R62
		SMOVIH		.L193, R62
		SMOVIH4.L		.L193, R63
		SNOP		4
.L193:
	.loc 1 476 0
		SMOVIL		-78, R44
		SMOVIL		-1, R45
		SADDA.M1		R45:R44,AR14,AR10
		SNOP		1
		SLDH		*AR10, R42
		SNOP		5
		SSHFLL		16, R42, R45
		SSHFLR		16, R45, R45
		SMOVIL		-80, R46
		SMOVIL		-1, R47
		SADDA.M1		R47:R46,AR14,AR10
		SNOP		1
		SLDH		*AR10, R42
		SNOP		5
		SSHFLL		16, R42, R44
		SSHFLR		16, R44, R44
		SMOVIL.L		.LC20, R42
		SMOVIH.L		.LC20, R42
		SMOVIH4.L		.LC20, R43
		SSTDW		R43:R42, *+AR15[1]
		SSTW		R45, *+AR15[4]
		SSTW		R44, *+AR15[5]
		SMOVIL		-120, R42
		SMOVIL		-1, R43
		SMOVIL		-72, R44
		SMOVIL		-1, R45
		SADDA.M1		R45:R44,AR14,OR11
		SNOP		1
		SADDA.M1		R43:R42,OR11,OR11
		SNOP		1
		SMVAAGL.M1		OR11, R43:R42
		SNOP		1
		SMVAAGH.M1		OR11, R43:R42
		SNOP		1
		SMVAGA36.M1		R43:R42, AR10
		SNOP		1
		SLDW		*AR10, R42
		SNOP		5
		SSTW		R42, *+AR15[6]
		SMOVIL		-84, R42
		SMOVIL		-1, R43
		SMOVIL		-72, R44
		SMOVIL		-1, R45
		SADDA.M1		R45:R44,AR14,OR11
		SNOP		1
		SADDA.M1		R43:R42,OR11,OR11
		SNOP		1
		SMVAAGL.M1		OR11, R43:R42
		SNOP		1
		SMVAAGH.M1		OR11, R43:R42
		SNOP		1
		SMVAGA36.M1		R43:R42, AR10
		SNOP		1
		SLDW		*AR10, R42
		SNOP		5
		SSTW		R42, *+AR15[7]
		SMOVIL		-88, R42
		SMOVIL		-1, R43
		SMOVIL		-72, R44
		SMOVIL		-1, R45
		SADDA.M1		R45:R44,AR14,OR11
		SNOP		1
		SADDA.M1		R43:R42,OR11,OR11
		SNOP		1
		SMVAAGL.M1		OR11, R43:R42
		SNOP		1
		SMVAAGH.M1		OR11, R43:R42
		SNOP		1
		SMVAGA36.M1		R43:R42, AR10
		SNOP		1
		SLDW		*AR10, R42
		SNOP		5
		SSTW		R42, *+AR15[8]
		SBR		printf
		SMOVIL		.L194, R62
		SMOVIH		.L194, R62
		SMOVIH4.L		.L194, R63
		SNOP		4
.L194:
		SBR		.L142
		SNOP		6
.L141:
	.loc 1 480 0
		SMOVIL		-78, R44
		SMOVIL		-1, R45
		SADDA.M1		R45:R44,AR14,AR10
		SNOP		1
		SLDH		*AR10, R42
		SNOP		5
		SSHFLL		16, R42, R44
		SSHFLR		16, R44, R44
		SMOVIL.L		.LC21, R42
		SMOVIH.L		.LC21, R42
		SMOVIH4.L		.LC21, R43
		SSTDW		R43:R42, *+AR15[1]
		SSTW		R44, *+AR15[4]
		SBR		printf
		SMOVIL		.L195, R62
		SMOVIH		.L195, R62
		SMOVIH4.L		.L195, R63
		SNOP		4
.L195:
	.loc 1 481 0
		SMOVIL		-78, R44
		SMOVIL		-1, R45
		SADDA.M1		R45:R44,AR14,AR10
		SNOP		1
		SLDH		*AR10, R42
		SNOP		5
		SSHFLL		16, R42, R45
		SSHFLR		16, R45, R45
		SMOVIL		-80, R46
		SMOVIL		-1, R47
		SADDA.M1		R47:R46,AR14,AR10
		SNOP		1
		SLDH		*AR10, R42
		SNOP		5
		SSHFLL		16, R42, R44
		SSHFLR		16, R44, R44
		SMOVIL.L		.LC20, R42
		SMOVIH.L		.LC20, R42
		SMOVIH4.L		.LC20, R43
		SSTDW		R43:R42, *+AR15[1]
		SSTW		R45, *+AR15[4]
		SSTW		R44, *+AR15[5]
		SMOVIL		-120, R42
		SMOVIL		-1, R43
		SMOVIL		-72, R44
		SMOVIL		-1, R45
		SADDA.M1		R45:R44,AR14,OR11
		SNOP		1
		SADDA.M1		R43:R42,OR11,OR11
		SNOP		1
		SMVAAGL.M1		OR11, R43:R42
		SNOP		1
		SMVAAGH.M1		OR11, R43:R42
		SNOP		1
		SMVAGA36.M1		R43:R42, AR10
		SNOP		1
		SLDW		*AR10, R42
		SNOP		5
		SSTW		R42, *+AR15[6]
		SMOVIL		-84, R42
		SMOVIL		-1, R43
		SMOVIL		-72, R44
		SMOVIL		-1, R45
		SADDA.M1		R45:R44,AR14,OR11
		SNOP		1
		SADDA.M1		R43:R42,OR11,OR11
		SNOP		1
		SMVAAGL.M1		OR11, R43:R42
		SNOP		1
		SMVAAGH.M1		OR11, R43:R42
		SNOP		1
		SMVAGA36.M1		R43:R42, AR10
		SNOP		1
		SLDW		*AR10, R42
		SNOP		5
		SSTW		R42, *+AR15[7]
		SMOVIL		-88, R42
		SMOVIL		-1, R43
		SMOVIL		-72, R44
		SMOVIL		-1, R45
		SADDA.M1		R45:R44,AR14,OR11
		SNOP		1
		SADDA.M1		R43:R42,OR11,OR11
		SNOP		1
		SMVAAGL.M1		OR11, R43:R42
		SNOP		1
		SMVAAGH.M1		OR11, R43:R42
		SNOP		1
		SMVAGA36.M1		R43:R42, AR10
		SNOP		1
		SLDW		*AR10, R42
		SNOP		5
		SSTW		R42, *+AR15[8]
		SBR		printf
		SMOVIL		.L196, R62
		SMOVIH		.L196, R62
		SMOVIH4.L		.L196, R63
		SNOP		4
.L196:
.L142:
	.loc 1 180 0
		SMOVIL		-74, R44
		SMOVIL		-1, R45
		SADDA.M1		R45:R44,AR14,AR10
		SNOP		1
		SLDH		*AR10, R42
		SNOP		5
		SADD.M1		1,R42,R42
		SMOVIL		-74, R44
		SMOVIL		-1, R45
		SADDA.M1		R45:R44,AR14,AR10
		SNOP		1
		SSTH		R42, *AR10
.L52:
	.loc 1 180 0 is_stmt 0 discriminator 1
		SMOVIL		-74, R44
		SMOVIL		-1, R45
		SADDA.M1		R45:R44,AR14,AR10
		SNOP		1
		SLDH		*AR10, R42
		SNOP		5
		SSHFLL		16, R42, R42
		SSHFLR		16, R42, R42
		SMOVIL		3, R0
		SLTU		R0, R42, R42
		SMOV.M1		R42, R0
	[!R0]	SBR		.L143
		SNOP		6
	.loc 1 484 0 is_stmt 1
		SLDDW		*+AR15[121], R31:R30
		SNOP		5
		SLDDW		*+AR15[122], R33:R32
		SNOP		5
		SLDDW		*+AR15[123], R35:R34
		SNOP		5
		SLDDW		*+AR15[124], R37:R36
		SNOP		5
		SLDDW		*+AR15[125], R39:R38
		SNOP		5
		SLDDW		*+AR15[126], R41:R40
		SNOP		5
		SLDDW		*+AR15[127], R7:R6
		SNOP		5
		SMVAGA36.M1		R7:R6, AR8
		SNOP		1
		SLDDW		*+AR15[128], R63:R62
		SNOP		5
		SADDA.M1		-16,AR14,AR15
		SNOP		1
		SLDDW		*++AR15[2], R7:R6
		SNOP		5
		SMVAGA36.M1		R7:R6, AR14
		SNOP		1
		SMVCGC.L		R63, BRReg
		SNOP		1
		SBR		R62
		SNOP		6
	.cfi_endproc
.LFE9:
	.size	test_qr_solver_complx, .-test_qr_solver_complx
.text;
.Letext0: