	.file	"version_vector.c"
.text;
.Ltext0:
	.cfi_sections	.debug_frame
	.section	.text.DSPF_dp_qrd_solver_cmplx_v1,"ax",@progbits
	.align	2
	.global	DSPF_dp_qrd_solver_cmplx_v1
	.type	DSPF_dp_qrd_solver_cmplx_v1, @function
DSPF_dp_qrd_solver_cmplx_v1:
.LFB3:
	.file 1 "../version_vector.c"
	.loc 1 14 0
	.cfi_startproc
		SMVAAGL.M1		AR14, R7:R6
		SNOP		1
		SMVAAGH.M1		AR14, R7:R6
		SNOP		1
		SSTDW		R7:R6, *AR15--[2]
.LCFI0:
	.cfi_def_cfa_offset 16
	.cfi_offset 14, 0
		SADDA.M1		16,AR15,AR14
.LCFI1:
	.cfi_def_cfa 14, 0
		SNOP		1
		SMOVIL		-56, R6
		SMOVIL		-1, R7
		SADDA.M1		R7:R6,AR15,AR15
		SNOP		1
		SSTW		R10, *-AR14[5]
		SSTW		R12, *-AR14[6]
		SSTDW		R15:R14, *-AR14[4]
		SSTDW		R17:R16, *-AR14[5]
		SSTDW		R19:R18, *-AR14[6]
		SSTDW		R21:R20, *-AR14[7]
		SSTDW		R23:R22, *-AR14[8]
	.loc 1 19 0
		SMOVIL		0, R42
	.loc 1 20 0
		SMOV.M1		R42, R10
		SADDA.M1		-16,AR14,AR15
		SNOP		1
		SLDDW		*++AR15[2], R7:R6
		SNOP		5
		SMVAGA36.M1		R7:R6, AR14
		SNOP		1
		SMVCGC.L		R63, BRReg
		SNOP		1
		SBR		R62
		SNOP		6
	.cfi_endproc
.LFE3:
	.size	DSPF_dp_qrd_solver_cmplx_v1, .-DSPF_dp_qrd_solver_cmplx_v1
	.section	.text.complex_dp_div,"ax",@progbits
	.align	2
	.type	complex_dp_div, @function
complex_dp_div:
.LFB4:
	.loc 1 24 0
	.cfi_startproc
		SMVAAGL.M1		AR14, R7:R6
		SNOP		1
		SMVAAGH.M1		AR14, R7:R6
		SNOP		1
		SSTDW		R7:R6, *AR15--[2]
.LCFI2:
	.cfi_def_cfa_offset 16
	.cfi_offset 14, 0
		SADDA.M1		16,AR15,AR14
.LCFI3:
	.cfi_def_cfa 14, 0
		SNOP		1
		SMOVIL		-80, R6
		SMOVIL		-1, R7
		SADDA.M1		R7:R6,AR15,AR15
		SNOP		1
		SSTDW		R63:R62, *+AR15[10]
	.cfi_offset 78, -16
	.cfi_offset 79, -12
		SSTDW		R11:R10, *-AR14[6]
		SSTDW		R13:R12, *-AR14[7]
		SSTDW		R15:R14, *-AR14[8]
		SSTDW		R17:R16, *-AR14[9]
		SSTDW		R19:R18, *-AR14[10]
		SSTDW		R21:R20, *-AR14[11]
	.loc 1 29 0
		SLDDW		*-AR14[6], R45:R44
		SNOP		5
		SLDDW		*-AR14[6], R43:R42
		SNOP		5
		SFMULD.M1		R45:R44, R43:R42, R45:R44
		SNOP		5
		SLDDW		*-AR14[7], R47:R46
		SNOP		5
		SLDDW		*-AR14[7], R43:R42
		SNOP		5
		SFMULD.M1		R47:R46, R43:R42, R43:R42
		SNOP		5
		SFADDD.M1		R45:R44, R43:R42, R43:R42
		SNOP		4
		SMOV.M1		R42, R10
		SMOV.M1		R43, R11
		SBR		sqrt
		SMOVIL		.L4, R62
		SMOVIH		.L4, R62
		SMOVIH4.L		.L4, R63
		SNOP		4
.L4:
		SMOV.M1		R10, R42
		SMOV.M1		R11, R43
		SFDPSP32.M1		R43:R42, R42
		SNOP		2
		SSTW		R42, *-AR14[5]
	.loc 1 30 0
		SLDDW		*-AR14[8], R45:R44
		SNOP		5
		SLDDW		*-AR14[8], R43:R42
		SNOP		5
		SFMULD.M1		R45:R44, R43:R42, R45:R44
		SNOP		5
		SLDDW		*-AR14[9], R47:R46
		SNOP		5
		SLDDW		*-AR14[9], R43:R42
		SNOP		5
		SFMULD.M1		R47:R46, R43:R42, R43:R42
		SNOP		5
		SFADDD.M1		R45:R44, R43:R42, R43:R42
		SNOP		4
		SMOV.M1		R42, R10
		SMOV.M1		R43, R11
		SBR		sqrt
		SMOVIL		.L5, R62
		SMOVIH		.L5, R62
		SMOVIH4.L		.L5, R63
		SNOP		4
.L5:
		SMOV.M1		R10, R42
		SMOV.M1		R11, R43
		SFDPSP32.M1		R43:R42, R42
		SNOP		2
		SSTW		R42, *-AR14[6]
	.loc 1 31 0
		SLDW		*-AR14[5], R46
		SNOP		5
		SLDW		*-AR14[6], R43
		SNOP		5
		SMOVIL		1073741824, R45
		SMOVIH		1073741824, R45
		SFRCPS32.M1		R43, R42
		SFMULS32.M1		R43, R42, R44
		SNOP		3
		SFSUBS32.M1		R44, R45, R44
		SNOP		2
		SFMULS32.M1		R42, R44, R42
		SNOP		3
		SFMULS32.M1		R43, R42, R44
		SNOP		3
		SFSUBS32.M1		R44, R45, R44
		SNOP		2
		SFMULS32.M1		R42, R44, R42
		SNOP		3
		SFMULS32.M1		R46, R42, R42
		SNOP		3
		SSTW		R42, *-AR14[7]
	.loc 1 34 0
		SLDDW		*-AR14[7], R11:R10
		SNOP		5
		SLDDW		*-AR14[6], R13:R12
		SNOP		5
		SBR		atan2
		SMOVIL		.L6, R62
		SMOVIH		.L6, R62
		SMOVIH4.L		.L6, R63
		SNOP		4
.L6:
		SMOV.M1		R10, R42
		SMOV.M1		R11, R43
		SFDPSP32.M1		R43:R42, R42
		SNOP		2
		SSTW		R42, *-AR14[8]
	.loc 1 35 0
		SLDDW		*-AR14[9], R11:R10
		SNOP		5
		SLDDW		*-AR14[8], R13:R12
		SNOP		5
		SBR		atan2
		SMOVIL		.L7, R62
		SMOVIH		.L7, R62
		SMOVIH4.L		.L7, R63
		SNOP		4
.L7:
		SMOV.M1		R10, R42
		SMOV.M1		R11, R43
		SFDPSP32.M1		R43:R42, R42
		SNOP		2
		SSTW		R42, *-AR14[9]
	.loc 1 36 0
		SLDW		*-AR14[8], R43
		SNOP		5
		SLDW		*-AR14[9], R42
		SNOP		5
		SFSUBS32.M1		R42, R43, R42
		SNOP		2
		SSTW		R42, *-AR14[10]
	.loc 1 39 0
		SLDW		*-AR14[10], R42
		SNOP		5
		SFSPDP32T.M1		R42, R43:R42
		SNOP		1
		SMOV.M1		R42, R10
		SMOV.M1		R43, R11
		SBR		cos
		SMOVIL		.L8, R62
		SMOVIH		.L8, R62
		SMOVIH4.L		.L8, R63
		SNOP		4
.L8:
		SMOV.M1		R10, R44
		SMOV.M1		R11, R45
		SLDW		*-AR14[7], R42
		SNOP		5
		SFSPDP32T.M1		R42, R43:R42
		SNOP		1
		SFMULD.M1		R45:R44, R43:R42, R43:R42
		SNOP		5
		SLDDW		*-AR14[10], R45:R44
		SNOP		5
		SMVAGA36.M1		R45:R44, AR10
		SNOP		1
		SSTDW		R43:R42, *AR10
	.loc 1 40 0
		SLDW		*-AR14[10], R42
		SNOP		5
		SFSPDP32T.M1		R42, R43:R42
		SNOP		1
		SMOV.M1		R42, R10
		SMOV.M1		R43, R11
		SBR		sin
		SMOVIL		.L9, R62
		SMOVIH		.L9, R62
		SMOVIH4.L		.L9, R63
		SNOP		4
.L9:
		SMOV.M1		R10, R44
		SMOV.M1		R11, R45
		SLDW		*-AR14[7], R42
		SNOP		5
		SFSPDP32T.M1		R42, R43:R42
		SNOP		1
		SFMULD.M1		R45:R44, R43:R42, R43:R42
		SNOP		5
		SLDDW		*-AR14[11], R45:R44
		SNOP		5
		SMVAGA36.M1		R45:R44, AR10
		SNOP		1
		SSTDW		R43:R42, *AR10
	.loc 1 41 0
		SLDDW		*+AR15[10], R63:R62
		SNOP		5
		SADDA.M1		-16,AR14,AR15
		SNOP		1
		SLDDW		*++AR15[2], R7:R6
		SNOP		5
		SMVAGA36.M1		R7:R6, AR14
		SNOP		1
		SMVCGC.L		R63, BRReg
		SNOP		1
		SBR		R62
		SNOP		6
	.cfi_endproc
.LFE4:
	.size	complex_dp_div, .-complex_dp_div
.text;
.Letext0: