	.file	"version_trival.c"
.text;
.Ltext0:
	.cfi_sections	.debug_frame
	.section	.text.DSPF_dp_qrd_cmplx_cn,"ax",@progbits
	.align	2
	.global	DSPF_dp_qrd_cmplx_cn
	.type	DSPF_dp_qrd_cmplx_cn, @function
DSPF_dp_qrd_cmplx_cn:
.LFB0:
	.file 1 "../version_trival.c"
	.loc 1 11 0
	.cfi_startproc
		SMVAAGL.M1		AR14, R7:R6
		SNOP		1
		SMVAAGH.M1		AR14, R7:R6
		SNOP		1
		SSTDW		R7:R6, *AR15--[2]
.LCFI0:
	.cfi_def_cfa_offset 16
	.cfi_offset 14, 0
		SADDA.M1		16,AR15,AR14
.LCFI1:
	.cfi_def_cfa 14, 0
		SNOP		1
		SMOVIL		-728, R6
		SMOVIL		-1, R7
		SADDA.M1		R7:R6,AR15,AR15
		SNOP		1
		SSTDW		R63:R62, *+AR15[91]
		SSTDW		R41:R40, *+AR15[90]
		SSTDW		R39:R38, *+AR15[89]
		SSTDW		R37:R36, *+AR15[88]
		SSTDW		R35:R34, *+AR15[87]
		SSTDW		R33:R32, *+AR15[86]
		SSTDW		R31:R30, *+AR15[85]
	.cfi_offset 78, -16
	.cfi_offset 79, -12
	.cfi_offset 56, -24
	.cfi_offset 57, -20
	.cfi_offset 54, -32
	.cfi_offset 55, -28
	.cfi_offset 52, -40
	.cfi_offset 53, -36
	.cfi_offset 50, -48
	.cfi_offset 51, -44
	.cfi_offset 48, -56
	.cfi_offset 49, -52
	.cfi_offset 46, -64
	.cfi_offset 47, -60
		SMOVIL		-132, R42
		SMOVIL		-1, R43
		SMOVIL		-64, R44
		SMOVIL		-1, R45
		SADDA.M1		R45:R44,AR14,OR11
		SNOP		1
		SADDA.M1		R43:R42,OR11,OR11
		SNOP		1
		SMVAAGL.M1		OR11, R43:R42
		SNOP		1
		SMVAAGH.M1		OR11, R43:R42
		SNOP		1
		SMVAGA36.M1		R43:R42, AR10
		SNOP		1
		SSTW		R10, *AR10
		SMOVIL		-136, R42
		SMOVIL		-1, R43
		SMOVIL		-64, R44
		SMOVIL		-1, R45
		SADDA.M1		R45:R44,AR14,OR11
		SNOP		1
		SADDA.M1		R43:R42,OR11,OR11
		SNOP		1
		SMVAAGL.M1		OR11, R43:R42
		SNOP		1
		SMVAAGH.M1		OR11, R43:R42
		SNOP		1
		SMVAGA36.M1		R43:R42, AR10
		SNOP		1
		SSTW		R12, *AR10
		SMOVIL		-144, R42
		SMOVIL		-1, R43
		SMOVIL		-64, R44
		SMOVIL		-1, R45
		SADDA.M1		R45:R44,AR14,OR11
		SNOP		1
		SADDA.M1		R43:R42,OR11,OR11
		SNOP		1
		SMVAAGL.M1		OR11, R43:R42
		SNOP		1
		SMVAAGH.M1		OR11, R43:R42
		SNOP		1
		SMVAGA36.M1		R43:R42, AR10
		SNOP		1
		SSTDW		R15:R14, *AR10
		SMOVIL		-152, R42
		SMOVIL		-1, R43
		SMOVIL		-64, R44
		SMOVIL		-1, R45
		SADDA.M1		R45:R44,AR14,OR11
		SNOP		1
		SADDA.M1		R43:R42,OR11,OR11
		SNOP		1
		SMVAAGL.M1		OR11, R43:R42
		SNOP		1
		SMVAAGH.M1		OR11, R43:R42
		SNOP		1
		SMVAGA36.M1		R43:R42, AR10
		SNOP		1
		SSTDW		R17:R16, *AR10
		SMOVIL		-160, R42
		SMOVIL		-1, R43
		SMOVIL		-64, R44
		SMOVIL		-1, R45
		SADDA.M1		R45:R44,AR14,OR11
		SNOP		1
		SADDA.M1		R43:R42,OR11,OR11
		SNOP		1
		SMVAAGL.M1		OR11, R43:R42
		SNOP		1
		SMVAAGH.M1		OR11, R43:R42
		SNOP		1
		SMVAGA36.M1		R43:R42, AR10
		SNOP		1
		SSTDW		R19:R18, *AR10
		SMOVIL		-168, R42
		SMOVIL		-1, R43
		SMOVIL		-64, R44
		SMOVIL		-1, R45
		SADDA.M1		R45:R44,AR14,OR11
		SNOP		1
		SADDA.M1		R43:R42,OR11,OR11
		SNOP		1
		SMVAAGL.M1		OR11, R43:R42
		SNOP		1
		SMVAAGH.M1		OR11, R43:R42
		SNOP		1
		SMVAGA36.M1		R43:R42, AR10
		SNOP		1
		SSTDW		R21:R20, *AR10
	.loc 1 20 0
		SMOVIL		-132, R42
		SMOVIL		-1, R43
		SMOVIL		-64, R44
		SMOVIL		-1, R45
		SADDA.M1		R45:R44,AR14,OR11
		SNOP		1
		SADDA.M1		R43:R42,OR11,OR11
		SNOP		1
		SMVAAGL.M1		OR11, R43:R42
		SNOP		1
		SMVAAGH.M1		OR11, R43:R42
		SNOP		1
		SMVAGA36.M1		R43:R42, AR10
		SNOP		1
		SLDW		*AR10, R48
		SNOP		5
		SMVAGA36.M1		R43:R42, AR10
		SNOP		1
		SLDW		*AR10, R42
		SNOP		5
		SSHFAR		31, R42, R42
		SMOV.M1		R42, R49
		SMOVIL		-136, R42
		SMOVIL		-1, R43
		SMOVIL		-64, R44
		SMOVIL		-1, R45
		SADDA.M1		R45:R44,AR14,OR11
		SNOP		1
		SADDA.M1		R43:R42,OR11,OR11
		SNOP		1
		SMVAAGL.M1		OR11, R43:R42
		SNOP		1
		SMVAAGH.M1		OR11, R43:R42
		SNOP		1
		SMVAGA36.M1		R43:R42, AR10
		SNOP		1
		SLDW		*AR10, R46
		SNOP		5
		SMVAGA36.M1		R43:R42, AR10
		SNOP		1
		SLDW		*AR10, R42
		SNOP		5
		SSHFAR		31, R42, R42
		SMOV.M1		R42, R47
		SMULIS.M1		R46,R49,R43
		SNOP		2
		SMULIS.M1		R48,R47,R42
		SNOP		2
		SADD.M1		R42,R43,R44
		SMULU.M1		R46,R48,R43:R42
		SNOP		3
		SADD.M1		R43,R44,R44
		SMOV.M1		R44, R43
		SSHFLR		28, R42, R44
		SSHFLL		4, R43, R51
		SOR		R51, R44, R51
		SSHFLL		4, R42, R50
		SMOVIL		-160, R42
		SMOVIL		-1, R43
		SMOVIL		-64, R46
		SMOVIL		-1, R47
		SADDA.M1		R47:R46,AR14,OR11
		SNOP		1
		SADDA.M1		R43:R42,OR11,OR11
		SNOP		1
		SMVAAGL.M1		OR11, R45:R44
		SNOP		1
		SMVAAGH.M1		OR11, R45:R44
		SNOP		1
		SMOVIL		-144, R42
		SMOVIL		-1, R43
		SMOVIL		-64, R46
		SMOVIL		-1, R47
		SADDA.M1		R47:R46,AR14,OR11
		SNOP		1
		SADDA.M1		R43:R42,OR11,OR11
		SNOP		1
		SMVAAGL.M1		OR11, R43:R42
		SNOP		1
		SMVAAGH.M1		OR11, R43:R42
		SNOP		1
		SMVAGA36.M1		R45:R44, AR10
		SNOP		1
		SLDDW		*AR10, R11:R10
		SNOP		5
		SMVAGA36.M1		R43:R42, AR10
		SNOP		1
		SLDDW		*AR10, R13:R12
		SNOP		5
		SMOV.M1		R50, R14
		SMOV.M1		R51, R15
		SBR		memcpy
		SMOVIL		.L36, R62
		SMOVIH		.L36, R62
		SMOVIH4.L		.L36, R63
		SNOP		4
.L36:
	.loc 1 21 0
		SMOVIL		-132, R42
		SMOVIL		-1, R43
		SMOVIL		-64, R44
		SMOVIL		-1, R45
		SADDA.M1		R45:R44,AR14,OR11
		SNOP		1
		SADDA.M1		R43:R42,OR11,OR11
		SNOP		1
		SMVAAGL.M1		OR11, R43:R42
		SNOP		1
		SMVAAGH.M1		OR11, R43:R42
		SNOP		1
		SMVAGA36.M1		R43:R42, AR10
		SNOP		1
		SLDW		*AR10, R32
		SNOP		5
		SMVAGA36.M1		R43:R42, AR10
		SNOP		1
		SLDW		*AR10, R42
		SNOP		5
		SSHFAR		31, R42, R42
		SMOV.M1		R42, R33
		SMOVIL		-132, R42
		SMOVIL		-1, R43
		SMOVIL		-64, R44
		SMOVIL		-1, R45
		SADDA.M1		R45:R44,AR14,OR11
		SNOP		1
		SADDA.M1		R43:R42,OR11,OR11
		SNOP		1
		SMVAAGL.M1		OR11, R43:R42
		SNOP		1
		SMVAAGH.M1		OR11, R43:R42
		SNOP		1
		SMVAGA36.M1		R43:R42, AR10
		SNOP		1
		SLDW		*AR10, R30
		SNOP		5
		SMVAGA36.M1		R43:R42, AR10
		SNOP		1
		SLDW		*AR10, R42
		SNOP		5
		SSHFAR		31, R42, R42
		SMOV.M1		R42, R31
		SMULIS.M1		R30,R33,R43
		SNOP		2
		SMULIS.M1		R32,R31,R42
		SNOP		2
		SADD.M1		R42,R43,R44
		SMULU.M1		R30,R32,R43:R42
		SNOP		3
		SADD.M1		R43,R44,R44
		SMOV.M1		R44, R43
		SSHFLR		28, R42, R44
		SSHFLL		4, R43, R35
		SOR		R35, R44, R35
		SSHFLL		4, R42, R34
		SMOVIL		-152, R42
		SMOVIL		-1, R43
		SMOVIL		-64, R44
		SMOVIL		-1, R45
		SADDA.M1		R45:R44,AR14,OR11
		SNOP		1
		SADDA.M1		R43:R42,OR11,OR11
		SNOP		1
		SMVAAGL.M1		OR11, R43:R42
		SNOP		1
		SMVAAGH.M1		OR11, R43:R42
		SNOP		1
		SMVAGA36.M1		R43:R42, AR10
		SNOP		1
		SLDDW		*AR10, R11:R10
		SNOP		5
		SMOVIL		0, R12
		SMOV.M1		R34, R14
		SMOV.M1		R35, R15
		SBR		memset
		SMOVIL		.L37, R62
		SMOVIH		.L37, R62
		SMOVIH4.L		.L37, R63
		SNOP		4
.L37:
	.loc 1 22 0
		SMOVIL		0, R42
		SMOVIL		-68, R44
		SMOVIL		-1, R45
		SADDA.M1		R45:R44,AR14,AR10
		SNOP		1
		SSTW		R42, *AR10
		SBR		.L2
		SNOP		6
.L3:
	.loc 1 24 0 discriminator 2
		SMOVIL		-132, R42
		SMOVIL		-1, R43
		SMOVIL		-64, R44
		SMOVIL		-1, R45
		SADDA.M1		R45:R44,AR14,OR11
		SNOP		1
		SADDA.M1		R43:R42,OR11,OR11
		SNOP		1
		SMVAAGL.M1		OR11, R43:R42
		SNOP		1
		SMVAAGH.M1		OR11, R43:R42
		SNOP		1
		SMVAGA36.M1		R43:R42, AR10
		SNOP		1
		SLDW		*AR10, R40
		SNOP		5
		SMVAGA36.M1		R43:R42, AR10
		SNOP		1
		SLDW		*AR10, R42
		SNOP		5
		SSHFAR		31, R42, R42
		SMOV.M1		R42, R41
		SMOVIL		1, R42
		SMOVIL		0, R43
		SADD.M1		R42,R40,R44
		SLTU		R44, R40, R46
		SADD.M1		R43,R41,R45
		SADD.M1		R45,R46,R42
		SMOV.M1		R42, R45
		SMOV.M1		R44, R42
		SMOV.M1		R45, R43
		SMOVIL		-68, R44
		SMOVIL		-1, R45
		SADDA.M1		R45:R44,AR14,AR10
		SNOP		1
		SLDW		*AR10, R38
		SNOP		5
		SMOVIL		-68, R46
		SMOVIL		-1, R47
		SADDA.M1		R47:R46,AR14,AR10
		SNOP		1
		SLDW		*AR10, R44
		SNOP		5
		SSHFAR		31, R44, R44
		SMOV.M1		R44, R39
		SMULIS.M1		R38,R43,R45
		SNOP		2
		SMULIS.M1		R42,R39,R44
		SNOP		2
		SADD.M1		R44,R45,R44
		SMULU.M1		R38,R42,R43:R42
		SNOP		3
		SADD.M1		R43,R44,R44
		SMOV.M1		R44, R43
		SSHFLR		28, R42, R44
		SSHFLL		4, R43, R37
		SOR		R37, R44, R37
		SSHFLL		4, R42, R36
		SMOVIL		-152, R42
		SMOVIL		-1, R43
		SMOVIL		-64, R44
		SMOVIL		-1, R45
		SADDA.M1		R45:R44,AR14,OR11
		SNOP		1
		SADDA.M1		R43:R42,OR11,OR11
		SNOP		1
		SMVAAGL.M1		OR11, R43:R42
		SNOP		1
		SMVAAGH.M1		OR11, R43:R42
		SNOP		1
		SMOV.M1		R36, R44
		SMOV.M1		R37, R45
	;no-op trunc di R45:R44 to pdi R45:R44
		SMVAGA36.M1		R43:R42, AR10
		SNOP		1
		SLDDW		*AR10, R43:R42
		SNOP		5
		SMVAGA36.M1		R43:R42, OR11
		SNOP		1
		SADDA.M1		R45:R44,OR11,OR11
		SNOP		1
		SMVAAGL.M1		OR11, R45:R44
		SNOP		1
		SMVAAGH.M1		OR11, R45:R44
		SNOP		1
		SMOVIL		0, R42
		SMOVIL		1072693248, R43
		SMOVIH		1072693248, R43
		SMVAGA36.M1		R45:R44, AR10
		SNOP		1
		SSTDW		R43:R42, *AR10
	.loc 1 22 0 discriminator 2
		SMOVIL		-68, R44
		SMOVIL		-1, R45
		SADDA.M1		R45:R44,AR14,AR10
		SNOP		1
		SLDW		*AR10, R42
		SNOP		5
		SADD.M1		1,R42,R42
		SMOVIL		-68, R44
		SMOVIL		-1, R45
		SADDA.M1		R45:R44,AR14,AR10
		SNOP		1
		SSTW		R42, *AR10
.L2:
	.loc 1 22 0 is_stmt 0 discriminator 1
		SMOVIL		-132, R42
		SMOVIL		-1, R43
		SMOVIL		-64, R44
		SMOVIL		-1, R45
		SADDA.M1		R45:R44,AR14,OR11
		SNOP		1
		SADDA.M1		R43:R42,OR11,OR11
		SNOP		1
		SMVAAGL.M1		OR11, R43:R42
		SNOP		1
		SMVAAGH.M1		OR11, R43:R42
		SNOP		1
		SMOVIL		-68, R46
		SMOVIL		-1, R47
		SADDA.M1		R47:R46,AR14,AR10
		SNOP		1
		SLDW		*AR10, R44
		SNOP		5
		SMVAGA36.M1		R43:R42, AR10
		SNOP		1
		SLDW		*AR10, R42
		SNOP		5
		SLT		R44, R42, R42
		SMOV.M1		R42, R0
	[R0]	SBR		.L3
		SNOP		6
	.loc 1 27 0 is_stmt 1
		SMOVIL		-132, R42
		SMOVIL		-1, R43
		SMOVIL		-64, R46
		SMOVIL		-1, R47
		SADDA.M1		R47:R46,AR14,OR11
		SNOP		1
		SADDA.M1		R43:R42,OR11,OR11
		SNOP		1
		SMVAAGL.M1		OR11, R45:R44
		SNOP		1
		SMVAAGH.M1		OR11, R45:R44
		SNOP		1
		SMOVIL		-136, R42
		SMOVIL		-1, R43
		SMOVIL		-64, R46
		SMOVIL		-1, R47
		SADDA.M1		R47:R46,AR14,OR11
		SNOP		1
		SADDA.M1		R43:R42,OR11,OR11
		SNOP		1
		SMVAAGL.M1		OR11, R43:R42
		SNOP		1
		SMVAAGH.M1		OR11, R43:R42
		SNOP		1
		SMVAGA36.M1		R45:R44, AR10
		SNOP		1
		SLDW		*AR10, R44
		SNOP		5
		SMVAGA36.M1		R43:R42, AR10
		SNOP		1
		SLDW		*AR10, R42
		SNOP		5
		SLT		R42, R44, R42
		SMOV.M1		R42, R0
	[R0]	SBR		.L4
		SNOP		6
	.loc 1 29 0
		SMOVIL		-132, R42
		SMOVIL		-1, R43
		SMOVIL		-64, R44
		SMOVIL		-1, R45
		SADDA.M1		R45:R44,AR14,OR11
		SNOP		1
		SADDA.M1		R43:R42,OR11,OR11
		SNOP		1
		SMVAAGL.M1		OR11, R43:R42
		SNOP		1
		SMVAAGH.M1		OR11, R43:R42
		SNOP		1
		SMVAGA36.M1		R43:R42, AR10
		SNOP		1
		SLDW		*AR10, R42
		SNOP		5
		SADD.M1		-2,R42,R42
		SMOVIL		-84, R44
		SMOVIL		-1, R45
		SADDA.M1		R45:R44,AR14,AR10
		SNOP		1
		SSTW		R42, *AR10
		SBR		.L5
		SNOP		6
.L4:
	.loc 1 33 0
		SMOVIL		-136, R42
		SMOVIL		-1, R43
		SMOVIL		-64, R44
		SMOVIL		-1, R45
		SADDA.M1		R45:R44,AR14,OR11
		SNOP		1
		SADDA.M1		R43:R42,OR11,OR11
		SNOP		1
		SMVAAGL.M1		OR11, R43:R42
		SNOP		1
		SMVAAGH.M1		OR11, R43:R42
		SNOP		1
		SMVAGA36.M1		R43:R42, AR10
		SNOP		1
		SLDW		*AR10, R42
		SNOP		5
		SADD.M1		-1,R42,R42
		SMOVIL		-84, R44
		SMOVIL		-1, R45
		SADDA.M1		R45:R44,AR14,AR10
		SNOP		1
		SSTW		R42, *AR10
.L5:
	.loc 1 35 0
		SMOVIL		-136, R42
		SMOVIL		-1, R43
		SMOVIL		-64, R44
		SMOVIL		-1, R45
		SADDA.M1		R45:R44,AR14,OR11
		SNOP		1
		SADDA.M1		R43:R42,OR11,OR11
		SNOP		1
		SMVAAGL.M1		OR11, R43:R42
		SNOP		1
		SMVAAGH.M1		OR11, R43:R42
		SNOP		1
		SMVAGA36.M1		R43:R42, AR10
		SNOP		1
		SLDW		*AR10, R42
		SNOP		5
		SSHFLL		1, R42, R42
		SMOVIL		-124, R44
		SMOVIL		-1, R45
		SADDA.M1		R45:R44,AR14,AR10
		SNOP		1
		SSTW		R42, *AR10
	.loc 1 36 0
		SMOVIL		-64, R42
		SMOVIL		-1, R43
		SMOVIL		-64, R46
		SMOVIL		-1, R47
		SADDA.M1		R47:R46,AR14,OR11
		SNOP		1
		SADDA.M1		R43:R42,OR11,OR11
		SNOP		1
		SMVAAGL.M1		OR11, R45:R44
		SNOP		1
		SMVAAGH.M1		OR11, R45:R44
		SNOP		1
		SMOVIL		-132, R42
		SMOVIL		-1, R43
		SMOVIL		-64, R46
		SMOVIL		-1, R47
		SADDA.M1		R47:R46,AR14,OR11
		SNOP		1
		SADDA.M1		R43:R42,OR11,OR11
		SNOP		1
		SMVAAGL.M1		OR11, R43:R42
		SNOP		1
		SMVAAGH.M1		OR11, R43:R42
		SNOP		1
		SMVAGA36.M1		R43:R42, AR10
		SNOP		1
		SLDW		*AR10, R42
		SNOP		5
		SSHFLL		1, R42, R42
		SMVAGA36.M1		R45:R44, AR10
		SNOP		1
		SSTW		R42, *AR10
	.loc 1 37 0
		SMOVIL		0, R42
		SMOVIL		-72, R44
		SMOVIL		-1, R45
		SADDA.M1		R45:R44,AR14,AR10
		SNOP		1
		SSTW		R42, *AR10
		SBR		.L6
		SNOP		6
.L28:
	.loc 1 39 0
		SMOVIL		0, R42
		SMOVIL		0, R43
		SSTDW		R43:R42, *-AR14[14]
	.loc 1 40 0
		SMOVIL		-72, R44
		SMOVIL		-1, R45
		SADDA.M1		R45:R44,AR14,AR10
		SNOP		1
		SLDW		*AR10, R42
		SNOP		5
		SMOVIL		-68, R44
		SMOVIL		-1, R45
		SADDA.M1		R45:R44,AR14,AR10
		SNOP		1
		SSTW		R42, *AR10
		SBR		.L7
		SNOP		6
.L8:
	.loc 1 42 0 discriminator 2
		SMOVIL		-72, R44
		SMOVIL		-1, R45
		SADDA.M1		R45:R44,AR14,AR10
		SNOP		1
		SLDW		*AR10, R42
		SNOP		5
		SSHFLL		1, R42, R44
		SMOVIL		-68, R46
		SMOVIL		-1, R47
		SADDA.M1		R47:R46,AR14,AR10
		SNOP		1
		SLDW		*AR10, R43
		SNOP		5
		SMOVIL		-124, R46
		SMOVIL		-1, R47
		SADDA.M1		R47:R46,AR14,AR10
		SNOP		1
		SLDW		*AR10, R42
		SNOP		5
		SMULIS.M1		R42,R43,R42
		SNOP		2
		SADD.M1		R42,R44,R42
		SMOVIL		-240, R44
		SMOVIL		-1, R45
		SADDA.M1		R45:R44,AR14,AR10
		SNOP		1
		SSTW		R42, *AR10
		SSHFAR		31, R42, R42
		SMOVIL		-236, R44
		SMOVIL		-1, R45
		SADDA.M1		R45:R44,AR14,AR10
		SNOP		1
		SSTW		R42, *AR10
		SMOVIL		-240, R42
		SMOVIL		-1, R43
		SADDA.M1		R43:R42,AR14,AR10
		SNOP		1
		SLDW		*AR10, R46
		SNOP		5
		SMOVIL		-240, R42
		SMOVIL		-1, R43
		SADDA.M1		R43:R42,AR14,AR10
		SNOP		1
		SLDW		*AR10, R42
		SNOP		5
		SADD.M1		R42,R46,R44
		SMOVIL		-240, R46
		SMOVIL		-1, R47
		SADDA.M1		R47:R46,AR14,AR10
		SNOP		1
		SLDW		*AR10, R43
		SNOP		5
		SLTU		R44, R43, R42
		SMOVIL		-236, R46
		SMOVIL		-1, R47
		SADDA.M1		R47:R46,AR14,AR10
		SNOP		1
		SLDW		*AR10, R43
		SNOP		5
		SMOVIL		-236, R46
		SMOVIL		-1, R47
		SADDA.M1		R47:R46,AR14,AR10
		SNOP		1
		SLDW		*AR10, R46
		SNOP		5
		SADD.M1		R46,R43,R45
		SADD.M1		R45,R42,R42
		SMOV.M1		R42, R45
		SADD.M1		R44,R44,R42
		SLTU		R42, R44, R46
		SADD.M1		R45,R45,R43
		SADD.M1		R43,R46,R44
		SMOV.M1		R44, R43
		SADD.M1		R42,R42,R44
		SLTU		R44, R42, R46
		SADD.M1		R43,R43,R45
		SADD.M1		R45,R46,R42
		SMOV.M1		R42, R45
		SMOVIL		-160, R42
		SMOVIL		-1, R43
		SMOVIL		-64, R48
		SMOVIL		-1, R49
		SADDA.M1		R49:R48,AR14,OR11
		SNOP		1
		SADDA.M1		R43:R42,OR11,OR11
		SNOP		1
		SMVAAGL.M1		OR11, R43:R42
		SNOP		1
		SMVAAGH.M1		OR11, R43:R42
		SNOP		1
	;no-op trunc di R45:R44 to pdi R45:R44
		SMVAGA36.M1		R43:R42, AR10
		SNOP		1
		SLDDW		*AR10, R43:R42
		SNOP		5
		SMVAGA36.M1		R43:R42, OR11
		SNOP		1
		SADDA.M1		R45:R44,OR11,OR11
		SNOP		1
		SMVAAGL.M1		OR11, R43:R42
		SNOP		1
		SMVAAGH.M1		OR11, R43:R42
		SNOP		1
		SMVAGA36.M1		R43:R42, AR10
		SNOP		1
		SLDDW		*AR10, R43:R42
		SNOP		5
		SMOVIL		-136, R44
		SMOVIL		-1, R45
		SADDA.M1		R45:R44,AR14,AR10
		SNOP		1
		SSTDW		R43:R42, *AR10
	.loc 1 43 0 discriminator 2
		SMOVIL		-72, R44
		SMOVIL		-1, R45
		SADDA.M1		R45:R44,AR14,AR10
		SNOP		1
		SLDW		*AR10, R42
		SNOP		5
		SSHFLL		1, R42, R42
		SADD.M1		1,R42,R44
		SMOVIL		-68, R46
		SMOVIL		-1, R47
		SADDA.M1		R47:R46,AR14,AR10
		SNOP		1
		SLDW		*AR10, R43
		SNOP		5
		SMOVIL		-124, R46
		SMOVIL		-1, R47
		SADDA.M1		R47:R46,AR14,AR10
		SNOP		1
		SLDW		*AR10, R42
		SNOP		5
		SMULIS.M1		R42,R43,R42
		SNOP		2
		SADD.M1		R42,R44,R42
		SMOVIL		-248, R44
		SMOVIL		-1, R45
		SADDA.M1		R45:R44,AR14,AR10
		SNOP		1
		SSTW		R42, *AR10
		SSHFAR		31, R42, R42
		SMOVIL		-244, R44
		SMOVIL		-1, R45
		SADDA.M1		R45:R44,AR14,AR10
		SNOP		1
		SSTW		R42, *AR10
		SMOVIL		-248, R42
		SMOVIL		-1, R43
		SADDA.M1		R43:R42,AR14,AR10
		SNOP		1
		SLDW		*AR10, R46
		SNOP		5
		SMOVIL		-248, R42
		SMOVIL		-1, R43
		SADDA.M1		R43:R42,AR14,AR10
		SNOP		1
		SLDW		*AR10, R42
		SNOP		5
		SADD.M1		R42,R46,R44
		SMOVIL		-248, R46
		SMOVIL		-1, R47
		SADDA.M1		R47:R46,AR14,AR10
		SNOP		1
		SLDW		*AR10, R43
		SNOP		5
		SLTU		R44, R43, R42
		SMOVIL		-244, R46
		SMOVIL		-1, R47
		SADDA.M1		R47:R46,AR14,AR10
		SNOP		1
		SLDW		*AR10, R43
		SNOP		5
		SMOVIL		-244, R46
		SMOVIL		-1, R47
		SADDA.M1		R47:R46,AR14,AR10
		SNOP		1
		SLDW		*AR10, R46
		SNOP		5
		SADD.M1		R46,R43,R45
		SADD.M1		R45,R42,R42
		SMOV.M1		R42, R45
		SADD.M1		R44,R44,R42
		SLTU		R42, R44, R46
		SADD.M1		R45,R45,R43
		SADD.M1		R43,R46,R44
		SMOV.M1		R44, R43
		SADD.M1		R42,R42,R44
		SLTU		R44, R42, R46
		SADD.M1		R43,R43,R45
		SADD.M1		R45,R46,R42
		SMOV.M1		R42, R45
		SMOVIL		-160, R42
		SMOVIL		-1, R43
		SMOVIL		-64, R48
		SMOVIL		-1, R49
		SADDA.M1		R49:R48,AR14,OR11
		SNOP		1
		SADDA.M1		R43:R42,OR11,OR11
		SNOP		1
		SMVAAGL.M1		OR11, R43:R42
		SNOP		1
		SMVAAGH.M1		OR11, R43:R42
		SNOP		1
	;no-op trunc di R45:R44 to pdi R45:R44
		SMVAGA36.M1		R43:R42, AR10
		SNOP		1
		SLDDW		*AR10, R43:R42
		SNOP		5
		SMVAGA36.M1		R43:R42, OR11
		SNOP		1
		SADDA.M1		R45:R44,OR11,OR11
		SNOP		1
		SMVAAGL.M1		OR11, R43:R42
		SNOP		1
		SMVAAGH.M1		OR11, R43:R42
		SNOP		1
		SMVAGA36.M1		R43:R42, AR10
		SNOP		1
		SLDDW		*AR10, R43:R42
		SNOP		5
		SMOVIL		-144, R44
		SMOVIL		-1, R45
		SADDA.M1		R45:R44,AR14,AR10
		SNOP		1
		SSTDW		R43:R42, *AR10
	.loc 1 44 0 discriminator 2
		SMOVIL		-136, R42
		SMOVIL		-1, R43
		SADDA.M1		R43:R42,AR14,AR10
		SNOP		1
		SLDDW		*AR10, R45:R44
		SNOP		5
		SMOVIL		-136, R46
		SMOVIL		-1, R47
		SADDA.M1		R47:R46,AR14,AR10
		SNOP		1
		SLDDW		*AR10, R43:R42
		SNOP		5
		SFMULD.M1		R45:R44, R43:R42, R47:R46
		SNOP		5
		SMOVIL		-144, R42
		SMOVIL		-1, R43
		SADDA.M1		R43:R42,AR14,AR10
		SNOP		1
		SLDDW		*AR10, R45:R44
		SNOP		5
		SMOVIL		-144, R48
		SMOVIL		-1, R49
		SADDA.M1		R49:R48,AR14,AR10
		SNOP		1
		SLDDW		*AR10, R43:R42
		SNOP		5
		SFMULD.M1		R45:R44, R43:R42, R43:R42
		SNOP		5
		SFADDD.M1		R47:R46, R43:R42, R45:R44
		SNOP		4
		SLDDW		*-AR14[14], R43:R42
		SNOP		5
		SFADDD.M1		R43:R42, R45:R44, R43:R42
		SNOP		4
		SSTDW		R43:R42, *-AR14[14]
	.loc 1 40 0 discriminator 2
		SMOVIL		-68, R44
		SMOVIL		-1, R45
		SADDA.M1		R45:R44,AR14,AR10
		SNOP		1
		SLDW		*AR10, R42
		SNOP		5
		SADD.M1		1,R42,R42
		SMOVIL		-68, R44
		SMOVIL		-1, R45
		SADDA.M1		R45:R44,AR14,AR10
		SNOP		1
		SSTW		R42, *AR10
.L7:
	.loc 1 40 0 is_stmt 0 discriminator 1
		SMOVIL		-132, R42
		SMOVIL		-1, R43
		SMOVIL		-64, R44
		SMOVIL		-1, R45
		SADDA.M1		R45:R44,AR14,OR11
		SNOP		1
		SADDA.M1		R43:R42,OR11,OR11
		SNOP		1
		SMVAAGL.M1		OR11, R43:R42
		SNOP		1
		SMVAAGH.M1		OR11, R43:R42
		SNOP		1
		SMOVIL		-68, R46
		SMOVIL		-1, R47
		SADDA.M1		R47:R46,AR14,AR10
		SNOP		1
		SLDW		*AR10, R44
		SNOP		5
		SMVAGA36.M1		R43:R42, AR10
		SNOP		1
		SLDW		*AR10, R42
		SNOP		5
		SLT		R44, R42, R42
		SMOV.M1		R42, R0
	[R0]	SBR		.L8
		SNOP		6
	.loc 1 46 0 is_stmt 1
		SLDDW		*-AR14[14], R45:R44
		SNOP		5
		SMOVIL		0, R42
		SMOVIL		0, R43
		SFCMPED.M1		R45:R44, R43:R42, R42
		SNOP		1
		SMOV.M1		R42, R0
	[R0]	SBR		.L9
		SNOP		6
	.loc 1 48 0
		SLDDW		*-AR14[14], R11:R10
		SNOP		5
		SBR		sqrt
		SMOVIL		.L38, R62
		SMOVIH		.L38, R62
		SMOVIH4.L		.L38, R63
		SNOP		4
.L38:
		SMOV.M1		R10, R42
		SMOV.M1		R11, R43
		SMOVIL		-120, R44
		SMOVIL		-1, R45
		SADDA.M1		R45:R44,AR14,AR10
		SNOP		1
		SSTW		R42, *AR10
		SMOVIL		-2147483648, R44
		SMOVIH		-2147483648, R44
		SXOR		R44, R43, R42
		SMOVIL		-116, R44
		SMOVIL		-1, R45
		SADDA.M1		R45:R44,AR14,AR10
		SNOP		1
		SSTW		R42, *AR10
	.loc 1 49 0
		SMOVIL		-124, R44
		SMOVIL		-1, R45
		SADDA.M1		R45:R44,AR14,AR10
		SNOP		1
		SLDW		*AR10, R42
		SNOP		5
		SADD.M1		2,R42,R43
		SMOVIL		-72, R44
		SMOVIL		-1, R45
		SADDA.M1		R45:R44,AR14,AR10
		SNOP		1
		SLDW		*AR10, R42
		SNOP		5
		SMULIS.M1		R42,R43,R42
		SNOP		2
		SMOVIL		-256, R44
		SMOVIL		-1, R45
		SADDA.M1		R45:R44,AR14,AR10
		SNOP		1
		SSTW		R42, *AR10
		SSHFAR		31, R42, R42
		SMOVIL		-252, R44
		SMOVIL		-1, R45
		SADDA.M1		R45:R44,AR14,AR10
		SNOP		1
		SSTW		R42, *AR10
		SMOVIL		-256, R42
		SMOVIL		-1, R43
		SADDA.M1		R43:R42,AR14,AR10
		SNOP		1
		SLDW		*AR10, R46
		SNOP		5
		SMOVIL		-256, R42
		SMOVIL		-1, R43
		SADDA.M1		R43:R42,AR14,AR10
		SNOP		1
		SLDW		*AR10, R42
		SNOP		5
		SADD.M1		R42,R46,R44
		SMOVIL		-256, R46
		SMOVIL		-1, R47
		SADDA.M1		R47:R46,AR14,AR10
		SNOP		1
		SLDW		*AR10, R43
		SNOP		5
		SLTU		R44, R43, R42
		SMOVIL		-252, R46
		SMOVIL		-1, R47
		SADDA.M1		R47:R46,AR14,AR10
		SNOP		1
		SLDW		*AR10, R43
		SNOP		5
		SMOVIL		-252, R46
		SMOVIL		-1, R47
		SADDA.M1		R47:R46,AR14,AR10
		SNOP		1
		SLDW		*AR10, R46
		SNOP		5
		SADD.M1		R46,R43,R45
		SADD.M1		R45,R42,R42
		SMOV.M1		R42, R45
		SADD.M1		R44,R44,R42
		SLTU		R42, R44, R46
		SADD.M1		R45,R45,R43
		SADD.M1		R43,R46,R44
		SMOV.M1		R44, R43
		SADD.M1		R42,R42,R44
		SLTU		R44, R42, R46
		SADD.M1		R43,R43,R45
		SADD.M1		R45,R46,R42
		SMOV.M1		R42, R45
		SMOVIL		-160, R42
		SMOVIL		-1, R43
		SMOVIL		-64, R48
		SMOVIL		-1, R49
		SADDA.M1		R49:R48,AR14,OR11
		SNOP		1
		SADDA.M1		R43:R42,OR11,OR11
		SNOP		1
		SMVAAGL.M1		OR11, R43:R42
		SNOP		1
		SMVAAGH.M1		OR11, R43:R42
		SNOP		1
	;no-op trunc di R45:R44 to pdi R45:R44
		SMVAGA36.M1		R43:R42, AR10
		SNOP		1
		SLDDW		*AR10, R43:R42
		SNOP		5
		SMVAGA36.M1		R43:R42, OR11
		SNOP		1
		SADDA.M1		R45:R44,OR11,OR11
		SNOP		1
		SMVAAGL.M1		OR11, R43:R42
		SNOP		1
		SMVAAGH.M1		OR11, R43:R42
		SNOP		1
		SMVAGA36.M1		R43:R42, AR10
		SNOP		1
		SLDDW		*AR10, R45:R44
		SNOP		5
		SMOVIL		0, R42
		SMOVIL		0, R43
		SFCMPGD.M1		R45:R44, R43:R42, R46
		SNOP		1
		SMOV.M1		R46, R0
	[!R0]	SFCMPED.M1		R45:R44, R43:R42, R0
		SNOP		1
		SMOV.M1		R0, R46
		SMOV.M1		R46, R0
	[!R0]	SBR		.L10
		SNOP		6
.L34:
	.loc 1 51 0
		SMOVIL		-120, R44
		SMOVIL		-1, R45
		SADDA.M1		R45:R44,AR14,AR10
		SNOP		1
		SLDW		*AR10, R42
		SNOP		5
		SMOVIL		-120, R44
		SMOVIL		-1, R45
		SADDA.M1		R45:R44,AR14,AR10
		SNOP		1
		SSTW		R42, *AR10
		SMOVIL		-116, R44
		SMOVIL		-1, R45
		SADDA.M1		R45:R44,AR14,AR10
		SNOP		1
		SLDW		*AR10, R43
		SNOP		5
		SMOVIL		-2147483648, R42
		SMOVIH		-2147483648, R42
		SXOR		R42, R43, R42
		SMOVIL		-116, R44
		SMOVIL		-1, R45
		SADDA.M1		R45:R44,AR14,AR10
		SNOP		1
		SSTW		R42, *AR10
.L10:
	.loc 1 53 0
		SMOVIL		-72, R42
		SMOVIL		-1, R43
		SADDA.M1		R43:R42,AR14,AR10
		SNOP		1
		SLDW		*AR10, R44
		SNOP		5
		SMOVIL		-264, R42
		SMOVIL		-1, R43
		SADDA.M1		R43:R42,AR14,AR10
		SNOP		1
		SSTW		R44, *AR10
		SMOVIL		-72, R44
		SMOVIL		-1, R45
		SADDA.M1		R45:R44,AR14,AR10
		SNOP		1
		SLDW		*AR10, R42
		SNOP		5
		SSHFAR		31, R42, R42
		SMOVIL		-260, R44
		SMOVIL		-1, R45
		SADDA.M1		R45:R44,AR14,AR10
		SNOP		1
		SSTW		R42, *AR10
		SMOVIL		-264, R44
		SMOVIL		-1, R45
		SADDA.M1		R45:R44,AR14,AR10
		SNOP		1
		SLDW		*AR10, R43
		SNOP		5
		SSHFLR		28, R43, R42
		SMOVIL		-260, R44
		SMOVIL		-1, R45
		SADDA.M1		R45:R44,AR14,AR10
		SNOP		1
		SLDW		*AR10, R43
		SNOP		5
		SSHFLL		4, R43, R43
		SMOVIL		-268, R44
		SMOVIL		-1, R45
		SADDA.M1		R45:R44,AR14,AR10
		SNOP		1
		SSTW		R43, *AR10
		SMOVIL		-268, R44
		SMOVIL		-1, R45
		SADDA.M1		R45:R44,AR14,AR10
		SNOP		1
		SLDW		*AR10, R43
		SNOP		5
		SOR		R43, R42, R43
		SMOVIL		-268, R44
		SMOVIL		-1, R45
		SADDA.M1		R45:R44,AR14,AR10
		SNOP		1
		SSTW		R43, *AR10
		SMOVIL		-264, R42
		SMOVIL		-1, R43
		SADDA.M1		R43:R42,AR14,AR10
		SNOP		1
		SLDW		*AR10, R42
		SNOP		5
		SSHFLL		4, R42, R44
		SMOVIL		-272, R42
		SMOVIL		-1, R43
		SADDA.M1		R43:R42,AR14,AR10
		SNOP		1
		SSTW		R44, *AR10
		SMOVIL		-168, R42
		SMOVIL		-1, R43
		SMOVIL		-64, R44
		SMOVIL		-1, R45
		SADDA.M1		R45:R44,AR14,OR11
		SNOP		1
		SADDA.M1		R43:R42,OR11,OR11
		SNOP		1
		SMVAAGL.M1		OR11, R43:R42
		SNOP		1
		SMVAAGH.M1		OR11, R43:R42
		SNOP		1
		SMOVIL		-272, R46
		SMOVIL		-1, R47
		SADDA.M1		R47:R46,AR14,AR10
		SNOP		1
		SLDDW		*AR10, R45:R44
		SNOP		5
	;no-op trunc di R45:R44 to pdi R45:R44
		SMVAGA36.M1		R43:R42, AR10
		SNOP		1
		SLDDW		*AR10, R43:R42
		SNOP		5
		SMVAGA36.M1		R43:R42, OR11
		SNOP		1
		SADDA.M1		R45:R44,OR11,OR11
		SNOP		1
		SMVAAGL.M1		OR11, R49:R48
		SNOP		1
		SMVAAGH.M1		OR11, R49:R48
		SNOP		1
		SMOVIL		-124, R44
		SMOVIL		-1, R45
		SADDA.M1		R45:R44,AR14,AR10
		SNOP		1
		SLDW		*AR10, R42
		SNOP		5
		SADD.M1		2,R42,R43
		SMOVIL		-72, R44
		SMOVIL		-1, R45
		SADDA.M1		R45:R44,AR14,AR10
		SNOP		1
		SLDW		*AR10, R42
		SNOP		5
		SMULIS.M1		R42,R43,R42
		SNOP		2
		SMOVIL		-280, R44
		SMOVIL		-1, R45
		SADDA.M1		R45:R44,AR14,AR10
		SNOP		1
		SSTW		R42, *AR10
		SSHFAR		31, R42, R42
		SMOVIL		-276, R44
		SMOVIL		-1, R45
		SADDA.M1		R45:R44,AR14,AR10
		SNOP		1
		SSTW		R42, *AR10
		SMOVIL		-280, R42
		SMOVIL		-1, R43
		SADDA.M1		R43:R42,AR14,AR10
		SNOP		1
		SLDW		*AR10, R46
		SNOP		5
		SMOVIL		-280, R42
		SMOVIL		-1, R43
		SADDA.M1		R43:R42,AR14,AR10
		SNOP		1
		SLDW		*AR10, R42
		SNOP		5
		SADD.M1		R42,R46,R44
		SMOVIL		-280, R46
		SMOVIL		-1, R47
		SADDA.M1		R47:R46,AR14,AR10
		SNOP		1
		SLDW		*AR10, R43
		SNOP		5
		SLTU		R44, R43, R42
		SMOVIL		-276, R46
		SMOVIL		-1, R47
		SADDA.M1		R47:R46,AR14,AR10
		SNOP		1
		SLDW		*AR10, R43
		SNOP		5
		SMOVIL		-276, R46
		SMOVIL		-1, R47
		SADDA.M1		R47:R46,AR14,AR10
		SNOP		1
		SLDW		*AR10, R46
		SNOP		5
		SADD.M1		R46,R43,R45
		SADD.M1		R45,R42,R42
		SMOV.M1		R42, R45
		SADD.M1		R44,R44,R42
		SLTU		R42, R44, R46
		SADD.M1		R45,R45,R43
		SADD.M1		R43,R46,R44
		SMOV.M1		R44, R43
		SADD.M1		R42,R42,R44
		SLTU		R44, R42, R46
		SADD.M1		R43,R43,R45
		SADD.M1		R45,R46,R42
		SMOV.M1		R42, R45
		SMOVIL		-160, R42
		SMOVIL		-1, R43
		SMOVIL		-64, R52
		SMOVIL		-1, R53
		SADDA.M1		R53:R52,AR14,OR11
		SNOP		1
		SADDA.M1		R43:R42,OR11,OR11
		SNOP		1
		SMVAAGL.M1		OR11, R43:R42
		SNOP		1
		SMVAAGH.M1		OR11, R43:R42
		SNOP		1
	;no-op trunc di R45:R44 to pdi R45:R44
		SMVAGA36.M1		R43:R42, AR10
		SNOP		1
		SLDDW		*AR10, R43:R42
		SNOP		5
		SMVAGA36.M1		R43:R42, OR11
		SNOP		1
		SADDA.M1		R45:R44,OR11,OR11
		SNOP		1
		SMVAAGL.M1		OR11, R43:R42
		SNOP		1
		SMVAAGH.M1		OR11, R43:R42
		SNOP		1
		SMVAGA36.M1		R43:R42, AR10
		SNOP		1
		SLDDW		*AR10, R45:R44
		SNOP		5
		SLDDW		*-AR14[15], R43:R42
		SNOP		5
		SFADDD.M1		R45:R44, R43:R42, R43:R42
		SNOP		4
		SMVAGA36.M1		R49:R48, AR10
		SNOP		1
		SSTDW		R43:R42, *AR10
	.loc 1 54 0
		SMOVIL		-72, R42
		SMOVIL		-1, R43
		SADDA.M1		R43:R42,AR14,AR10
		SNOP		1
		SLDW		*AR10, R44
		SNOP		5
		SMOVIL		-288, R42
		SMOVIL		-1, R43
		SADDA.M1		R43:R42,AR14,AR10
		SNOP		1
		SSTW		R44, *AR10
		SMOVIL		-72, R44
		SMOVIL		-1, R45
		SADDA.M1		R45:R44,AR14,AR10
		SNOP		1
		SLDW		*AR10, R42
		SNOP		5
		SSHFAR		31, R42, R42
		SMOVIL		-284, R44
		SMOVIL		-1, R45
		SADDA.M1		R45:R44,AR14,AR10
		SNOP		1
		SSTW		R42, *AR10
		SMOVIL		-288, R44
		SMOVIL		-1, R45
		SADDA.M1		R45:R44,AR14,AR10
		SNOP		1
		SLDW		*AR10, R43
		SNOP		5
		SSHFLR		28, R43, R42
		SMOVIL		-284, R44
		SMOVIL		-1, R45
		SADDA.M1		R45:R44,AR14,AR10
		SNOP		1
		SLDW		*AR10, R43
		SNOP		5
		SSHFLL		4, R43, R43
		SMOVIL		-292, R44
		SMOVIL		-1, R45
		SADDA.M1		R45:R44,AR14,AR10
		SNOP		1
		SSTW		R43, *AR10
		SMOVIL		-292, R44
		SMOVIL		-1, R45
		SADDA.M1		R45:R44,AR14,AR10
		SNOP		1
		SLDW		*AR10, R43
		SNOP		5
		SOR		R43, R42, R43
		SMOVIL		-292, R44
		SMOVIL		-1, R45
		SADDA.M1		R45:R44,AR14,AR10
		SNOP		1
		SSTW		R43, *AR10
		SMOVIL		-288, R42
		SMOVIL		-1, R43
		SADDA.M1		R43:R42,AR14,AR10
		SNOP		1
		SLDW		*AR10, R42
		SNOP		5
		SSHFLL		4, R42, R44
		SMOVIL		-296, R42
		SMOVIL		-1, R43
		SADDA.M1		R43:R42,AR14,AR10
		SNOP		1
		SSTW		R44, *AR10
		SMOVIL		8, R42
		SMOVIL		0, R43
		SMOVIL		-296, R46
		SMOVIL		-1, R47
		SADDA.M1		R47:R46,AR14,AR10
		SNOP		1
		SLDW		*AR10, R46
		SNOP		5
		SADD.M1		R42,R46,R44
		SMOVIL		-296, R48
		SMOVIL		-1, R49
		SADDA.M1		R49:R48,AR14,AR10
		SNOP		1
		SLDW		*AR10, R47
		SNOP		5
		SLTU		R44, R47, R46
		SMOVIL		-292, R48
		SMOVIL		-1, R49
		SADDA.M1		R49:R48,AR14,AR10
		SNOP		1
		SLDW		*AR10, R47
		SNOP		5
		SADD.M1		R43,R47,R45
		SADD.M1		R45,R46,R42
		SMOV.M1		R42, R45
		SMOVIL		-168, R42
		SMOVIL		-1, R43
		SMOVIL		-64, R48
		SMOVIL		-1, R49
		SADDA.M1		R49:R48,AR14,OR11
		SNOP		1
		SADDA.M1		R43:R42,OR11,OR11
		SNOP		1
		SMVAAGL.M1		OR11, R43:R42
		SNOP		1
		SMVAAGH.M1		OR11, R43:R42
		SNOP		1
	;no-op trunc di R45:R44 to pdi R45:R44
		SMVAGA36.M1		R43:R42, AR10
		SNOP		1
		SLDDW		*AR10, R43:R42
		SNOP		5
		SMVAGA36.M1		R43:R42, OR11
		SNOP		1
		SADDA.M1		R45:R44,OR11,OR11
		SNOP		1
		SMVAAGL.M1		OR11, R49:R48
		SNOP		1
		SMVAAGH.M1		OR11, R49:R48
		SNOP		1
		SMOVIL		-72, R44
		SMOVIL		-1, R45
		SADDA.M1		R45:R44,AR14,AR10
		SNOP		1
		SLDW		*AR10, R42
		SNOP		5
		SSHFLL		1, R42, R42
		SADD.M1		1,R42,R44
		SMOVIL		-72, R46
		SMOVIL		-1, R47
		SADDA.M1		R47:R46,AR14,AR10
		SNOP		1
		SLDW		*AR10, R43
		SNOP		5
		SMOVIL		-124, R46
		SMOVIL		-1, R47
		SADDA.M1		R47:R46,AR14,AR10
		SNOP		1
		SLDW		*AR10, R42
		SNOP		5
		SMULIS.M1		R42,R43,R42
		SNOP		2
		SADD.M1		R42,R44,R42
		SMOVIL		-304, R44
		SMOVIL		-1, R45
		SADDA.M1		R45:R44,AR14,AR10
		SNOP		1
		SSTW		R42, *AR10
		SSHFAR		31, R42, R42
		SMOVIL		-300, R44
		SMOVIL		-1, R45
		SADDA.M1		R45:R44,AR14,AR10
		SNOP		1
		SSTW		R42, *AR10
		SMOVIL		-304, R42
		SMOVIL		-1, R43
		SADDA.M1		R43:R42,AR14,AR10
		SNOP		1
		SLDW		*AR10, R46
		SNOP		5
		SMOVIL		-304, R42
		SMOVIL		-1, R43
		SADDA.M1		R43:R42,AR14,AR10
		SNOP		1
		SLDW		*AR10, R42
		SNOP		5
		SADD.M1		R42,R46,R44
		SMOVIL		-304, R46
		SMOVIL		-1, R47
		SADDA.M1		R47:R46,AR14,AR10
		SNOP		1
		SLDW		*AR10, R43
		SNOP		5
		SLTU		R44, R43, R42
		SMOVIL		-300, R46
		SMOVIL		-1, R47
		SADDA.M1		R47:R46,AR14,AR10
		SNOP		1
		SLDW		*AR10, R43
		SNOP		5
		SMOVIL		-300, R46
		SMOVIL		-1, R47
		SADDA.M1		R47:R46,AR14,AR10
		SNOP		1
		SLDW		*AR10, R46
		SNOP		5
		SADD.M1		R46,R43,R45
		SADD.M1		R45,R42,R42
		SMOV.M1		R42, R45
		SADD.M1		R44,R44,R42
		SLTU		R42, R44, R46
		SADD.M1		R45,R45,R43
		SADD.M1		R43,R46,R44
		SMOV.M1		R44, R43
		SADD.M1		R42,R42,R44
		SLTU		R44, R42, R46
		SADD.M1		R43,R43,R45
		SADD.M1		R45,R46,R42
		SMOV.M1		R42, R45
		SMOVIL		-160, R42
		SMOVIL		-1, R43
		SMOVIL		-64, R52
		SMOVIL		-1, R53
		SADDA.M1		R53:R52,AR14,OR11
		SNOP		1
		SADDA.M1		R43:R42,OR11,OR11
		SNOP		1
		SMVAAGL.M1		OR11, R43:R42
		SNOP		1
		SMVAAGH.M1		OR11, R43:R42
		SNOP		1
	;no-op trunc di R45:R44 to pdi R45:R44
		SMVAGA36.M1		R43:R42, AR10
		SNOP		1
		SLDDW		*AR10, R43:R42
		SNOP		5
		SMVAGA36.M1		R43:R42, OR11
		SNOP		1
		SADDA.M1		R45:R44,OR11,OR11
		SNOP		1
		SMVAAGL.M1		OR11, R43:R42
		SNOP		1
		SMVAAGH.M1		OR11, R43:R42
		SNOP		1
		SMVAGA36.M1		R43:R42, AR10
		SNOP		1
		SLDDW		*AR10, R43:R42
		SNOP		5
		SMVAGA36.M1		R49:R48, AR10
		SNOP		1
		SSTDW		R43:R42, *AR10
	.loc 1 55 0
		SMOVIL		-124, R44
		SMOVIL		-1, R45
		SADDA.M1		R45:R44,AR14,AR10
		SNOP		1
		SLDW		*AR10, R42
		SNOP		5
		SADD.M1		2,R42,R43
		SMOVIL		-72, R44
		SMOVIL		-1, R45
		SADDA.M1		R45:R44,AR14,AR10
		SNOP		1
		SLDW		*AR10, R42
		SNOP		5
		SMULIS.M1		R42,R43,R42
		SNOP		2
		SMOVIL		-312, R44
		SMOVIL		-1, R45
		SADDA.M1		R45:R44,AR14,AR10
		SNOP		1
		SSTW		R42, *AR10
		SSHFAR		31, R42, R42
		SMOVIL		-308, R44
		SMOVIL		-1, R45
		SADDA.M1		R45:R44,AR14,AR10
		SNOP		1
		SSTW		R42, *AR10
		SMOVIL		-312, R42
		SMOVIL		-1, R43
		SADDA.M1		R43:R42,AR14,AR10
		SNOP		1
		SLDW		*AR10, R46
		SNOP		5
		SMOVIL		-312, R42
		SMOVIL		-1, R43
		SADDA.M1		R43:R42,AR14,AR10
		SNOP		1
		SLDW		*AR10, R42
		SNOP		5
		SADD.M1		R42,R46,R44
		SMOVIL		-312, R46
		SMOVIL		-1, R47
		SADDA.M1		R47:R46,AR14,AR10
		SNOP		1
		SLDW		*AR10, R43
		SNOP		5
		SLTU		R44, R43, R42
		SMOVIL		-308, R46
		SMOVIL		-1, R47
		SADDA.M1		R47:R46,AR14,AR10
		SNOP		1
		SLDW		*AR10, R43
		SNOP		5
		SMOVIL		-308, R46
		SMOVIL		-1, R47
		SADDA.M1		R47:R46,AR14,AR10
		SNOP		1
		SLDW		*AR10, R46
		SNOP		5
		SADD.M1		R46,R43,R45
		SADD.M1		R45,R42,R42
		SMOV.M1		R42, R45
		SADD.M1		R44,R44,R42
		SLTU		R42, R44, R46
		SADD.M1		R45,R45,R43
		SADD.M1		R43,R46,R44
		SMOV.M1		R44, R43
		SADD.M1		R42,R42,R44
		SLTU		R44, R42, R46
		SADD.M1		R43,R43,R45
		SADD.M1		R45,R46,R42
		SMOV.M1		R42, R45
		SMOVIL		-160, R42
		SMOVIL		-1, R43
		SMOVIL		-64, R48
		SMOVIL		-1, R49
		SADDA.M1		R49:R48,AR14,OR11
		SNOP		1
		SADDA.M1		R43:R42,OR11,OR11
		SNOP		1
		SMVAAGL.M1		OR11, R43:R42
		SNOP		1
		SMVAAGH.M1		OR11, R43:R42
		SNOP		1
	;no-op trunc di R45:R44 to pdi R45:R44
		SMVAGA36.M1		R43:R42, AR10
		SNOP		1
		SLDDW		*AR10, R43:R42
		SNOP		5
		SMVAGA36.M1		R43:R42, OR11
		SNOP		1
		SADDA.M1		R45:R44,OR11,OR11
		SNOP		1
		SMVAAGL.M1		OR11, R45:R44
		SNOP		1
		SMVAAGH.M1		OR11, R45:R44
		SNOP		1
		SMOVIL		-120, R42
		SMOVIL		-1, R43
		SADDA.M1		R43:R42,AR14,AR10
		SNOP		1
		SLDW		*AR10, R46
		SNOP		5
		SMOVIL		-320, R42
		SMOVIL		-1, R43
		SADDA.M1		R43:R42,AR14,AR10
		SNOP		1
		SSTW		R46, *AR10
		SMOVIL		-116, R46
		SMOVIL		-1, R47
		SADDA.M1		R47:R46,AR14,AR10
		SNOP		1
		SLDW		*AR10, R43
		SNOP		5
		SMOVIL		-2147483648, R42
		SMOVIH		-2147483648, R42
		SXOR		R42, R43, R48
		SMOVIL		-316, R46
		SMOVIL		-1, R47
		SADDA.M1		R47:R46,AR14,AR10
		SNOP		1
		SSTW		R48, *AR10
		SMOVIL		-320, R42
		SMOVIL		-1, R43
		SADDA.M1		R43:R42,AR14,AR10
		SNOP		1
		SLDDW		*AR10, R43:R42
		SNOP		5
		SMVAGA36.M1		R45:R44, AR10
		SNOP		1
		SSTDW		R43:R42, *AR10
	.loc 1 56 0
		SMOVIL		-72, R44
		SMOVIL		-1, R45
		SADDA.M1		R45:R44,AR14,AR10
		SNOP		1
		SLDW		*AR10, R42
		SNOP		5
		SSHFLL		1, R42, R42
		SADD.M1		1,R42,R44
		SMOVIL		-72, R46
		SMOVIL		-1, R47
		SADDA.M1		R47:R46,AR14,AR10
		SNOP		1
		SLDW		*AR10, R43
		SNOP		5
		SMOVIL		-124, R46
		SMOVIL		-1, R47
		SADDA.M1		R47:R46,AR14,AR10
		SNOP		1
		SLDW		*AR10, R42
		SNOP		5
		SMULIS.M1		R42,R43,R42
		SNOP		2
		SADD.M1		R42,R44,R42
		SMOVIL		-328, R44
		SMOVIL		-1, R45
		SADDA.M1		R45:R44,AR14,AR10
		SNOP		1
		SSTW		R42, *AR10
		SSHFAR		31, R42, R42
		SMOVIL		-324, R44
		SMOVIL		-1, R45
		SADDA.M1		R45:R44,AR14,AR10
		SNOP		1
		SSTW		R42, *AR10
		SMOVIL		-328, R42
		SMOVIL		-1, R43
		SADDA.M1		R43:R42,AR14,AR10
		SNOP		1
		SLDW		*AR10, R46
		SNOP		5
		SMOVIL		-328, R42
		SMOVIL		-1, R43
		SADDA.M1		R43:R42,AR14,AR10
		SNOP		1
		SLDW		*AR10, R42
		SNOP		5
		SADD.M1		R42,R46,R44
		SMOVIL		-328, R46
		SMOVIL		-1, R47
		SADDA.M1		R47:R46,AR14,AR10
		SNOP		1
		SLDW		*AR10, R43
		SNOP		5
		SLTU		R44, R43, R42
		SMOVIL		-324, R46
		SMOVIL		-1, R47
		SADDA.M1		R47:R46,AR14,AR10
		SNOP		1
		SLDW		*AR10, R43
		SNOP		5
		SMOVIL		-324, R46
		SMOVIL		-1, R47
		SADDA.M1		R47:R46,AR14,AR10
		SNOP		1
		SLDW		*AR10, R46
		SNOP		5
		SADD.M1		R46,R43,R45
		SADD.M1		R45,R42,R42
		SMOV.M1		R42, R45
		SADD.M1		R44,R44,R42
		SLTU		R42, R44, R46
		SADD.M1		R45,R45,R43
		SADD.M1		R43,R46,R44
		SMOV.M1		R44, R43
		SADD.M1		R42,R42,R44
		SLTU		R44, R42, R46
		SADD.M1		R43,R43,R45
		SADD.M1		R45,R46,R42
		SMOV.M1		R42, R45
		SMOVIL		-160, R42
		SMOVIL		-1, R43
		SMOVIL		-64, R48
		SMOVIL		-1, R49
		SADDA.M1		R49:R48,AR14,OR11
		SNOP		1
		SADDA.M1		R43:R42,OR11,OR11
		SNOP		1
		SMVAAGL.M1		OR11, R43:R42
		SNOP		1
		SMVAAGH.M1		OR11, R43:R42
		SNOP		1
	;no-op trunc di R45:R44 to pdi R45:R44
		SMVAGA36.M1		R43:R42, AR10
		SNOP		1
		SLDDW		*AR10, R43:R42
		SNOP		5
		SMVAGA36.M1		R43:R42, OR11
		SNOP		1
		SADDA.M1		R45:R44,OR11,OR11
		SNOP		1
		SMVAAGL.M1		OR11, R45:R44
		SNOP		1
		SMVAAGH.M1		OR11, R45:R44
		SNOP		1
		SMOVIL		0, R42
		SMOVIL		0, R43
		SMVAGA36.M1		R45:R44, AR10
		SNOP		1
		SSTDW		R43:R42, *AR10
	.loc 1 57 0
		SMOVIL		-72, R42
		SMOVIL		-1, R43
		SADDA.M1		R43:R42,AR14,AR10
		SNOP		1
		SLDW		*AR10, R44
		SNOP		5
		SMOVIL		-336, R42
		SMOVIL		-1, R43
		SADDA.M1		R43:R42,AR14,AR10
		SNOP		1
		SSTW		R44, *AR10
		SMOVIL		-72, R44
		SMOVIL		-1, R45
		SADDA.M1		R45:R44,AR14,AR10
		SNOP		1
		SLDW		*AR10, R42
		SNOP		5
		SSHFAR		31, R42, R42
		SMOVIL		-332, R44
		SMOVIL		-1, R45
		SADDA.M1		R45:R44,AR14,AR10
		SNOP		1
		SSTW		R42, *AR10
		SMOVIL		-336, R44
		SMOVIL		-1, R45
		SADDA.M1		R45:R44,AR14,AR10
		SNOP		1
		SLDW		*AR10, R43
		SNOP		5
		SSHFLR		28, R43, R42
		SMOVIL		-332, R44
		SMOVIL		-1, R45
		SADDA.M1		R45:R44,AR14,AR10
		SNOP		1
		SLDW		*AR10, R43
		SNOP		5
		SSHFLL		4, R43, R43
		SMOVIL		-340, R44
		SMOVIL		-1, R45
		SADDA.M1		R45:R44,AR14,AR10
		SNOP		1
		SSTW		R43, *AR10
		SMOVIL		-340, R44
		SMOVIL		-1, R45
		SADDA.M1		R45:R44,AR14,AR10
		SNOP		1
		SLDW		*AR10, R43
		SNOP		5
		SOR		R43, R42, R43
		SMOVIL		-340, R44
		SMOVIL		-1, R45
		SADDA.M1		R45:R44,AR14,AR10
		SNOP		1
		SSTW		R43, *AR10
		SMOVIL		-336, R42
		SMOVIL		-1, R43
		SADDA.M1		R43:R42,AR14,AR10
		SNOP		1
		SLDW		*AR10, R42
		SNOP		5
		SSHFLL		4, R42, R44
		SMOVIL		-344, R42
		SMOVIL		-1, R43
		SADDA.M1		R43:R42,AR14,AR10
		SNOP		1
		SSTW		R44, *AR10
		SMOVIL		-168, R42
		SMOVIL		-1, R43
		SMOVIL		-64, R44
		SMOVIL		-1, R45
		SADDA.M1		R45:R44,AR14,OR11
		SNOP		1
		SADDA.M1		R43:R42,OR11,OR11
		SNOP		1
		SMVAAGL.M1		OR11, R43:R42
		SNOP		1
		SMVAAGH.M1		OR11, R43:R42
		SNOP		1
		SMOVIL		-344, R46
		SMOVIL		-1, R47
		SADDA.M1		R47:R46,AR14,AR10
		SNOP		1
		SLDDW		*AR10, R45:R44
		SNOP		5
	;no-op trunc di R45:R44 to pdi R45:R44
		SMVAGA36.M1		R43:R42, AR10
		SNOP		1
		SLDDW		*AR10, R43:R42
		SNOP		5
		SMVAGA36.M1		R43:R42, OR11
		SNOP		1
		SADDA.M1		R45:R44,OR11,OR11
		SNOP		1
		SMVAAGL.M1		OR11, R43:R42
		SNOP		1
		SMVAAGH.M1		OR11, R43:R42
		SNOP		1
		SMVAGA36.M1		R43:R42, AR10
		SNOP		1
		SLDDW		*AR10, R43:R42
		SNOP		5
		SMOVIL		-136, R44
		SMOVIL		-1, R45
		SADDA.M1		R45:R44,AR14,AR10
		SNOP		1
		SSTDW		R43:R42, *AR10
	.loc 1 58 0
		SMOVIL		-72, R42
		SMOVIL		-1, R43
		SADDA.M1		R43:R42,AR14,AR10
		SNOP		1
		SLDW		*AR10, R44
		SNOP		5
		SMOVIL		-352, R42
		SMOVIL		-1, R43
		SADDA.M1		R43:R42,AR14,AR10
		SNOP		1
		SSTW		R44, *AR10
		SMOVIL		-72, R44
		SMOVIL		-1, R45
		SADDA.M1		R45:R44,AR14,AR10
		SNOP		1
		SLDW		*AR10, R42
		SNOP		5
		SSHFAR		31, R42, R42
		SMOVIL		-348, R44
		SMOVIL		-1, R45
		SADDA.M1		R45:R44,AR14,AR10
		SNOP		1
		SSTW		R42, *AR10
		SMOVIL		-352, R44
		SMOVIL		-1, R45
		SADDA.M1		R45:R44,AR14,AR10
		SNOP		1
		SLDW		*AR10, R43
		SNOP		5
		SSHFLR		28, R43, R42
		SMOVIL		-348, R44
		SMOVIL		-1, R45
		SADDA.M1		R45:R44,AR14,AR10
		SNOP		1
		SLDW		*AR10, R43
		SNOP		5
		SSHFLL		4, R43, R43
		SMOVIL		-356, R44
		SMOVIL		-1, R45
		SADDA.M1		R45:R44,AR14,AR10
		SNOP		1
		SSTW		R43, *AR10
		SMOVIL		-356, R44
		SMOVIL		-1, R45
		SADDA.M1		R45:R44,AR14,AR10
		SNOP		1
		SLDW		*AR10, R43
		SNOP		5
		SOR		R43, R42, R43
		SMOVIL		-356, R44
		SMOVIL		-1, R45
		SADDA.M1		R45:R44,AR14,AR10
		SNOP		1
		SSTW		R43, *AR10
		SMOVIL		-352, R42
		SMOVIL		-1, R43
		SADDA.M1		R43:R42,AR14,AR10
		SNOP		1
		SLDW		*AR10, R42
		SNOP		5
		SSHFLL		4, R42, R44
		SMOVIL		-360, R42
		SMOVIL		-1, R43
		SADDA.M1		R43:R42,AR14,AR10
		SNOP		1
		SSTW		R44, *AR10
		SMOVIL		8, R42
		SMOVIL		0, R43
		SMOVIL		-360, R46
		SMOVIL		-1, R47
		SADDA.M1		R47:R46,AR14,AR10
		SNOP		1
		SLDW		*AR10, R46
		SNOP		5
		SADD.M1		R42,R46,R44
		SMOVIL		-360, R48
		SMOVIL		-1, R49
		SADDA.M1		R49:R48,AR14,AR10
		SNOP		1
		SLDW		*AR10, R47
		SNOP		5
		SLTU		R44, R47, R46
		SMOVIL		-356, R48
		SMOVIL		-1, R49
		SADDA.M1		R49:R48,AR14,AR10
		SNOP		1
		SLDW		*AR10, R47
		SNOP		5
		SADD.M1		R43,R47,R45
		SADD.M1		R45,R46,R42
		SMOV.M1		R42, R45
		SMOVIL		-168, R42
		SMOVIL		-1, R43
		SMOVIL		-64, R48
		SMOVIL		-1, R49
		SADDA.M1		R49:R48,AR14,OR11
		SNOP		1
		SADDA.M1		R43:R42,OR11,OR11
		SNOP		1
		SMVAAGL.M1		OR11, R43:R42
		SNOP		1
		SMVAAGH.M1		OR11, R43:R42
		SNOP		1
	;no-op trunc di R45:R44 to pdi R45:R44
		SMVAGA36.M1		R43:R42, AR10
		SNOP		1
		SLDDW		*AR10, R43:R42
		SNOP		5
		SMVAGA36.M1		R43:R42, OR11
		SNOP		1
		SADDA.M1		R45:R44,OR11,OR11
		SNOP		1
		SMVAAGL.M1		OR11, R43:R42
		SNOP		1
		SMVAAGH.M1		OR11, R43:R42
		SNOP		1
		SMVAGA36.M1		R43:R42, AR10
		SNOP		1
		SLDDW		*AR10, R43:R42
		SNOP		5
		SMOVIL		-144, R44
		SMOVIL		-1, R45
		SADDA.M1		R45:R44,AR14,AR10
		SNOP		1
		SSTDW		R43:R42, *AR10
	.loc 1 59 0
		SMOVIL		-72, R44
		SMOVIL		-1, R45
		SADDA.M1		R45:R44,AR14,AR10
		SNOP		1
		SLDW		*AR10, R42
		SNOP		5
		SADD.M1		1,R42,R42
		SMOVIL		-68, R44
		SMOVIL		-1, R45
		SADDA.M1		R45:R44,AR14,AR10
		SNOP		1
		SSTW		R42, *AR10
		SBR		.L12
		SNOP		6
.L13:
	.loc 1 61 0 discriminator 2
		SMOVIL		-68, R42
		SMOVIL		-1, R43
		SADDA.M1		R43:R42,AR14,AR10
		SNOP		1
		SLDW		*AR10, R44
		SNOP		5
		SMOVIL		-368, R42
		SMOVIL		-1, R43
		SADDA.M1		R43:R42,AR14,AR10
		SNOP		1
		SSTW		R44, *AR10
		SMOVIL		-68, R44
		SMOVIL		-1, R45
		SADDA.M1		R45:R44,AR14,AR10
		SNOP		1
		SLDW		*AR10, R42
		SNOP		5
		SSHFAR		31, R42, R42
		SMOVIL		-364, R44
		SMOVIL		-1, R45
		SADDA.M1		R45:R44,AR14,AR10
		SNOP		1
		SSTW		R42, *AR10
		SMOVIL		-368, R44
		SMOVIL		-1, R45
		SADDA.M1		R45:R44,AR14,AR10
		SNOP		1
		SLDW		*AR10, R43
		SNOP		5
		SSHFLR		28, R43, R42
		SMOVIL		-364, R44
		SMOVIL		-1, R45
		SADDA.M1		R45:R44,AR14,AR10
		SNOP		1
		SLDW		*AR10, R43
		SNOP		5
		SSHFLL		4, R43, R43
		SMOVIL		-372, R44
		SMOVIL		-1, R45
		SADDA.M1		R45:R44,AR14,AR10
		SNOP		1
		SSTW		R43, *AR10
		SMOVIL		-372, R44
		SMOVIL		-1, R45
		SADDA.M1		R45:R44,AR14,AR10
		SNOP		1
		SLDW		*AR10, R43
		SNOP		5
		SOR		R43, R42, R43
		SMOVIL		-372, R44
		SMOVIL		-1, R45
		SADDA.M1		R45:R44,AR14,AR10
		SNOP		1
		SSTW		R43, *AR10
		SMOVIL		-368, R42
		SMOVIL		-1, R43
		SADDA.M1		R43:R42,AR14,AR10
		SNOP		1
		SLDW		*AR10, R42
		SNOP		5
		SSHFLL		4, R42, R44
		SMOVIL		-376, R42
		SMOVIL		-1, R43
		SADDA.M1		R43:R42,AR14,AR10
		SNOP		1
		SSTW		R44, *AR10
		SMOVIL		-168, R42
		SMOVIL		-1, R43
		SMOVIL		-64, R44
		SMOVIL		-1, R45
		SADDA.M1		R45:R44,AR14,OR11
		SNOP		1
		SADDA.M1		R43:R42,OR11,OR11
		SNOP		1
		SMVAAGL.M1		OR11, R43:R42
		SNOP		1
		SMVAAGH.M1		OR11, R43:R42
		SNOP		1
		SMOVIL		-376, R46
		SMOVIL		-1, R47
		SADDA.M1		R47:R46,AR14,AR10
		SNOP		1
		SLDDW		*AR10, R45:R44
		SNOP		5
	;no-op trunc di R45:R44 to pdi R45:R44
		SMVAGA36.M1		R43:R42, AR10
		SNOP		1
		SLDDW		*AR10, R43:R42
		SNOP		5
		SMVAGA36.M1		R43:R42, OR11
		SNOP		1
		SADDA.M1		R45:R44,OR11,OR11
		SNOP		1
		SMVAAGL.M1		OR11, R49:R48
		SNOP		1
		SMVAAGH.M1		OR11, R49:R48
		SNOP		1
		SMOVIL		-72, R44
		SMOVIL		-1, R45
		SADDA.M1		R45:R44,AR14,AR10
		SNOP		1
		SLDW		*AR10, R42
		SNOP		5
		SSHFLL		1, R42, R44
		SMOVIL		-68, R46
		SMOVIL		-1, R47
		SADDA.M1		R47:R46,AR14,AR10
		SNOP		1
		SLDW		*AR10, R43
		SNOP		5
		SMOVIL		-124, R46
		SMOVIL		-1, R47
		SADDA.M1		R47:R46,AR14,AR10
		SNOP		1
		SLDW		*AR10, R42
		SNOP		5
		SMULIS.M1		R42,R43,R42
		SNOP		2
		SADD.M1		R42,R44,R42
		SMOVIL		-384, R44
		SMOVIL		-1, R45
		SADDA.M1		R45:R44,AR14,AR10
		SNOP		1
		SSTW		R42, *AR10
		SSHFAR		31, R42, R42
		SMOVIL		-380, R44
		SMOVIL		-1, R45
		SADDA.M1		R45:R44,AR14,AR10
		SNOP		1
		SSTW		R42, *AR10
		SMOVIL		-384, R42
		SMOVIL		-1, R43
		SADDA.M1		R43:R42,AR14,AR10
		SNOP		1
		SLDW		*AR10, R46
		SNOP		5
		SMOVIL		-384, R42
		SMOVIL		-1, R43
		SADDA.M1		R43:R42,AR14,AR10
		SNOP		1
		SLDW		*AR10, R42
		SNOP		5
		SADD.M1		R42,R46,R44
		SMOVIL		-384, R46
		SMOVIL		-1, R47
		SADDA.M1		R47:R46,AR14,AR10
		SNOP		1
		SLDW		*AR10, R43
		SNOP		5
		SLTU		R44, R43, R42
		SMOVIL		-380, R46
		SMOVIL		-1, R47
		SADDA.M1		R47:R46,AR14,AR10
		SNOP		1
		SLDW		*AR10, R43
		SNOP		5
		SMOVIL		-380, R46
		SMOVIL		-1, R47
		SADDA.M1		R47:R46,AR14,AR10
		SNOP		1
		SLDW		*AR10, R46
		SNOP		5
		SADD.M1		R46,R43,R45
		SADD.M1		R45,R42,R42
		SMOV.M1		R42, R45
		SADD.M1		R44,R44,R42
		SLTU		R42, R44, R46
		SADD.M1		R45,R45,R43
		SADD.M1		R43,R46,R44
		SMOV.M1		R44, R43
		SADD.M1		R42,R42,R44
		SLTU		R44, R42, R46
		SADD.M1		R43,R43,R45
		SADD.M1		R45,R46,R42
		SMOV.M1		R42, R45
		SMOVIL		-160, R42
		SMOVIL		-1, R43
		SMOVIL		-64, R52
		SMOVIL		-1, R53
		SADDA.M1		R53:R52,AR14,OR11
		SNOP		1
		SADDA.M1		R43:R42,OR11,OR11
		SNOP		1
		SMVAAGL.M1		OR11, R43:R42
		SNOP		1
		SMVAAGH.M1		OR11, R43:R42
		SNOP		1
	;no-op trunc di R45:R44 to pdi R45:R44
		SMVAGA36.M1		R43:R42, AR10
		SNOP		1
		SLDDW		*AR10, R43:R42
		SNOP		5
		SMVAGA36.M1		R43:R42, OR11
		SNOP		1
		SADDA.M1		R45:R44,OR11,OR11
		SNOP		1
		SMVAAGL.M1		OR11, R43:R42
		SNOP		1
		SMVAAGH.M1		OR11, R43:R42
		SNOP		1
		SMVAGA36.M1		R43:R42, AR10
		SNOP		1
		SLDDW		*AR10, R43:R42
		SNOP		5
		SMVAGA36.M1		R49:R48, AR10
		SNOP		1
		SSTDW		R43:R42, *AR10
	.loc 1 62 0 discriminator 2
		SMOVIL		-68, R42
		SMOVIL		-1, R43
		SADDA.M1		R43:R42,AR14,AR10
		SNOP		1
		SLDW		*AR10, R44
		SNOP		5
		SMOVIL		-392, R42
		SMOVIL		-1, R43
		SADDA.M1		R43:R42,AR14,AR10
		SNOP		1
		SSTW		R44, *AR10
		SMOVIL		-68, R44
		SMOVIL		-1, R45
		SADDA.M1		R45:R44,AR14,AR10
		SNOP		1
		SLDW		*AR10, R42
		SNOP		5
		SSHFAR		31, R42, R42
		SMOVIL		-388, R44
		SMOVIL		-1, R45
		SADDA.M1		R45:R44,AR14,AR10
		SNOP		1
		SSTW		R42, *AR10
		SMOVIL		-392, R44
		SMOVIL		-1, R45
		SADDA.M1		R45:R44,AR14,AR10
		SNOP		1
		SLDW		*AR10, R43
		SNOP		5
		SSHFLR		28, R43, R42
		SMOVIL		-388, R44
		SMOVIL		-1, R45
		SADDA.M1		R45:R44,AR14,AR10
		SNOP		1
		SLDW		*AR10, R43
		SNOP		5
		SSHFLL		4, R43, R43
		SMOVIL		-396, R44
		SMOVIL		-1, R45
		SADDA.M1		R45:R44,AR14,AR10
		SNOP		1
		SSTW		R43, *AR10
		SMOVIL		-396, R44
		SMOVIL		-1, R45
		SADDA.M1		R45:R44,AR14,AR10
		SNOP		1
		SLDW		*AR10, R43
		SNOP		5
		SOR		R43, R42, R43
		SMOVIL		-396, R44
		SMOVIL		-1, R45
		SADDA.M1		R45:R44,AR14,AR10
		SNOP		1
		SSTW		R43, *AR10
		SMOVIL		-392, R42
		SMOVIL		-1, R43
		SADDA.M1		R43:R42,AR14,AR10
		SNOP		1
		SLDW		*AR10, R42
		SNOP		5
		SSHFLL		4, R42, R44
		SMOVIL		-400, R42
		SMOVIL		-1, R43
		SADDA.M1		R43:R42,AR14,AR10
		SNOP		1
		SSTW		R44, *AR10
		SMOVIL		8, R42
		SMOVIL		0, R43
		SMOVIL		-400, R46
		SMOVIL		-1, R47
		SADDA.M1		R47:R46,AR14,AR10
		SNOP		1
		SLDW		*AR10, R46
		SNOP		5
		SADD.M1		R42,R46,R44
		SMOVIL		-400, R48
		SMOVIL		-1, R49
		SADDA.M1		R49:R48,AR14,AR10
		SNOP		1
		SLDW		*AR10, R47
		SNOP		5
		SLTU		R44, R47, R46
		SMOVIL		-396, R48
		SMOVIL		-1, R49
		SADDA.M1		R49:R48,AR14,AR10
		SNOP		1
		SLDW		*AR10, R47
		SNOP		5
		SADD.M1		R43,R47,R45
		SADD.M1		R45,R46,R42
		SMOV.M1		R42, R45
		SMOVIL		-168, R42
		SMOVIL		-1, R43
		SMOVIL		-64, R48
		SMOVIL		-1, R49
		SADDA.M1		R49:R48,AR14,OR11
		SNOP		1
		SADDA.M1		R43:R42,OR11,OR11
		SNOP		1
		SMVAAGL.M1		OR11, R43:R42
		SNOP		1
		SMVAAGH.M1		OR11, R43:R42
		SNOP		1
	;no-op trunc di R45:R44 to pdi R45:R44
		SMVAGA36.M1		R43:R42, AR10
		SNOP		1
		SLDDW		*AR10, R43:R42
		SNOP		5
		SMVAGA36.M1		R43:R42, OR11
		SNOP		1
		SADDA.M1		R45:R44,OR11,OR11
		SNOP		1
		SMVAAGL.M1		OR11, R49:R48
		SNOP		1
		SMVAAGH.M1		OR11, R49:R48
		SNOP		1
		SMOVIL		-72, R44
		SMOVIL		-1, R45
		SADDA.M1		R45:R44,AR14,AR10
		SNOP		1
		SLDW		*AR10, R42
		SNOP		5
		SSHFLL		1, R42, R42
		SADD.M1		1,R42,R44
		SMOVIL		-68, R46
		SMOVIL		-1, R47
		SADDA.M1		R47:R46,AR14,AR10
		SNOP		1
		SLDW		*AR10, R43
		SNOP		5
		SMOVIL		-124, R46
		SMOVIL		-1, R47
		SADDA.M1		R47:R46,AR14,AR10
		SNOP		1
		SLDW		*AR10, R42
		SNOP		5
		SMULIS.M1		R42,R43,R42
		SNOP		2
		SADD.M1		R42,R44,R42
		SMOVIL		-408, R44
		SMOVIL		-1, R45
		SADDA.M1		R45:R44,AR14,AR10
		SNOP		1
		SSTW		R42, *AR10
		SSHFAR		31, R42, R42
		SMOVIL		-404, R44
		SMOVIL		-1, R45
		SADDA.M1		R45:R44,AR14,AR10
		SNOP		1
		SSTW		R42, *AR10
		SMOVIL		-408, R42
		SMOVIL		-1, R43
		SADDA.M1		R43:R42,AR14,AR10
		SNOP		1
		SLDW		*AR10, R46
		SNOP		5
		SMOVIL		-408, R42
		SMOVIL		-1, R43
		SADDA.M1		R43:R42,AR14,AR10
		SNOP		1
		SLDW		*AR10, R42
		SNOP		5
		SADD.M1		R42,R46,R44
		SMOVIL		-408, R46
		SMOVIL		-1, R47
		SADDA.M1		R47:R46,AR14,AR10
		SNOP		1
		SLDW		*AR10, R43
		SNOP		5
		SLTU		R44, R43, R42
		SMOVIL		-404, R46
		SMOVIL		-1, R47
		SADDA.M1		R47:R46,AR14,AR10
		SNOP		1
		SLDW		*AR10, R43
		SNOP		5
		SMOVIL		-404, R46
		SMOVIL		-1, R47
		SADDA.M1		R47:R46,AR14,AR10
		SNOP		1
		SLDW		*AR10, R46
		SNOP		5
		SADD.M1		R46,R43,R45
		SADD.M1		R45,R42,R42
		SMOV.M1		R42, R45
		SADD.M1		R44,R44,R42
		SLTU		R42, R44, R46
		SADD.M1		R45,R45,R43
		SADD.M1		R43,R46,R44
		SMOV.M1		R44, R43
		SADD.M1		R42,R42,R44
		SLTU		R44, R42, R46
		SADD.M1		R43,R43,R45
		SADD.M1		R45,R46,R42
		SMOV.M1		R42, R45
		SMOVIL		-160, R42
		SMOVIL		-1, R43
		SMOVIL		-64, R52
		SMOVIL		-1, R53
		SADDA.M1		R53:R52,AR14,OR11
		SNOP		1
		SADDA.M1		R43:R42,OR11,OR11
		SNOP		1
		SMVAAGL.M1		OR11, R43:R42
		SNOP		1
		SMVAAGH.M1		OR11, R43:R42
		SNOP		1
	;no-op trunc di R45:R44 to pdi R45:R44
		SMVAGA36.M1		R43:R42, AR10
		SNOP		1
		SLDDW		*AR10, R43:R42
		SNOP		5
		SMVAGA36.M1		R43:R42, OR11
		SNOP		1
		SADDA.M1		R45:R44,OR11,OR11
		SNOP		1
		SMVAAGL.M1		OR11, R43:R42
		SNOP		1
		SMVAAGH.M1		OR11, R43:R42
		SNOP		1
		SMVAGA36.M1		R43:R42, AR10
		SNOP		1
		SLDDW		*AR10, R43:R42
		SNOP		5
		SMVAGA36.M1		R49:R48, AR10
		SNOP		1
		SSTDW		R43:R42, *AR10
	.loc 1 63 0 discriminator 2
		SMOVIL		-72, R44
		SMOVIL		-1, R45
		SADDA.M1		R45:R44,AR14,AR10
		SNOP		1
		SLDW		*AR10, R42
		SNOP		5
		SSHFLL		1, R42, R44
		SMOVIL		-68, R46
		SMOVIL		-1, R47
		SADDA.M1		R47:R46,AR14,AR10
		SNOP		1
		SLDW		*AR10, R43
		SNOP		5
		SMOVIL		-124, R46
		SMOVIL		-1, R47
		SADDA.M1		R47:R46,AR14,AR10
		SNOP		1
		SLDW		*AR10, R42
		SNOP		5
		SMULIS.M1		R42,R43,R42
		SNOP		2
		SADD.M1		R42,R44,R42
		SMOVIL		-416, R44
		SMOVIL		-1, R45
		SADDA.M1		R45:R44,AR14,AR10
		SNOP		1
		SSTW		R42, *AR10
		SSHFAR		31, R42, R42
		SMOVIL		-412, R44
		SMOVIL		-1, R45
		SADDA.M1		R45:R44,AR14,AR10
		SNOP		1
		SSTW		R42, *AR10
		SMOVIL		-416, R42
		SMOVIL		-1, R43
		SADDA.M1		R43:R42,AR14,AR10
		SNOP		1
		SLDW		*AR10, R46
		SNOP		5
		SMOVIL		-416, R42
		SMOVIL		-1, R43
		SADDA.M1		R43:R42,AR14,AR10
		SNOP		1
		SLDW		*AR10, R42
		SNOP		5
		SADD.M1		R42,R46,R44
		SMOVIL		-416, R46
		SMOVIL		-1, R47
		SADDA.M1		R47:R46,AR14,AR10
		SNOP		1
		SLDW		*AR10, R43
		SNOP		5
		SLTU		R44, R43, R42
		SMOVIL		-412, R46
		SMOVIL		-1, R47
		SADDA.M1		R47:R46,AR14,AR10
		SNOP		1
		SLDW		*AR10, R43
		SNOP		5
		SMOVIL		-412, R46
		SMOVIL		-1, R47
		SADDA.M1		R47:R46,AR14,AR10
		SNOP		1
		SLDW		*AR10, R46
		SNOP		5
		SADD.M1		R46,R43,R45
		SADD.M1		R45,R42,R42
		SMOV.M1		R42, R45
		SADD.M1		R44,R44,R42
		SLTU		R42, R44, R46
		SADD.M1		R45,R45,R43
		SADD.M1		R43,R46,R44
		SMOV.M1		R44, R43
		SADD.M1		R42,R42,R44
		SLTU		R44, R42, R46
		SADD.M1		R43,R43,R45
		SADD.M1		R45,R46,R42
		SMOV.M1		R42, R45
		SMOVIL		-160, R42
		SMOVIL		-1, R43
		SMOVIL		-64, R48
		SMOVIL		-1, R49
		SADDA.M1		R49:R48,AR14,OR11
		SNOP		1
		SADDA.M1		R43:R42,OR11,OR11
		SNOP		1
		SMVAAGL.M1		OR11, R43:R42
		SNOP		1
		SMVAAGH.M1		OR11, R43:R42
		SNOP		1
	;no-op trunc di R45:R44 to pdi R45:R44
		SMVAGA36.M1		R43:R42, AR10
		SNOP		1
		SLDDW		*AR10, R43:R42
		SNOP		5
		SMVAGA36.M1		R43:R42, OR11
		SNOP		1
		SADDA.M1		R45:R44,OR11,OR11
		SNOP		1
		SMVAAGL.M1		OR11, R45:R44
		SNOP		1
		SMVAAGH.M1		OR11, R45:R44
		SNOP		1
		SMOVIL		0, R42
		SMOVIL		0, R43
		SMVAGA36.M1		R45:R44, AR10
		SNOP		1
		SSTDW		R43:R42, *AR10
	.loc 1 64 0 discriminator 2
		SMOVIL		-72, R44
		SMOVIL		-1, R45
		SADDA.M1		R45:R44,AR14,AR10
		SNOP		1
		SLDW		*AR10, R42
		SNOP		5
		SSHFLL		1, R42, R42
		SADD.M1		1,R42,R44
		SMOVIL		-68, R46
		SMOVIL		-1, R47
		SADDA.M1		R47:R46,AR14,AR10
		SNOP		1
		SLDW		*AR10, R43
		SNOP		5
		SMOVIL		-124, R46
		SMOVIL		-1, R47
		SADDA.M1		R47:R46,AR14,AR10
		SNOP		1
		SLDW		*AR10, R42
		SNOP		5
		SMULIS.M1		R42,R43,R42
		SNOP		2
		SADD.M1		R42,R44,R42
		SMOVIL		-424, R44
		SMOVIL		-1, R45
		SADDA.M1		R45:R44,AR14,AR10
		SNOP		1
		SSTW		R42, *AR10
		SSHFAR		31, R42, R42
		SMOVIL		-420, R44
		SMOVIL		-1, R45
		SADDA.M1		R45:R44,AR14,AR10
		SNOP		1
		SSTW		R42, *AR10
		SMOVIL		-424, R42
		SMOVIL		-1, R43
		SADDA.M1		R43:R42,AR14,AR10
		SNOP		1
		SLDW		*AR10, R46
		SNOP		5
		SMOVIL		-424, R42
		SMOVIL		-1, R43
		SADDA.M1		R43:R42,AR14,AR10
		SNOP		1
		SLDW		*AR10, R42
		SNOP		5
		SADD.M1		R42,R46,R44
		SMOVIL		-424, R46
		SMOVIL		-1, R47
		SADDA.M1		R47:R46,AR14,AR10
		SNOP		1
		SLDW		*AR10, R43
		SNOP		5
		SLTU		R44, R43, R42
		SMOVIL		-420, R46
		SMOVIL		-1, R47
		SADDA.M1		R47:R46,AR14,AR10
		SNOP		1
		SLDW		*AR10, R43
		SNOP		5
		SMOVIL		-420, R46
		SMOVIL		-1, R47
		SADDA.M1		R47:R46,AR14,AR10
		SNOP		1
		SLDW		*AR10, R46
		SNOP		5
		SADD.M1		R46,R43,R45
		SADD.M1		R45,R42,R42
		SMOV.M1		R42, R45
		SADD.M1		R44,R44,R42
		SLTU		R42, R44, R46
		SADD.M1		R45,R45,R43
		SADD.M1		R43,R46,R44
		SMOV.M1		R44, R43
		SADD.M1		R42,R42,R44
		SLTU		R44, R42, R46
		SADD.M1		R43,R43,R45
		SADD.M1		R45,R46,R42
		SMOV.M1		R42, R45
		SMOVIL		-160, R42
		SMOVIL		-1, R43
		SMOVIL		-64, R48
		SMOVIL		-1, R49
		SADDA.M1		R49:R48,AR14,OR11
		SNOP		1
		SADDA.M1		R43:R42,OR11,OR11
		SNOP		1
		SMVAAGL.M1		OR11, R43:R42
		SNOP		1
		SMVAAGH.M1		OR11, R43:R42
		SNOP		1
	;no-op trunc di R45:R44 to pdi R45:R44
		SMVAGA36.M1		R43:R42, AR10
		SNOP		1
		SLDDW		*AR10, R43:R42
		SNOP		5
		SMVAGA36.M1		R43:R42, OR11
		SNOP		1
		SADDA.M1		R45:R44,OR11,OR11
		SNOP		1
		SMVAAGL.M1		OR11, R45:R44
		SNOP		1
		SMVAAGH.M1		OR11, R45:R44
		SNOP		1
		SMOVIL		0, R42
		SMOVIL		0, R43
		SMVAGA36.M1		R45:R44, AR10
		SNOP		1
		SSTDW		R43:R42, *AR10
	.loc 1 65 0 discriminator 2
		SMOVIL		-68, R42
		SMOVIL		-1, R43
		SADDA.M1		R43:R42,AR14,AR10
		SNOP		1
		SLDW		*AR10, R44
		SNOP		5
		SMOVIL		-432, R42
		SMOVIL		-1, R43
		SADDA.M1		R43:R42,AR14,AR10
		SNOP		1
		SSTW		R44, *AR10
		SMOVIL		-68, R44
		SMOVIL		-1, R45
		SADDA.M1		R45:R44,AR14,AR10
		SNOP		1
		SLDW		*AR10, R42
		SNOP		5
		SSHFAR		31, R42, R42
		SMOVIL		-428, R44
		SMOVIL		-1, R45
		SADDA.M1		R45:R44,AR14,AR10
		SNOP		1
		SSTW		R42, *AR10
		SMOVIL		-432, R44
		SMOVIL		-1, R45
		SADDA.M1		R45:R44,AR14,AR10
		SNOP		1
		SLDW		*AR10, R43
		SNOP		5
		SSHFLR		28, R43, R42
		SMOVIL		-428, R44
		SMOVIL		-1, R45
		SADDA.M1		R45:R44,AR14,AR10
		SNOP		1
		SLDW		*AR10, R43
		SNOP		5
		SSHFLL		4, R43, R43
		SMOVIL		-436, R44
		SMOVIL		-1, R45
		SADDA.M1		R45:R44,AR14,AR10
		SNOP		1
		SSTW		R43, *AR10
		SMOVIL		-436, R44
		SMOVIL		-1, R45
		SADDA.M1		R45:R44,AR14,AR10
		SNOP		1
		SLDW		*AR10, R43
		SNOP		5
		SOR		R43, R42, R43
		SMOVIL		-436, R44
		SMOVIL		-1, R45
		SADDA.M1		R45:R44,AR14,AR10
		SNOP		1
		SSTW		R43, *AR10
		SMOVIL		-432, R42
		SMOVIL		-1, R43
		SADDA.M1		R43:R42,AR14,AR10
		SNOP		1
		SLDW		*AR10, R42
		SNOP		5
		SSHFLL		4, R42, R44
		SMOVIL		-440, R42
		SMOVIL		-1, R43
		SADDA.M1		R43:R42,AR14,AR10
		SNOP		1
		SSTW		R44, *AR10
		SMOVIL		-168, R42
		SMOVIL		-1, R43
		SMOVIL		-64, R44
		SMOVIL		-1, R45
		SADDA.M1		R45:R44,AR14,OR11
		SNOP		1
		SADDA.M1		R43:R42,OR11,OR11
		SNOP		1
		SMVAAGL.M1		OR11, R43:R42
		SNOP		1
		SMVAAGH.M1		OR11, R43:R42
		SNOP		1
		SMOVIL		-440, R46
		SMOVIL		-1, R47
		SADDA.M1		R47:R46,AR14,AR10
		SNOP		1
		SLDDW		*AR10, R45:R44
		SNOP		5
	;no-op trunc di R45:R44 to pdi R45:R44
		SMVAGA36.M1		R43:R42, AR10
		SNOP		1
		SLDDW		*AR10, R43:R42
		SNOP		5
		SMVAGA36.M1		R43:R42, OR11
		SNOP		1
		SADDA.M1		R45:R44,OR11,OR11
		SNOP		1
		SMVAAGL.M1		OR11, R43:R42
		SNOP		1
		SMVAAGH.M1		OR11, R43:R42
		SNOP		1
		SMVAGA36.M1		R43:R42, AR10
		SNOP		1
		SLDDW		*AR10, R43:R42
		SNOP		5
		SMOVIL		-136, R44
		SMOVIL		-1, R45
		SADDA.M1		R45:R44,AR14,AR10
		SNOP		1
		SSTDW		R43:R42, *AR10
	.loc 1 66 0 discriminator 2
		SMOVIL		-68, R42
		SMOVIL		-1, R43
		SADDA.M1		R43:R42,AR14,AR10
		SNOP		1
		SLDW		*AR10, R44
		SNOP		5
		SMOVIL		-448, R42
		SMOVIL		-1, R43
		SADDA.M1		R43:R42,AR14,AR10
		SNOP		1
		SSTW		R44, *AR10
		SMOVIL		-68, R44
		SMOVIL		-1, R45
		SADDA.M1		R45:R44,AR14,AR10
		SNOP		1
		SLDW		*AR10, R42
		SNOP		5
		SSHFAR		31, R42, R42
		SMOVIL		-444, R44
		SMOVIL		-1, R45
		SADDA.M1		R45:R44,AR14,AR10
		SNOP		1
		SSTW		R42, *AR10
		SMOVIL		-448, R44
		SMOVIL		-1, R45
		SADDA.M1		R45:R44,AR14,AR10
		SNOP		1
		SLDW		*AR10, R43
		SNOP		5
		SSHFLR		28, R43, R42
		SMOVIL		-444, R44
		SMOVIL		-1, R45
		SADDA.M1		R45:R44,AR14,AR10
		SNOP		1
		SLDW		*AR10, R43
		SNOP		5
		SSHFLL		4, R43, R43
		SMOVIL		-452, R44
		SMOVIL		-1, R45
		SADDA.M1		R45:R44,AR14,AR10
		SNOP		1
		SSTW		R43, *AR10
		SMOVIL		-452, R44
		SMOVIL		-1, R45
		SADDA.M1		R45:R44,AR14,AR10
		SNOP		1
		SLDW		*AR10, R43
		SNOP		5
		SOR		R43, R42, R43
		SMOVIL		-452, R44
		SMOVIL		-1, R45
		SADDA.M1		R45:R44,AR14,AR10
		SNOP		1
		SSTW		R43, *AR10
		SMOVIL		-448, R42
		SMOVIL		-1, R43
		SADDA.M1		R43:R42,AR14,AR10
		SNOP		1
		SLDW		*AR10, R42
		SNOP		5
		SSHFLL		4, R42, R44
		SMOVIL		-456, R42
		SMOVIL		-1, R43
		SADDA.M1		R43:R42,AR14,AR10
		SNOP		1
		SSTW		R44, *AR10
		SMOVIL		8, R42
		SMOVIL		0, R43
		SMOVIL		-456, R46
		SMOVIL		-1, R47
		SADDA.M1		R47:R46,AR14,AR10
		SNOP		1
		SLDW		*AR10, R46
		SNOP		5
		SADD.M1		R42,R46,R44
		SMOVIL		-456, R48
		SMOVIL		-1, R49
		SADDA.M1		R49:R48,AR14,AR10
		SNOP		1
		SLDW		*AR10, R47
		SNOP		5
		SLTU		R44, R47, R46
		SMOVIL		-452, R48
		SMOVIL		-1, R49
		SADDA.M1		R49:R48,AR14,AR10
		SNOP		1
		SLDW		*AR10, R47
		SNOP		5
		SADD.M1		R43,R47,R45
		SADD.M1		R45,R46,R42
		SMOV.M1		R42, R45
		SMOVIL		-168, R42
		SMOVIL		-1, R43
		SMOVIL		-64, R48
		SMOVIL		-1, R49
		SADDA.M1		R49:R48,AR14,OR11
		SNOP		1
		SADDA.M1		R43:R42,OR11,OR11
		SNOP		1
		SMVAAGL.M1		OR11, R43:R42
		SNOP		1
		SMVAAGH.M1		OR11, R43:R42
		SNOP		1
	;no-op trunc di R45:R44 to pdi R45:R44
		SMVAGA36.M1		R43:R42, AR10
		SNOP		1
		SLDDW		*AR10, R43:R42
		SNOP		5
		SMVAGA36.M1		R43:R42, OR11
		SNOP		1
		SADDA.M1		R45:R44,OR11,OR11
		SNOP		1
		SMVAAGL.M1		OR11, R43:R42
		SNOP		1
		SMVAAGH.M1		OR11, R43:R42
		SNOP		1
		SMVAGA36.M1		R43:R42, AR10
		SNOP		1
		SLDDW		*AR10, R43:R42
		SNOP		5
		SMOVIL		-144, R44
		SMOVIL		-1, R45
		SADDA.M1		R45:R44,AR14,AR10
		SNOP		1
		SSTDW		R43:R42, *AR10
	.loc 1 59 0 discriminator 2
		SMOVIL		-68, R44
		SMOVIL		-1, R45
		SADDA.M1		R45:R44,AR14,AR10
		SNOP		1
		SLDW		*AR10, R42
		SNOP		5
		SADD.M1		1,R42,R42
		SMOVIL		-68, R44
		SMOVIL		-1, R45
		SADDA.M1		R45:R44,AR14,AR10
		SNOP		1
		SSTW		R42, *AR10
.L12:
	.loc 1 59 0 is_stmt 0 discriminator 1
		SMOVIL		-132, R42
		SMOVIL		-1, R43
		SMOVIL		-64, R44
		SMOVIL		-1, R45
		SADDA.M1		R45:R44,AR14,OR11
		SNOP		1
		SADDA.M1		R43:R42,OR11,OR11
		SNOP		1
		SMVAAGL.M1		OR11, R43:R42
		SNOP		1
		SMVAAGH.M1		OR11, R43:R42
		SNOP		1
		SMOVIL		-68, R46
		SMOVIL		-1, R47
		SADDA.M1		R47:R46,AR14,AR10
		SNOP		1
		SLDW		*AR10, R44
		SNOP		5
		SMVAGA36.M1		R43:R42, AR10
		SNOP		1
		SLDW		*AR10, R42
		SNOP		5
		SLT		R44, R42, R42
		SMOV.M1		R42, R0
	[R0]	SBR		.L13
		SNOP		6
	.loc 1 68 0 is_stmt 1
		SMOVIL		-72, R42
		SMOVIL		-1, R43
		SADDA.M1		R43:R42,AR14,AR10
		SNOP		1
		SLDW		*AR10, R44
		SNOP		5
		SMOVIL		-464, R42
		SMOVIL		-1, R43
		SADDA.M1		R43:R42,AR14,AR10
		SNOP		1
		SSTW		R44, *AR10
		SMOVIL		-72, R44
		SMOVIL		-1, R45
		SADDA.M1		R45:R44,AR14,AR10
		SNOP		1
		SLDW		*AR10, R42
		SNOP		5
		SSHFAR		31, R42, R42
		SMOVIL		-460, R44
		SMOVIL		-1, R45
		SADDA.M1		R45:R44,AR14,AR10
		SNOP		1
		SSTW		R42, *AR10
		SMOVIL		-464, R44
		SMOVIL		-1, R45
		SADDA.M1		R45:R44,AR14,AR10
		SNOP		1
		SLDW		*AR10, R43
		SNOP		5
		SSHFLR		28, R43, R42
		SMOVIL		-460, R44
		SMOVIL		-1, R45
		SADDA.M1		R45:R44,AR14,AR10
		SNOP		1
		SLDW		*AR10, R43
		SNOP		5
		SSHFLL		4, R43, R43
		SMOVIL		-468, R44
		SMOVIL		-1, R45
		SADDA.M1		R45:R44,AR14,AR10
		SNOP		1
		SSTW		R43, *AR10
		SMOVIL		-468, R44
		SMOVIL		-1, R45
		SADDA.M1		R45:R44,AR14,AR10
		SNOP		1
		SLDW		*AR10, R43
		SNOP		5
		SOR		R43, R42, R43
		SMOVIL		-468, R44
		SMOVIL		-1, R45
		SADDA.M1		R45:R44,AR14,AR10
		SNOP		1
		SSTW		R43, *AR10
		SMOVIL		-464, R42
		SMOVIL		-1, R43
		SADDA.M1		R43:R42,AR14,AR10
		SNOP		1
		SLDW		*AR10, R42
		SNOP		5
		SSHFLL		4, R42, R44
		SMOVIL		-472, R42
		SMOVIL		-1, R43
		SADDA.M1		R43:R42,AR14,AR10
		SNOP		1
		SSTW		R44, *AR10
		SMOVIL		-168, R42
		SMOVIL		-1, R43
		SMOVIL		-64, R44
		SMOVIL		-1, R45
		SADDA.M1		R45:R44,AR14,OR11
		SNOP		1
		SADDA.M1		R43:R42,OR11,OR11
		SNOP		1
		SMVAAGL.M1		OR11, R43:R42
		SNOP		1
		SMVAAGH.M1		OR11, R43:R42
		SNOP		1
		SMOVIL		-472, R46
		SMOVIL		-1, R47
		SADDA.M1		R47:R46,AR14,AR10
		SNOP		1
		SLDDW		*AR10, R45:R44
		SNOP		5
	;no-op trunc di R45:R44 to pdi R45:R44
		SMVAGA36.M1		R43:R42, AR10
		SNOP		1
		SLDDW		*AR10, R43:R42
		SNOP		5
		SMVAGA36.M1		R43:R42, OR11
		SNOP		1
		SADDA.M1		R45:R44,OR11,OR11
		SNOP		1
		SMVAAGL.M1		OR11, R43:R42
		SNOP		1
		SMVAAGH.M1		OR11, R43:R42
		SNOP		1
		SMVAGA36.M1		R43:R42, AR10
		SNOP		1
		SLDDW		*AR10, R45:R44
		SNOP		5
		SLDDW		*-AR14[15], R43:R42
		SNOP		5
		SFMULD.M1		R45:R44, R43:R42, R43:R42
		SNOP		5
		SMOVIL		-152, R44
		SMOVIL		-1, R45
		SADDA.M1		R45:R44,AR14,AR10
		SNOP		1
		SSTDW		R43:R42, *AR10
	.loc 1 69 0
		SMOVIL		-72, R42
		SMOVIL		-1, R43
		SADDA.M1		R43:R42,AR14,AR10
		SNOP		1
		SLDW		*AR10, R44
		SNOP		5
		SMOVIL		-480, R42
		SMOVIL		-1, R43
		SADDA.M1		R43:R42,AR14,AR10
		SNOP		1
		SSTW		R44, *AR10
		SMOVIL		-72, R44
		SMOVIL		-1, R45
		SADDA.M1		R45:R44,AR14,AR10
		SNOP		1
		SLDW		*AR10, R42
		SNOP		5
		SSHFAR		31, R42, R42
		SMOVIL		-476, R44
		SMOVIL		-1, R45
		SADDA.M1		R45:R44,AR14,AR10
		SNOP		1
		SSTW		R42, *AR10
		SMOVIL		-480, R44
		SMOVIL		-1, R45
		SADDA.M1		R45:R44,AR14,AR10
		SNOP		1
		SLDW		*AR10, R43
		SNOP		5
		SSHFLR		28, R43, R42
		SMOVIL		-476, R44
		SMOVIL		-1, R45
		SADDA.M1		R45:R44,AR14,AR10
		SNOP		1
		SLDW		*AR10, R43
		SNOP		5
		SSHFLL		4, R43, R43
		SMOVIL		-484, R44
		SMOVIL		-1, R45
		SADDA.M1		R45:R44,AR14,AR10
		SNOP		1
		SSTW		R43, *AR10
		SMOVIL		-484, R44
		SMOVIL		-1, R45
		SADDA.M1		R45:R44,AR14,AR10
		SNOP		1
		SLDW		*AR10, R43
		SNOP		5
		SOR		R43, R42, R43
		SMOVIL		-484, R44
		SMOVIL		-1, R45
		SADDA.M1		R45:R44,AR14,AR10
		SNOP		1
		SSTW		R43, *AR10
		SMOVIL		-480, R42
		SMOVIL		-1, R43
		SADDA.M1		R43:R42,AR14,AR10
		SNOP		1
		SLDW		*AR10, R42
		SNOP		5
		SSHFLL		4, R42, R44
		SMOVIL		-488, R42
		SMOVIL		-1, R43
		SADDA.M1		R43:R42,AR14,AR10
		SNOP		1
		SSTW		R44, *AR10
		SMOVIL		8, R42
		SMOVIL		0, R43
		SMOVIL		-488, R46
		SMOVIL		-1, R47
		SADDA.M1		R47:R46,AR14,AR10
		SNOP		1
		SLDW		*AR10, R46
		SNOP		5
		SADD.M1		R42,R46,R44
		SMOVIL		-488, R48
		SMOVIL		-1, R49
		SADDA.M1		R49:R48,AR14,AR10
		SNOP		1
		SLDW		*AR10, R47
		SNOP		5
		SLTU		R44, R47, R46
		SMOVIL		-484, R48
		SMOVIL		-1, R49
		SADDA.M1		R49:R48,AR14,AR10
		SNOP		1
		SLDW		*AR10, R47
		SNOP		5
		SADD.M1		R43,R47,R45
		SADD.M1		R45,R46,R42
		SMOV.M1		R42, R45
		SMOVIL		-168, R42
		SMOVIL		-1, R43
		SMOVIL		-64, R48
		SMOVIL		-1, R49
		SADDA.M1		R49:R48,AR14,OR11
		SNOP		1
		SADDA.M1		R43:R42,OR11,OR11
		SNOP		1
		SMVAAGL.M1		OR11, R43:R42
		SNOP		1
		SMVAAGH.M1		OR11, R43:R42
		SNOP		1
	;no-op trunc di R45:R44 to pdi R45:R44
		SMVAGA36.M1		R43:R42, AR10
		SNOP		1
		SLDDW		*AR10, R43:R42
		SNOP		5
		SMVAGA36.M1		R43:R42, OR11
		SNOP		1
		SADDA.M1		R45:R44,OR11,OR11
		SNOP		1
		SMVAAGL.M1		OR11, R43:R42
		SNOP		1
		SMVAAGH.M1		OR11, R43:R42
		SNOP		1
		SMVAGA36.M1		R43:R42, AR10
		SNOP		1
		SLDDW		*AR10, R45:R44
		SNOP		5
		SLDDW		*-AR14[15], R43:R42
		SNOP		5
		SFMULD.M1		R45:R44, R43:R42, R43:R42
		SNOP		5
		SMOVIL		-160, R44
		SMOVIL		-1, R45
		SADDA.M1		R45:R44,AR14,AR10
		SNOP		1
		SSTDW		R43:R42, *AR10
	.loc 1 70 0
		SMOVIL		-152, R42
		SMOVIL		-1, R43
		SADDA.M1		R43:R42,AR14,AR10
		SNOP		1
		SLDDW		*AR10, R45:R44
		SNOP		5
		SMOVIL		0, R42
		SMOVIL		0, R43
		SFCMPED.M1		R45:R44, R43:R42, R42
		SNOP		1
		SMOV.M1		R42, R0
	[!R0]	SBR		.L14
		SNOP		6
.L35:
	.loc 1 70 0 is_stmt 0 discriminator 1
		SMOVIL		-160, R42
		SMOVIL		-1, R43
		SADDA.M1		R43:R42,AR14,AR10
		SNOP		1
		SLDDW		*AR10, R45:R44
		SNOP		5
		SMOVIL		0, R42
		SMOVIL		0, R43
		SFCMPED.M1		R45:R44, R43:R42, R42
		SNOP		1
		SMOV.M1		R42, R0
	[R0]	SBR		.L9
		SNOP		6
.L14:
	.loc 1 72 0 is_stmt 1
		SMOVIL		-120, R42
		SMOVIL		-1, R43
		SMOVIL		-64, R46
		SMOVIL		-1, R47
		SADDA.M1		R47:R46,AR14,OR11
		SNOP		1
		SADDA.M1		R43:R42,OR11,OR11
		SNOP		1
		SMVAAGL.M1		OR11, R45:R44
		SNOP		1
		SMVAAGH.M1		OR11, R45:R44
		SNOP		1
		SMOVIL		-128, R42
		SMOVIL		-1, R43
		SMOVIL		-64, R46
		SMOVIL		-1, R47
		SADDA.M1		R47:R46,AR14,OR11
		SNOP		1
		SADDA.M1		R43:R42,OR11,OR11
		SNOP		1
		SMVAAGL.M1		OR11, R43:R42
		SNOP		1
		SMVAAGH.M1		OR11, R43:R42
		SNOP		1
		SMOVIL		-152, R46
		SMOVIL		-1, R47
		SADDA.M1		R47:R46,AR14,AR10
		SNOP		1
		SLDDW		*AR10, R11:R10
		SNOP		5
		SMOVIL		-160, R46
		SMOVIL		-1, R47
		SADDA.M1		R47:R46,AR14,AR10
		SNOP		1
		SLDDW		*AR10, R13:R12
		SNOP		5
		SMVAGA36.M1		R45:R44, OR11
		SNOP		1
		SMVAAGL.M1		OR11, R15:R14
		SNOP		1
		SMVAAGH.M1		OR11, R15:R14
		SNOP		1
		SMVAGA36.M1		R43:R42, OR11
		SNOP		1
		SMVAAGL.M1		OR11, R17:R16
		SNOP		1
		SMVAAGH.M1		OR11, R17:R16
		SNOP		1
		SBR		complex_sp_inv_cn
		SMOVIL		.L39, R62
		SMOVIH		.L39, R62
		SMOVIH4.L		.L39, R63
		SNOP		4
.L39:
	.loc 1 74 0
		SMOVIL		-72, R44
		SMOVIL		-1, R45
		SADDA.M1		R45:R44,AR14,AR10
		SNOP		1
		SLDW		*AR10, R42
		SNOP		5
		SADD.M1		1,R42,R42
		SMOVIL		-76, R44
		SMOVIL		-1, R45
		SADDA.M1		R45:R44,AR14,AR10
		SNOP		1
		SSTW		R42, *AR10
		SBR		.L16
		SNOP		6
.L21:
	.loc 1 76 0
		SMOVIL		0, R42
		SMOVIL		0, R43
		SSTDW		R43:R42, *-AR14[12]
	.loc 1 77 0
		SMOVIL		0, R42
		SMOVIL		0, R43
		SSTDW		R43:R42, *-AR14[13]
	.loc 1 78 0
		SMOVIL		-72, R44
		SMOVIL		-1, R45
		SADDA.M1		R45:R44,AR14,AR10
		SNOP		1
		SLDW		*AR10, R42
		SNOP		5
		SMOVIL		-80, R44
		SMOVIL		-1, R45
		SADDA.M1		R45:R44,AR14,AR10
		SNOP		1
		SSTW		R42, *AR10
		SBR		.L17
		SNOP		6
.L18:
	.loc 1 80 0 discriminator 2
		SMOVIL		-80, R42
		SMOVIL		-1, R43
		SADDA.M1		R43:R42,AR14,AR10
		SNOP		1
		SLDW		*AR10, R44
		SNOP		5
		SMOVIL		-496, R42
		SMOVIL		-1, R43
		SADDA.M1		R43:R42,AR14,AR10
		SNOP		1
		SSTW		R44, *AR10
		SMOVIL		-80, R44
		SMOVIL		-1, R45
		SADDA.M1		R45:R44,AR14,AR10
		SNOP		1
		SLDW		*AR10, R42
		SNOP		5
		SSHFAR		31, R42, R42
		SMOVIL		-492, R44
		SMOVIL		-1, R45
		SADDA.M1		R45:R44,AR14,AR10
		SNOP		1
		SSTW		R42, *AR10
		SMOVIL		-496, R44
		SMOVIL		-1, R45
		SADDA.M1		R45:R44,AR14,AR10
		SNOP		1
		SLDW		*AR10, R43
		SNOP		5
		SSHFLR		28, R43, R42
		SMOVIL		-492, R44
		SMOVIL		-1, R45
		SADDA.M1		R45:R44,AR14,AR10
		SNOP		1
		SLDW		*AR10, R43
		SNOP		5
		SSHFLL		4, R43, R43
		SMOVIL		-500, R44
		SMOVIL		-1, R45
		SADDA.M1		R45:R44,AR14,AR10
		SNOP		1
		SSTW		R43, *AR10
		SMOVIL		-500, R44
		SMOVIL		-1, R45
		SADDA.M1		R45:R44,AR14,AR10
		SNOP		1
		SLDW		*AR10, R43
		SNOP		5
		SOR		R43, R42, R43
		SMOVIL		-500, R44
		SMOVIL		-1, R45
		SADDA.M1		R45:R44,AR14,AR10
		SNOP		1
		SSTW		R43, *AR10
		SMOVIL		-496, R42
		SMOVIL		-1, R43
		SADDA.M1		R43:R42,AR14,AR10
		SNOP		1
		SLDW		*AR10, R42
		SNOP		5
		SSHFLL		4, R42, R44
		SMOVIL		-504, R42
		SMOVIL		-1, R43
		SADDA.M1		R43:R42,AR14,AR10
		SNOP		1
		SSTW		R44, *AR10
		SMOVIL		-168, R42
		SMOVIL		-1, R43
		SMOVIL		-64, R44
		SMOVIL		-1, R45
		SADDA.M1		R45:R44,AR14,OR11
		SNOP		1
		SADDA.M1		R43:R42,OR11,OR11
		SNOP		1
		SMVAAGL.M1		OR11, R43:R42
		SNOP		1
		SMVAAGH.M1		OR11, R43:R42
		SNOP		1
		SMOVIL		-504, R46
		SMOVIL		-1, R47
		SADDA.M1		R47:R46,AR14,AR10
		SNOP		1
		SLDDW		*AR10, R45:R44
		SNOP		5
	;no-op trunc di R45:R44 to pdi R45:R44
		SMVAGA36.M1		R43:R42, AR10
		SNOP		1
		SLDDW		*AR10, R43:R42
		SNOP		5
		SMVAGA36.M1		R43:R42, OR11
		SNOP		1
		SADDA.M1		R45:R44,OR11,OR11
		SNOP		1
		SMVAAGL.M1		OR11, R43:R42
		SNOP		1
		SMVAAGH.M1		OR11, R43:R42
		SNOP		1
		SMVAGA36.M1		R43:R42, AR10
		SNOP		1
		SLDDW		*AR10, R43:R42
		SNOP		5
		SMOVIL		-136, R44
		SMOVIL		-1, R45
		SADDA.M1		R45:R44,AR14,AR10
		SNOP		1
		SSTDW		R43:R42, *AR10
	.loc 1 81 0 discriminator 2
		SMOVIL		-80, R42
		SMOVIL		-1, R43
		SADDA.M1		R43:R42,AR14,AR10
		SNOP		1
		SLDW		*AR10, R44
		SNOP		5
		SMOVIL		-512, R42
		SMOVIL		-1, R43
		SADDA.M1		R43:R42,AR14,AR10
		SNOP		1
		SSTW		R44, *AR10
		SMOVIL		-80, R44
		SMOVIL		-1, R45
		SADDA.M1		R45:R44,AR14,AR10
		SNOP		1
		SLDW		*AR10, R42
		SNOP		5
		SSHFAR		31, R42, R42
		SMOVIL		-508, R44
		SMOVIL		-1, R45
		SADDA.M1		R45:R44,AR14,AR10
		SNOP		1
		SSTW		R42, *AR10
		SMOVIL		-512, R44
		SMOVIL		-1, R45
		SADDA.M1		R45:R44,AR14,AR10
		SNOP		1
		SLDW		*AR10, R43
		SNOP		5
		SSHFLR		28, R43, R42
		SMOVIL		-508, R44
		SMOVIL		-1, R45
		SADDA.M1		R45:R44,AR14,AR10
		SNOP		1
		SLDW		*AR10, R43
		SNOP		5
		SSHFLL		4, R43, R43
		SMOVIL		-516, R44
		SMOVIL		-1, R45
		SADDA.M1		R45:R44,AR14,AR10
		SNOP		1
		SSTW		R43, *AR10
		SMOVIL		-516, R44
		SMOVIL		-1, R45
		SADDA.M1		R45:R44,AR14,AR10
		SNOP		1
		SLDW		*AR10, R43
		SNOP		5
		SOR		R43, R42, R43
		SMOVIL		-516, R44
		SMOVIL		-1, R45
		SADDA.M1		R45:R44,AR14,AR10
		SNOP		1
		SSTW		R43, *AR10
		SMOVIL		-512, R42
		SMOVIL		-1, R43
		SADDA.M1		R43:R42,AR14,AR10
		SNOP		1
		SLDW		*AR10, R42
		SNOP		5
		SSHFLL		4, R42, R44
		SMOVIL		-520, R42
		SMOVIL		-1, R43
		SADDA.M1		R43:R42,AR14,AR10
		SNOP		1
		SSTW		R44, *AR10
		SMOVIL		8, R42
		SMOVIL		0, R43
		SMOVIL		-520, R46
		SMOVIL		-1, R47
		SADDA.M1		R47:R46,AR14,AR10
		SNOP		1
		SLDW		*AR10, R46
		SNOP		5
		SADD.M1		R42,R46,R44
		SMOVIL		-520, R48
		SMOVIL		-1, R49
		SADDA.M1		R49:R48,AR14,AR10
		SNOP		1
		SLDW		*AR10, R47
		SNOP		5
		SLTU		R44, R47, R46
		SMOVIL		-516, R48
		SMOVIL		-1, R49
		SADDA.M1		R49:R48,AR14,AR10
		SNOP		1
		SLDW		*AR10, R47
		SNOP		5
		SADD.M1		R43,R47,R45
		SADD.M1		R45,R46,R42
		SMOV.M1		R42, R45
		SMOVIL		-168, R42
		SMOVIL		-1, R43
		SMOVIL		-64, R48
		SMOVIL		-1, R49
		SADDA.M1		R49:R48,AR14,OR11
		SNOP		1
		SADDA.M1		R43:R42,OR11,OR11
		SNOP		1
		SMVAAGL.M1		OR11, R43:R42
		SNOP		1
		SMVAAGH.M1		OR11, R43:R42
		SNOP		1
	;no-op trunc di R45:R44 to pdi R45:R44
		SMVAGA36.M1		R43:R42, AR10
		SNOP		1
		SLDDW		*AR10, R43:R42
		SNOP		5
		SMVAGA36.M1		R43:R42, OR11
		SNOP		1
		SADDA.M1		R45:R44,OR11,OR11
		SNOP		1
		SMVAAGL.M1		OR11, R43:R42
		SNOP		1
		SMVAAGH.M1		OR11, R43:R42
		SNOP		1
		SMVAGA36.M1		R43:R42, AR10
		SNOP		1
		SLDDW		*AR10, R47:R46
		SNOP		5
		SMOVIL		-80, R42
		SMOVIL		-1, R43
		SMOVIL		-64, R44
		SMOVIL		-1, R45
		SADDA.M1		R45:R44,AR14,OR11
		SNOP		1
		SADDA.M1		R43:R42,OR11,OR11
		SNOP		1
		SMVAAGL.M1		OR11, R43:R42
		SNOP		1
		SMVAAGH.M1		OR11, R43:R42
		SNOP		1
		SMVAGA36.M1		R43:R42, AR10
		SNOP		1
		SSTW		R46, *AR10
		SMOVIL		-76, R42
		SMOVIL		-1, R43
		SMOVIL		-64, R44
		SMOVIL		-1, R45
		SADDA.M1		R45:R44,AR14,OR11
		SNOP		1
		SADDA.M1		R43:R42,OR11,OR11
		SNOP		1
		SMVAAGL.M1		OR11, R43:R42
		SNOP		1
		SMVAAGH.M1		OR11, R43:R42
		SNOP		1
		SMOVIL		-2147483648, R44
		SMOVIH		-2147483648, R44
		SXOR		R44, R47, R44
		SMVAGA36.M1		R43:R42, AR10
		SNOP		1
		SSTW		R44, *AR10
	.loc 1 82 0 discriminator 2
		SMOVIL		-76, R44
		SMOVIL		-1, R45
		SADDA.M1		R45:R44,AR14,AR10
		SNOP		1
		SLDW		*AR10, R42
		SNOP		5
		SSHFLL		1, R42, R44
		SMOVIL		-80, R46
		SMOVIL		-1, R47
		SADDA.M1		R47:R46,AR14,AR10
		SNOP		1
		SLDW		*AR10, R43
		SNOP		5
		SMOVIL		-124, R46
		SMOVIL		-1, R47
		SADDA.M1		R47:R46,AR14,AR10
		SNOP		1
		SLDW		*AR10, R42
		SNOP		5
		SMULIS.M1		R42,R43,R42
		SNOP		2
		SADD.M1		R42,R44,R42
		SMOVIL		-528, R44
		SMOVIL		-1, R45
		SADDA.M1		R45:R44,AR14,AR10
		SNOP		1
		SSTW		R42, *AR10
		SSHFAR		31, R42, R42
		SMOVIL		-524, R44
		SMOVIL		-1, R45
		SADDA.M1		R45:R44,AR14,AR10
		SNOP		1
		SSTW		R42, *AR10
		SMOVIL		-528, R42
		SMOVIL		-1, R43
		SADDA.M1		R43:R42,AR14,AR10
		SNOP		1
		SLDW		*AR10, R46
		SNOP		5
		SMOVIL		-528, R42
		SMOVIL		-1, R43
		SADDA.M1		R43:R42,AR14,AR10
		SNOP		1
		SLDW		*AR10, R42
		SNOP		5
		SADD.M1		R42,R46,R44
		SMOVIL		-528, R46
		SMOVIL		-1, R47
		SADDA.M1		R47:R46,AR14,AR10
		SNOP		1
		SLDW		*AR10, R43
		SNOP		5
		SLTU		R44, R43, R42
		SMOVIL		-524, R46
		SMOVIL		-1, R47
		SADDA.M1		R47:R46,AR14,AR10
		SNOP		1
		SLDW		*AR10, R43
		SNOP		5
		SMOVIL		-524, R46
		SMOVIL		-1, R47
		SADDA.M1		R47:R46,AR14,AR10
		SNOP		1
		SLDW		*AR10, R46
		SNOP		5
		SADD.M1		R46,R43,R45
		SADD.M1		R45,R42,R42
		SMOV.M1		R42, R45
		SADD.M1		R44,R44,R42
		SLTU		R42, R44, R46
		SADD.M1		R45,R45,R43
		SADD.M1		R43,R46,R44
		SMOV.M1		R44, R43
		SADD.M1		R42,R42,R44
		SLTU		R44, R42, R46
		SADD.M1		R43,R43,R45
		SADD.M1		R45,R46,R42
		SMOV.M1		R42, R45
		SMOVIL		-160, R42
		SMOVIL		-1, R43
		SMOVIL		-64, R48
		SMOVIL		-1, R49
		SADDA.M1		R49:R48,AR14,OR11
		SNOP		1
		SADDA.M1		R43:R42,OR11,OR11
		SNOP		1
		SMVAAGL.M1		OR11, R43:R42
		SNOP		1
		SMVAAGH.M1		OR11, R43:R42
		SNOP		1
	;no-op trunc di R45:R44 to pdi R45:R44
		SMVAGA36.M1		R43:R42, AR10
		SNOP		1
		SLDDW		*AR10, R43:R42
		SNOP		5
		SMVAGA36.M1		R43:R42, OR11
		SNOP		1
		SADDA.M1		R45:R44,OR11,OR11
		SNOP		1
		SMVAAGL.M1		OR11, R43:R42
		SNOP		1
		SMVAAGH.M1		OR11, R43:R42
		SNOP		1
		SMVAGA36.M1		R43:R42, AR10
		SNOP		1
		SLDDW		*AR10, R43:R42
		SNOP		5
		SMOVIL		-168, R44
		SMOVIL		-1, R45
		SADDA.M1		R45:R44,AR14,AR10
		SNOP		1
		SSTDW		R43:R42, *AR10
	.loc 1 83 0 discriminator 2
		SMOVIL		-76, R44
		SMOVIL		-1, R45
		SADDA.M1		R45:R44,AR14,AR10
		SNOP		1
		SLDW		*AR10, R42
		SNOP		5
		SSHFLL		1, R42, R42
		SADD.M1		1,R42,R44
		SMOVIL		-80, R46
		SMOVIL		-1, R47
		SADDA.M1		R47:R46,AR14,AR10
		SNOP		1
		SLDW		*AR10, R43
		SNOP		5
		SMOVIL		-124, R46
		SMOVIL		-1, R47
		SADDA.M1		R47:R46,AR14,AR10
		SNOP		1
		SLDW		*AR10, R42
		SNOP		5
		SMULIS.M1		R42,R43,R42
		SNOP		2
		SADD.M1		R42,R44,R42
		SMOVIL		-536, R44
		SMOVIL		-1, R45
		SADDA.M1		R45:R44,AR14,AR10
		SNOP		1
		SSTW		R42, *AR10
		SSHFAR		31, R42, R42
		SMOVIL		-532, R44
		SMOVIL		-1, R45
		SADDA.M1		R45:R44,AR14,AR10
		SNOP		1
		SSTW		R42, *AR10
		SMOVIL		-536, R42
		SMOVIL		-1, R43
		SADDA.M1		R43:R42,AR14,AR10
		SNOP		1
		SLDW		*AR10, R46
		SNOP		5
		SMOVIL		-536, R42
		SMOVIL		-1, R43
		SADDA.M1		R43:R42,AR14,AR10
		SNOP		1
		SLDW		*AR10, R42
		SNOP		5
		SADD.M1		R42,R46,R44
		SMOVIL		-536, R46
		SMOVIL		-1, R47
		SADDA.M1		R47:R46,AR14,AR10
		SNOP		1
		SLDW		*AR10, R43
		SNOP		5
		SLTU		R44, R43, R42
		SMOVIL		-532, R46
		SMOVIL		-1, R47
		SADDA.M1		R47:R46,AR14,AR10
		SNOP		1
		SLDW		*AR10, R43
		SNOP		5
		SMOVIL		-532, R46
		SMOVIL		-1, R47
		SADDA.M1		R47:R46,AR14,AR10
		SNOP		1
		SLDW		*AR10, R46
		SNOP		5
		SADD.M1		R46,R43,R45
		SADD.M1		R45,R42,R42
		SMOV.M1		R42, R45
		SADD.M1		R44,R44,R42
		SLTU		R42, R44, R46
		SADD.M1		R45,R45,R43
		SADD.M1		R43,R46,R44
		SMOV.M1		R44, R43
		SADD.M1		R42,R42,R44
		SLTU		R44, R42, R46
		SADD.M1		R43,R43,R45
		SADD.M1		R45,R46,R42
		SMOV.M1		R42, R45
		SMOVIL		-160, R42
		SMOVIL		-1, R43
		SMOVIL		-64, R48
		SMOVIL		-1, R49
		SADDA.M1		R49:R48,AR14,OR11
		SNOP		1
		SADDA.M1		R43:R42,OR11,OR11
		SNOP		1
		SMVAAGL.M1		OR11, R43:R42
		SNOP		1
		SMVAAGH.M1		OR11, R43:R42
		SNOP		1
	;no-op trunc di R45:R44 to pdi R45:R44
		SMVAGA36.M1		R43:R42, AR10
		SNOP		1
		SLDDW		*AR10, R43:R42
		SNOP		5
		SMVAGA36.M1		R43:R42, OR11
		SNOP		1
		SADDA.M1		R45:R44,OR11,OR11
		SNOP		1
		SMVAAGL.M1		OR11, R43:R42
		SNOP		1
		SMVAAGH.M1		OR11, R43:R42
		SNOP		1
		SMVAGA36.M1		R43:R42, AR10
		SNOP		1
		SLDDW		*AR10, R43:R42
		SNOP		5
		SMOVIL		-176, R44
		SMOVIL		-1, R45
		SADDA.M1		R45:R44,AR14,AR10
		SNOP		1
		SSTDW		R43:R42, *AR10
	.loc 1 84 0 discriminator 2
		SMOVIL		-136, R42
		SMOVIL		-1, R43
		SADDA.M1		R43:R42,AR14,AR10
		SNOP		1
		SLDDW		*AR10, R45:R44
		SNOP		5
		SMOVIL		-168, R46
		SMOVIL		-1, R47
		SADDA.M1		R47:R46,AR14,AR10
		SNOP		1
		SLDDW		*AR10, R43:R42
		SNOP		5
		SFMULD.M1		R45:R44, R43:R42, R47:R46
		SNOP		5
		SMOVIL		-144, R42
		SMOVIL		-1, R43
		SADDA.M1		R43:R42,AR14,AR10
		SNOP		1
		SLDDW		*AR10, R45:R44
		SNOP		5
		SMOVIL		-176, R48
		SMOVIL		-1, R49
		SADDA.M1		R49:R48,AR14,AR10
		SNOP		1
		SLDDW		*AR10, R43:R42
		SNOP		5
		SFMULD.M1		R45:R44, R43:R42, R43:R42
		SNOP		5
		SFSUBD.M1	R43:R42, R47:R46, R45:R44
		SNOP		4
		SLDDW		*-AR14[12], R43:R42
		SNOP		5
		SFADDD.M1		R43:R42, R45:R44, R43:R42
		SNOP		4
		SSTDW		R43:R42, *-AR14[12]
	.loc 1 85 0 discriminator 2
		SMOVIL		-136, R42
		SMOVIL		-1, R43
		SADDA.M1		R43:R42,AR14,AR10
		SNOP		1
		SLDDW		*AR10, R45:R44
		SNOP		5
		SMOVIL		-176, R46
		SMOVIL		-1, R47
		SADDA.M1		R47:R46,AR14,AR10
		SNOP		1
		SLDDW		*AR10, R43:R42
		SNOP		5
		SFMULD.M1		R45:R44, R43:R42, R47:R46
		SNOP		5
		SMOVIL		-144, R42
		SMOVIL		-1, R43
		SADDA.M1		R43:R42,AR14,AR10
		SNOP		1
		SLDDW		*AR10, R45:R44
		SNOP		5
		SMOVIL		-168, R48
		SMOVIL		-1, R49
		SADDA.M1		R49:R48,AR14,AR10
		SNOP		1
		SLDDW		*AR10, R43:R42
		SNOP		5
		SFMULD.M1		R45:R44, R43:R42, R43:R42
		SNOP		5
		SFADDD.M1		R47:R46, R43:R42, R45:R44
		SNOP		4
		SLDDW		*-AR14[13], R43:R42
		SNOP		5
		SFADDD.M1		R43:R42, R45:R44, R43:R42
		SNOP		4
		SSTDW		R43:R42, *-AR14[13]
	.loc 1 78 0 discriminator 2
		SMOVIL		-80, R44
		SMOVIL		-1, R45
		SADDA.M1		R45:R44,AR14,AR10
		SNOP		1
		SLDW		*AR10, R42
		SNOP		5
		SADD.M1		1,R42,R42
		SMOVIL		-80, R44
		SMOVIL		-1, R45
		SADDA.M1		R45:R44,AR14,AR10
		SNOP		1
		SSTW		R42, *AR10
.L17:
	.loc 1 78 0 is_stmt 0 discriminator 1
		SMOVIL		-132, R42
		SMOVIL		-1, R43
		SMOVIL		-64, R44
		SMOVIL		-1, R45
		SADDA.M1		R45:R44,AR14,OR11
		SNOP		1
		SADDA.M1		R43:R42,OR11,OR11
		SNOP		1
		SMVAAGL.M1		OR11, R43:R42
		SNOP		1
		SMVAAGH.M1		OR11, R43:R42
		SNOP		1
		SMOVIL		-80, R46
		SMOVIL		-1, R47
		SADDA.M1		R47:R46,AR14,AR10
		SNOP		1
		SLDW		*AR10, R44
		SNOP		5
		SMVAGA36.M1		R43:R42, AR10
		SNOP		1
		SLDW		*AR10, R42
		SNOP		5
		SLT		R44, R42, R42
		SMOV.M1		R42, R0
	[R0]	SBR		.L18
		SNOP		6
	.loc 1 87 0 is_stmt 1
		SLDDW		*-AR14[12], R43:R42
		SNOP		5
		SMOVIL		-136, R44
		SMOVIL		-1, R45
		SADDA.M1		R45:R44,AR14,AR10
		SNOP		1
		SSTDW		R43:R42, *AR10
	.loc 1 88 0
		SLDDW		*-AR14[13], R43:R42
		SNOP		5
		SMOVIL		-144, R44
		SMOVIL		-1, R45
		SADDA.M1		R45:R44,AR14,AR10
		SNOP		1
		SSTDW		R43:R42, *AR10
	.loc 1 89 0
		SMOVIL		-184, R44
		SMOVIL		-1, R45
		SADDA.M1		R45:R44,AR14,AR10
		SNOP		1
		SLDDW		*AR10, R43:R42
		SNOP		5
		SMOVIL		-168, R44
		SMOVIL		-1, R45
		SADDA.M1		R45:R44,AR14,AR10
		SNOP		1
		SSTDW		R43:R42, *AR10
	.loc 1 90 0
		SMOVIL		-128, R42
		SMOVIL		-1, R43
		SMOVIL		-64, R44
		SMOVIL		-1, R45
		SADDA.M1		R45:R44,AR14,OR11
		SNOP		1
		SADDA.M1		R43:R42,OR11,OR11
		SNOP		1
		SMVAAGL.M1		OR11, R43:R42
		SNOP		1
		SMVAAGH.M1		OR11, R43:R42
		SNOP		1
		SMVAGA36.M1		R43:R42, AR10
		SNOP		1
		SLDDW		*AR10, R43:R42
		SNOP		5
		SMOVIL		-176, R44
		SMOVIL		-1, R45
		SADDA.M1		R45:R44,AR14,AR10
		SNOP		1
		SSTDW		R43:R42, *AR10
	.loc 1 91 0
		SMOVIL		-136, R42
		SMOVIL		-1, R43
		SADDA.M1		R43:R42,AR14,AR10
		SNOP		1
		SLDDW		*AR10, R45:R44
		SNOP		5
		SMOVIL		-168, R46
		SMOVIL		-1, R47
		SADDA.M1		R47:R46,AR14,AR10
		SNOP		1
		SLDDW		*AR10, R43:R42
		SNOP		5
		SFMULD.M1		R45:R44, R43:R42, R47:R46
		SNOP		5
		SMOVIL		-144, R42
		SMOVIL		-1, R43
		SADDA.M1		R43:R42,AR14,AR10
		SNOP		1
		SLDDW		*AR10, R45:R44
		SNOP		5
		SMOVIL		-176, R48
		SMOVIL		-1, R49
		SADDA.M1		R49:R48,AR14,AR10
		SNOP		1
		SLDDW		*AR10, R43:R42
		SNOP		5
		SFMULD.M1		R45:R44, R43:R42, R43:R42
		SNOP		5
		SFSUBD.M1	R43:R42, R47:R46, R43:R42
		SNOP		4
		SSTDW		R43:R42, *-AR14[12]
	.loc 1 92 0
		SMOVIL		-136, R42
		SMOVIL		-1, R43
		SADDA.M1		R43:R42,AR14,AR10
		SNOP		1
		SLDDW		*AR10, R45:R44
		SNOP		5
		SMOVIL		-176, R46
		SMOVIL		-1, R47
		SADDA.M1		R47:R46,AR14,AR10
		SNOP		1
		SLDDW		*AR10, R43:R42
		SNOP		5
		SFMULD.M1		R45:R44, R43:R42, R47:R46
		SNOP		5
		SMOVIL		-144, R42
		SMOVIL		-1, R43
		SADDA.M1		R43:R42,AR14,AR10
		SNOP		1
		SLDDW		*AR10, R45:R44
		SNOP		5
		SMOVIL		-168, R48
		SMOVIL		-1, R49
		SADDA.M1		R49:R48,AR14,AR10
		SNOP		1
		SLDDW		*AR10, R43:R42
		SNOP		5
		SFMULD.M1		R45:R44, R43:R42, R43:R42
		SNOP		5
		SFADDD.M1		R47:R46, R43:R42, R43:R42
		SNOP		4
		SSTDW		R43:R42, *-AR14[13]
	.loc 1 93 0
		SMOVIL		-72, R44
		SMOVIL		-1, R45
		SADDA.M1		R45:R44,AR14,AR10
		SNOP		1
		SLDW		*AR10, R42
		SNOP		5
		SMOVIL		-80, R44
		SMOVIL		-1, R45
		SADDA.M1		R45:R44,AR14,AR10
		SNOP		1
		SSTW		R42, *AR10
		SBR		.L19
		SNOP		6
.L20:
	.loc 1 95 0 discriminator 2
		SMOVIL		-80, R42
		SMOVIL		-1, R43
		SADDA.M1		R43:R42,AR14,AR10
		SNOP		1
		SLDW		*AR10, R44
		SNOP		5
		SMOVIL		-544, R42
		SMOVIL		-1, R43
		SADDA.M1		R43:R42,AR14,AR10
		SNOP		1
		SSTW		R44, *AR10
		SMOVIL		-80, R44
		SMOVIL		-1, R45
		SADDA.M1		R45:R44,AR14,AR10
		SNOP		1
		SLDW		*AR10, R42
		SNOP		5
		SSHFAR		31, R42, R42
		SMOVIL		-540, R44
		SMOVIL		-1, R45
		SADDA.M1		R45:R44,AR14,AR10
		SNOP		1
		SSTW		R42, *AR10
		SMOVIL		-544, R44
		SMOVIL		-1, R45
		SADDA.M1		R45:R44,AR14,AR10
		SNOP		1
		SLDW		*AR10, R43
		SNOP		5
		SSHFLR		28, R43, R42
		SMOVIL		-540, R44
		SMOVIL		-1, R45
		SADDA.M1		R45:R44,AR14,AR10
		SNOP		1
		SLDW		*AR10, R43
		SNOP		5
		SSHFLL		4, R43, R43
		SMOVIL		-548, R44
		SMOVIL		-1, R45
		SADDA.M1		R45:R44,AR14,AR10
		SNOP		1
		SSTW		R43, *AR10
		SMOVIL		-548, R44
		SMOVIL		-1, R45
		SADDA.M1		R45:R44,AR14,AR10
		SNOP		1
		SLDW		*AR10, R43
		SNOP		5
		SOR		R43, R42, R43
		SMOVIL		-548, R44
		SMOVIL		-1, R45
		SADDA.M1		R45:R44,AR14,AR10
		SNOP		1
		SSTW		R43, *AR10
		SMOVIL		-544, R42
		SMOVIL		-1, R43
		SADDA.M1		R43:R42,AR14,AR10
		SNOP		1
		SLDW		*AR10, R42
		SNOP		5
		SSHFLL		4, R42, R44
		SMOVIL		-552, R42
		SMOVIL		-1, R43
		SADDA.M1		R43:R42,AR14,AR10
		SNOP		1
		SSTW		R44, *AR10
		SMOVIL		-168, R42
		SMOVIL		-1, R43
		SMOVIL		-64, R44
		SMOVIL		-1, R45
		SADDA.M1		R45:R44,AR14,OR11
		SNOP		1
		SADDA.M1		R43:R42,OR11,OR11
		SNOP		1
		SMVAAGL.M1		OR11, R43:R42
		SNOP		1
		SMVAAGH.M1		OR11, R43:R42
		SNOP		1
		SMOVIL		-552, R46
		SMOVIL		-1, R47
		SADDA.M1		R47:R46,AR14,AR10
		SNOP		1
		SLDDW		*AR10, R45:R44
		SNOP		5
	;no-op trunc di R45:R44 to pdi R45:R44
		SMVAGA36.M1		R43:R42, AR10
		SNOP		1
		SLDDW		*AR10, R43:R42
		SNOP		5
		SMVAGA36.M1		R43:R42, OR11
		SNOP		1
		SADDA.M1		R45:R44,OR11,OR11
		SNOP		1
		SMVAAGL.M1		OR11, R43:R42
		SNOP		1
		SMVAAGH.M1		OR11, R43:R42
		SNOP		1
		SMVAGA36.M1		R43:R42, AR10
		SNOP		1
		SLDDW		*AR10, R43:R42
		SNOP		5
		SMOVIL		-136, R44
		SMOVIL		-1, R45
		SADDA.M1		R45:R44,AR14,AR10
		SNOP		1
		SSTDW		R43:R42, *AR10
	.loc 1 96 0 discriminator 2
		SMOVIL		-80, R42
		SMOVIL		-1, R43
		SADDA.M1		R43:R42,AR14,AR10
		SNOP		1
		SLDW		*AR10, R44
		SNOP		5
		SMOVIL		-560, R42
		SMOVIL		-1, R43
		SADDA.M1		R43:R42,AR14,AR10
		SNOP		1
		SSTW		R44, *AR10
		SMOVIL		-80, R44
		SMOVIL		-1, R45
		SADDA.M1		R45:R44,AR14,AR10
		SNOP		1
		SLDW		*AR10, R42
		SNOP		5
		SSHFAR		31, R42, R42
		SMOVIL		-556, R44
		SMOVIL		-1, R45
		SADDA.M1		R45:R44,AR14,AR10
		SNOP		1
		SSTW		R42, *AR10
		SMOVIL		-560, R44
		SMOVIL		-1, R45
		SADDA.M1		R45:R44,AR14,AR10
		SNOP		1
		SLDW		*AR10, R43
		SNOP		5
		SSHFLR		28, R43, R42
		SMOVIL		-556, R44
		SMOVIL		-1, R45
		SADDA.M1		R45:R44,AR14,AR10
		SNOP		1
		SLDW		*AR10, R43
		SNOP		5
		SSHFLL		4, R43, R43
		SMOVIL		-564, R44
		SMOVIL		-1, R45
		SADDA.M1		R45:R44,AR14,AR10
		SNOP		1
		SSTW		R43, *AR10
		SMOVIL		-564, R44
		SMOVIL		-1, R45
		SADDA.M1		R45:R44,AR14,AR10
		SNOP		1
		SLDW		*AR10, R43
		SNOP		5
		SOR		R43, R42, R43
		SMOVIL		-564, R44
		SMOVIL		-1, R45
		SADDA.M1		R45:R44,AR14,AR10
		SNOP		1
		SSTW		R43, *AR10
		SMOVIL		-560, R42
		SMOVIL		-1, R43
		SADDA.M1		R43:R42,AR14,AR10
		SNOP		1
		SLDW		*AR10, R42
		SNOP		5
		SSHFLL		4, R42, R44
		SMOVIL		-568, R42
		SMOVIL		-1, R43
		SADDA.M1		R43:R42,AR14,AR10
		SNOP		1
		SSTW		R44, *AR10
		SMOVIL		8, R42
		SMOVIL		0, R43
		SMOVIL		-568, R46
		SMOVIL		-1, R47
		SADDA.M1		R47:R46,AR14,AR10
		SNOP		1
		SLDW		*AR10, R46
		SNOP		5
		SADD.M1		R42,R46,R44
		SMOVIL		-568, R48
		SMOVIL		-1, R49
		SADDA.M1		R49:R48,AR14,AR10
		SNOP		1
		SLDW		*AR10, R47
		SNOP		5
		SLTU		R44, R47, R46
		SMOVIL		-564, R48
		SMOVIL		-1, R49
		SADDA.M1		R49:R48,AR14,AR10
		SNOP		1
		SLDW		*AR10, R47
		SNOP		5
		SADD.M1		R43,R47,R45
		SADD.M1		R45,R46,R42
		SMOV.M1		R42, R45
		SMOVIL		-168, R42
		SMOVIL		-1, R43
		SMOVIL		-64, R48
		SMOVIL		-1, R49
		SADDA.M1		R49:R48,AR14,OR11
		SNOP		1
		SADDA.M1		R43:R42,OR11,OR11
		SNOP		1
		SMVAAGL.M1		OR11, R43:R42
		SNOP		1
		SMVAAGH.M1		OR11, R43:R42
		SNOP		1
	;no-op trunc di R45:R44 to pdi R45:R44
		SMVAGA36.M1		R43:R42, AR10
		SNOP		1
		SLDDW		*AR10, R43:R42
		SNOP		5
		SMVAGA36.M1		R43:R42, OR11
		SNOP		1
		SADDA.M1		R45:R44,OR11,OR11
		SNOP		1
		SMVAAGL.M1		OR11, R43:R42
		SNOP		1
		SMVAAGH.M1		OR11, R43:R42
		SNOP		1
		SMVAGA36.M1		R43:R42, AR10
		SNOP		1
		SLDDW		*AR10, R43:R42
		SNOP		5
		SMOVIL		-144, R44
		SMOVIL		-1, R45
		SADDA.M1		R45:R44,AR14,AR10
		SNOP		1
		SSTDW		R43:R42, *AR10
	.loc 1 97 0 discriminator 2
		SLDDW		*-AR14[12], R43:R42
		SNOP		5
		SMOVIL		-168, R44
		SMOVIL		-1, R45
		SADDA.M1		R45:R44,AR14,AR10
		SNOP		1
		SSTDW		R43:R42, *AR10
	.loc 1 98 0 discriminator 2
		SLDDW		*-AR14[13], R43:R42
		SNOP		5
		SMOVIL		-176, R44
		SMOVIL		-1, R45
		SADDA.M1		R45:R44,AR14,AR10
		SNOP		1
		SSTDW		R43:R42, *AR10
	.loc 1 99 0 discriminator 2
		SMOVIL		-76, R44
		SMOVIL		-1, R45
		SADDA.M1		R45:R44,AR14,AR10
		SNOP		1
		SLDW		*AR10, R42
		SNOP		5
		SSHFLL		1, R42, R44
		SMOVIL		-80, R46
		SMOVIL		-1, R47
		SADDA.M1		R47:R46,AR14,AR10
		SNOP		1
		SLDW		*AR10, R43
		SNOP		5
		SMOVIL		-124, R46
		SMOVIL		-1, R47
		SADDA.M1		R47:R46,AR14,AR10
		SNOP		1
		SLDW		*AR10, R42
		SNOP		5
		SMULIS.M1		R42,R43,R42
		SNOP		2
		SADD.M1		R42,R44,R42
		SMOVIL		-576, R44
		SMOVIL		-1, R45
		SADDA.M1		R45:R44,AR14,AR10
		SNOP		1
		SSTW		R42, *AR10
		SSHFAR		31, R42, R42
		SMOVIL		-572, R44
		SMOVIL		-1, R45
		SADDA.M1		R45:R44,AR14,AR10
		SNOP		1
		SSTW		R42, *AR10
		SMOVIL		-576, R42
		SMOVIL		-1, R43
		SADDA.M1		R43:R42,AR14,AR10
		SNOP		1
		SLDW		*AR10, R46
		SNOP		5
		SMOVIL		-576, R42
		SMOVIL		-1, R43
		SADDA.M1		R43:R42,AR14,AR10
		SNOP		1
		SLDW		*AR10, R42
		SNOP		5
		SADD.M1		R42,R46,R44
		SMOVIL		-576, R46
		SMOVIL		-1, R47
		SADDA.M1		R47:R46,AR14,AR10
		SNOP		1
		SLDW		*AR10, R43
		SNOP		5
		SLTU		R44, R43, R42
		SMOVIL		-572, R46
		SMOVIL		-1, R47
		SADDA.M1		R47:R46,AR14,AR10
		SNOP		1
		SLDW		*AR10, R43
		SNOP		5
		SMOVIL		-572, R46
		SMOVIL		-1, R47
		SADDA.M1		R47:R46,AR14,AR10
		SNOP		1
		SLDW		*AR10, R46
		SNOP		5
		SADD.M1		R46,R43,R45
		SADD.M1		R45,R42,R42
		SMOV.M1		R42, R45
		SADD.M1		R44,R44,R42
		SLTU		R42, R44, R46
		SADD.M1		R45,R45,R43
		SADD.M1		R43,R46,R44
		SMOV.M1		R44, R43
		SADD.M1		R42,R42,R44
		SLTU		R44, R42, R46
		SADD.M1		R43,R43,R45
		SADD.M1		R45,R46,R42
		SMOV.M1		R42, R45
		SMOVIL		-160, R42
		SMOVIL		-1, R43
		SMOVIL		-64, R48
		SMOVIL		-1, R49
		SADDA.M1		R49:R48,AR14,OR11
		SNOP		1
		SADDA.M1		R43:R42,OR11,OR11
		SNOP		1
		SMVAAGL.M1		OR11, R43:R42
		SNOP		1
		SMVAAGH.M1		OR11, R43:R42
		SNOP		1
	;no-op trunc di R45:R44 to pdi R45:R44
		SMVAGA36.M1		R43:R42, AR10
		SNOP		1
		SLDDW		*AR10, R43:R42
		SNOP		5
		SMVAGA36.M1		R43:R42, OR11
		SNOP		1
		SADDA.M1		R45:R44,OR11,OR11
		SNOP		1
		SMVAAGL.M1		OR11, R51:R50
		SNOP		1
		SMVAAGH.M1		OR11, R51:R50
		SNOP		1
		SMOVIL		-76, R44
		SMOVIL		-1, R45
		SADDA.M1		R45:R44,AR14,AR10
		SNOP		1
		SLDW		*AR10, R42
		SNOP		5
		SSHFLL		1, R42, R44
		SMOVIL		-80, R46
		SMOVIL		-1, R47
		SADDA.M1		R47:R46,AR14,AR10
		SNOP		1
		SLDW		*AR10, R43
		SNOP		5
		SMOVIL		-124, R46
		SMOVIL		-1, R47
		SADDA.M1		R47:R46,AR14,AR10
		SNOP		1
		SLDW		*AR10, R42
		SNOP		5
		SMULIS.M1		R42,R43,R42
		SNOP		2
		SADD.M1		R42,R44,R42
		SMOVIL		-584, R44
		SMOVIL		-1, R45
		SADDA.M1		R45:R44,AR14,AR10
		SNOP		1
		SSTW		R42, *AR10
		SSHFAR		31, R42, R42
		SMOVIL		-580, R44
		SMOVIL		-1, R45
		SADDA.M1		R45:R44,AR14,AR10
		SNOP		1
		SSTW		R42, *AR10
		SMOVIL		-584, R42
		SMOVIL		-1, R43
		SADDA.M1		R43:R42,AR14,AR10
		SNOP		1
		SLDW		*AR10, R46
		SNOP		5
		SMOVIL		-584, R42
		SMOVIL		-1, R43
		SADDA.M1		R43:R42,AR14,AR10
		SNOP		1
		SLDW		*AR10, R42
		SNOP		5
		SADD.M1		R42,R46,R44
		SMOVIL		-584, R46
		SMOVIL		-1, R47
		SADDA.M1		R47:R46,AR14,AR10
		SNOP		1
		SLDW		*AR10, R43
		SNOP		5
		SLTU		R44, R43, R42
		SMOVIL		-580, R46
		SMOVIL		-1, R47
		SADDA.M1		R47:R46,AR14,AR10
		SNOP		1
		SLDW		*AR10, R43
		SNOP		5
		SMOVIL		-580, R46
		SMOVIL		-1, R47
		SADDA.M1		R47:R46,AR14,AR10
		SNOP		1
		SLDW		*AR10, R46
		SNOP		5
		SADD.M1		R46,R43,R45
		SADD.M1		R45,R42,R42
		SMOV.M1		R42, R45
		SADD.M1		R44,R44,R42
		SLTU		R42, R44, R46
		SADD.M1		R45,R45,R43
		SADD.M1		R43,R46,R44
		SMOV.M1		R44, R43
		SADD.M1		R42,R42,R44
		SLTU		R44, R42, R46
		SADD.M1		R43,R43,R45
		SADD.M1		R45,R46,R42
		SMOV.M1		R42, R45
		SMOVIL		-160, R42
		SMOVIL		-1, R43
		SMOVIL		-64, R48
		SMOVIL		-1, R49
		SADDA.M1		R49:R48,AR14,OR11
		SNOP		1
		SADDA.M1		R43:R42,OR11,OR11
		SNOP		1
		SMVAAGL.M1		OR11, R43:R42
		SNOP		1
		SMVAAGH.M1		OR11, R43:R42
		SNOP		1
	;no-op trunc di R45:R44 to pdi R45:R44
		SMVAGA36.M1		R43:R42, AR10
		SNOP		1
		SLDDW		*AR10, R43:R42
		SNOP		5
		SMVAGA36.M1		R43:R42, OR11
		SNOP		1
		SADDA.M1		R45:R44,OR11,OR11
		SNOP		1
		SMVAAGL.M1		OR11, R43:R42
		SNOP		1
		SMVAAGH.M1		OR11, R43:R42
		SNOP		1
		SMVAGA36.M1		R43:R42, AR10
		SNOP		1
		SLDDW		*AR10, R49:R48
		SNOP		5
		SMOVIL		-136, R42
		SMOVIL		-1, R43
		SADDA.M1		R43:R42,AR14,AR10
		SNOP		1
		SLDDW		*AR10, R45:R44
		SNOP		5
		SMOVIL		-168, R46
		SMOVIL		-1, R47
		SADDA.M1		R47:R46,AR14,AR10
		SNOP		1
		SLDDW		*AR10, R43:R42
		SNOP		5
		SFMULD.M1		R45:R44, R43:R42, R47:R46
		SNOP		5
		SMOVIL		-144, R42
		SMOVIL		-1, R43
		SADDA.M1		R43:R42,AR14,AR10
		SNOP		1
		SLDDW		*AR10, R45:R44
		SNOP		5
		SMOVIL		-176, R52
		SMOVIL		-1, R53
		SADDA.M1		R53:R52,AR14,AR10
		SNOP		1
		SLDDW		*AR10, R43:R42
		SNOP		5
		SFMULD.M1		R45:R44, R43:R42, R43:R42
		SNOP		5
		SFSUBD.M1	R43:R42, R47:R46, R43:R42
		SNOP		4
		SFSUBD.M1	R43:R42, R49:R48, R43:R42
		SNOP		4
		SMVAGA36.M1		R51:R50, AR10
		SNOP		1
		SSTDW		R43:R42, *AR10
	.loc 1 100 0 discriminator 2
		SMOVIL		-76, R44
		SMOVIL		-1, R45
		SADDA.M1		R45:R44,AR14,AR10
		SNOP		1
		SLDW		*AR10, R42
		SNOP		5
		SSHFLL		1, R42, R42
		SADD.M1		1,R42,R44
		SMOVIL		-80, R46
		SMOVIL		-1, R47
		SADDA.M1		R47:R46,AR14,AR10
		SNOP		1
		SLDW		*AR10, R43
		SNOP		5
		SMOVIL		-124, R46
		SMOVIL		-1, R47
		SADDA.M1		R47:R46,AR14,AR10
		SNOP		1
		SLDW		*AR10, R42
		SNOP		5
		SMULIS.M1		R42,R43,R42
		SNOP		2
		SADD.M1		R42,R44,R42
		SMOVIL		-592, R44
		SMOVIL		-1, R45
		SADDA.M1		R45:R44,AR14,AR10
		SNOP		1
		SSTW		R42, *AR10
		SSHFAR		31, R42, R42
		SMOVIL		-588, R44
		SMOVIL		-1, R45
		SADDA.M1		R45:R44,AR14,AR10
		SNOP		1
		SSTW		R42, *AR10
		SMOVIL		-592, R42
		SMOVIL		-1, R43
		SADDA.M1		R43:R42,AR14,AR10
		SNOP		1
		SLDW		*AR10, R46
		SNOP		5
		SMOVIL		-592, R42
		SMOVIL		-1, R43
		SADDA.M1		R43:R42,AR14,AR10
		SNOP		1
		SLDW		*AR10, R42
		SNOP		5
		SADD.M1		R42,R46,R44
		SMOVIL		-592, R46
		SMOVIL		-1, R47
		SADDA.M1		R47:R46,AR14,AR10
		SNOP		1
		SLDW		*AR10, R43
		SNOP		5
		SLTU		R44, R43, R42
		SMOVIL		-588, R46
		SMOVIL		-1, R47
		SADDA.M1		R47:R46,AR14,AR10
		SNOP		1
		SLDW		*AR10, R43
		SNOP		5
		SMOVIL		-588, R46
		SMOVIL		-1, R47
		SADDA.M1		R47:R46,AR14,AR10
		SNOP		1
		SLDW		*AR10, R46
		SNOP		5
		SADD.M1		R46,R43,R45
		SADD.M1		R45,R42,R42
		SMOV.M1		R42, R45
		SADD.M1		R44,R44,R42
		SLTU		R42, R44, R46
		SADD.M1		R45,R45,R43
		SADD.M1		R43,R46,R44
		SMOV.M1		R44, R43
		SADD.M1		R42,R42,R44
		SLTU		R44, R42, R46
		SADD.M1		R43,R43,R45
		SADD.M1		R45,R46,R42
		SMOV.M1		R42, R45
		SMOVIL		-160, R42
		SMOVIL		-1, R43
		SMOVIL		-64, R48
		SMOVIL		-1, R49
		SADDA.M1		R49:R48,AR14,OR11
		SNOP		1
		SADDA.M1		R43:R42,OR11,OR11
		SNOP		1
		SMVAAGL.M1		OR11, R43:R42
		SNOP		1
		SMVAAGH.M1		OR11, R43:R42
		SNOP		1
	;no-op trunc di R45:R44 to pdi R45:R44
		SMVAGA36.M1		R43:R42, AR10
		SNOP		1
		SLDDW		*AR10, R43:R42
		SNOP		5
		SMVAGA36.M1		R43:R42, OR11
		SNOP		1
		SADDA.M1		R45:R44,OR11,OR11
		SNOP		1
		SMVAAGL.M1		OR11, R51:R50
		SNOP		1
		SMVAAGH.M1		OR11, R51:R50
		SNOP		1
		SMOVIL		-76, R44
		SMOVIL		-1, R45
		SADDA.M1		R45:R44,AR14,AR10
		SNOP		1
		SLDW		*AR10, R42
		SNOP		5
		SSHFLL		1, R42, R42
		SADD.M1		1,R42,R44
		SMOVIL		-80, R46
		SMOVIL		-1, R47
		SADDA.M1		R47:R46,AR14,AR10
		SNOP		1
		SLDW		*AR10, R43
		SNOP		5
		SMOVIL		-124, R46
		SMOVIL		-1, R47
		SADDA.M1		R47:R46,AR14,AR10
		SNOP		1
		SLDW		*AR10, R42
		SNOP		5
		SMULIS.M1		R42,R43,R42
		SNOP		2
		SADD.M1		R42,R44,R42
		SMOVIL		-600, R44
		SMOVIL		-1, R45
		SADDA.M1		R45:R44,AR14,AR10
		SNOP		1
		SSTW		R42, *AR10
		SSHFAR		31, R42, R42
		SMOVIL		-596, R44
		SMOVIL		-1, R45
		SADDA.M1		R45:R44,AR14,AR10
		SNOP		1
		SSTW		R42, *AR10
		SMOVIL		-600, R42
		SMOVIL		-1, R43
		SADDA.M1		R43:R42,AR14,AR10
		SNOP		1
		SLDW		*AR10, R46
		SNOP		5
		SMOVIL		-600, R42
		SMOVIL		-1, R43
		SADDA.M1		R43:R42,AR14,AR10
		SNOP		1
		SLDW		*AR10, R42
		SNOP		5
		SADD.M1		R42,R46,R44
		SMOVIL		-600, R46
		SMOVIL		-1, R47
		SADDA.M1		R47:R46,AR14,AR10
		SNOP		1
		SLDW		*AR10, R43
		SNOP		5
		SLTU		R44, R43, R42
		SMOVIL		-596, R46
		SMOVIL		-1, R47
		SADDA.M1		R47:R46,AR14,AR10
		SNOP		1
		SLDW		*AR10, R43
		SNOP		5
		SMOVIL		-596, R46
		SMOVIL		-1, R47
		SADDA.M1		R47:R46,AR14,AR10
		SNOP		1
		SLDW		*AR10, R46
		SNOP		5
		SADD.M1		R46,R43,R45
		SADD.M1		R45,R42,R42
		SMOV.M1		R42, R45
		SADD.M1		R44,R44,R42
		SLTU		R42, R44, R46
		SADD.M1		R45,R45,R43
		SADD.M1		R43,R46,R44
		SMOV.M1		R44, R43
		SADD.M1		R42,R42,R44
		SLTU		R44, R42, R46
		SADD.M1		R43,R43,R45
		SADD.M1		R45,R46,R42
		SMOV.M1		R42, R45
		SMOVIL		-160, R42
		SMOVIL		-1, R43
		SMOVIL		-64, R48
		SMOVIL		-1, R49
		SADDA.M1		R49:R48,AR14,OR11
		SNOP		1
		SADDA.M1		R43:R42,OR11,OR11
		SNOP		1
		SMVAAGL.M1		OR11, R43:R42
		SNOP		1
		SMVAAGH.M1		OR11, R43:R42
		SNOP		1
	;no-op trunc di R45:R44 to pdi R45:R44
		SMVAGA36.M1		R43:R42, AR10
		SNOP		1
		SLDDW		*AR10, R43:R42
		SNOP		5
		SMVAGA36.M1		R43:R42, OR11
		SNOP		1
		SADDA.M1		R45:R44,OR11,OR11
		SNOP		1
		SMVAAGL.M1		OR11, R43:R42
		SNOP		1
		SMVAAGH.M1		OR11, R43:R42
		SNOP		1
		SMVAGA36.M1		R43:R42, AR10
		SNOP		1
		SLDDW		*AR10, R49:R48
		SNOP		5
		SMOVIL		-136, R42
		SMOVIL		-1, R43
		SADDA.M1		R43:R42,AR14,AR10
		SNOP		1
		SLDDW		*AR10, R45:R44
		SNOP		5
		SMOVIL		-176, R46
		SMOVIL		-1, R47
		SADDA.M1		R47:R46,AR14,AR10
		SNOP		1
		SLDDW		*AR10, R43:R42
		SNOP		5
		SFMULD.M1		R45:R44, R43:R42, R47:R46
		SNOP		5
		SMOVIL		-144, R42
		SMOVIL		-1, R43
		SADDA.M1		R43:R42,AR14,AR10
		SNOP		1
		SLDDW		*AR10, R45:R44
		SNOP		5
		SMOVIL		-168, R52
		SMOVIL		-1, R53
		SADDA.M1		R53:R52,AR14,AR10
		SNOP		1
		SLDDW		*AR10, R43:R42
		SNOP		5
		SFMULD.M1		R45:R44, R43:R42, R43:R42
		SNOP		5
		SFADDD.M1		R47:R46, R43:R42, R43:R42
		SNOP		4
		SFSUBD.M1	R43:R42, R49:R48, R43:R42
		SNOP		4
		SMVAGA36.M1		R51:R50, AR10
		SNOP		1
		SSTDW		R43:R42, *AR10
	.loc 1 93 0 discriminator 2
		SMOVIL		-80, R44
		SMOVIL		-1, R45
		SADDA.M1		R45:R44,AR14,AR10
		SNOP		1
		SLDW		*AR10, R42
		SNOP		5
		SADD.M1		1,R42,R42
		SMOVIL		-80, R44
		SMOVIL		-1, R45
		SADDA.M1		R45:R44,AR14,AR10
		SNOP		1
		SSTW		R42, *AR10
.L19:
	.loc 1 93 0 is_stmt 0 discriminator 1
		SMOVIL		-132, R42
		SMOVIL		-1, R43
		SMOVIL		-64, R44
		SMOVIL		-1, R45
		SADDA.M1		R45:R44,AR14,OR11
		SNOP		1
		SADDA.M1		R43:R42,OR11,OR11
		SNOP		1
		SMVAAGL.M1		OR11, R43:R42
		SNOP		1
		SMVAAGH.M1		OR11, R43:R42
		SNOP		1
		SMOVIL		-80, R46
		SMOVIL		-1, R47
		SADDA.M1		R47:R46,AR14,AR10
		SNOP		1
		SLDW		*AR10, R44
		SNOP		5
		SMVAGA36.M1		R43:R42, AR10
		SNOP		1
		SLDW		*AR10, R42
		SNOP		5
		SLT		R44, R42, R42
		SMOV.M1		R42, R0
	[R0]	SBR		.L20
		SNOP		6
	.loc 1 74 0 is_stmt 1
		SMOVIL		-76, R44
		SMOVIL		-1, R45
		SADDA.M1		R45:R44,AR14,AR10
		SNOP		1
		SLDW		*AR10, R42
		SNOP		5
		SADD.M1		1,R42,R42
		SMOVIL		-76, R44
		SMOVIL		-1, R45
		SADDA.M1		R45:R44,AR14,AR10
		SNOP		1
		SSTW		R42, *AR10
.L16:
	.loc 1 74 0 is_stmt 0 discriminator 1
		SMOVIL		-136, R42
		SMOVIL		-1, R43
		SMOVIL		-64, R44
		SMOVIL		-1, R45
		SADDA.M1		R45:R44,AR14,OR11
		SNOP		1
		SADDA.M1		R43:R42,OR11,OR11
		SNOP		1
		SMVAAGL.M1		OR11, R43:R42
		SNOP		1
		SMVAAGH.M1		OR11, R43:R42
		SNOP		1
		SMOVIL		-76, R46
		SMOVIL		-1, R47
		SADDA.M1		R47:R46,AR14,AR10
		SNOP		1
		SLDW		*AR10, R44
		SNOP		5
		SMVAGA36.M1		R43:R42, AR10
		SNOP		1
		SLDW		*AR10, R42
		SNOP		5
		SLT		R44, R42, R42
		SMOV.M1		R42, R0
	[R0]	SBR		.L21
		SNOP		6
	.loc 1 104 0 is_stmt 1
		SMOVIL		0, R42
		SMOVIL		-76, R44
		SMOVIL		-1, R45
		SADDA.M1		R45:R44,AR14,AR10
		SNOP		1
		SSTW		R42, *AR10
		SBR		.L22
		SNOP		6
.L27:
	.loc 1 106 0
		SMOVIL		0, R42
		SMOVIL		0, R43
		SSTDW		R43:R42, *-AR14[12]
	.loc 1 107 0
		SMOVIL		0, R42
		SMOVIL		0, R43
		SSTDW		R43:R42, *-AR14[13]
	.loc 1 108 0
		SMOVIL		-72, R44
		SMOVIL		-1, R45
		SADDA.M1		R45:R44,AR14,AR10
		SNOP		1
		SLDW		*AR10, R42
		SNOP		5
		SMOVIL		-80, R44
		SMOVIL		-1, R45
		SADDA.M1		R45:R44,AR14,AR10
		SNOP		1
		SSTW		R42, *AR10
		SBR		.L23
		SNOP		6
.L24:
	.loc 1 110 0 discriminator 2
		SMOVIL		-80, R42
		SMOVIL		-1, R43
		SADDA.M1		R43:R42,AR14,AR10
		SNOP		1
		SLDW		*AR10, R44
		SNOP		5
		SMOVIL		-608, R42
		SMOVIL		-1, R43
		SADDA.M1		R43:R42,AR14,AR10
		SNOP		1
		SSTW		R44, *AR10
		SMOVIL		-80, R44
		SMOVIL		-1, R45
		SADDA.M1		R45:R44,AR14,AR10
		SNOP		1
		SLDW		*AR10, R42
		SNOP		5
		SSHFAR		31, R42, R42
		SMOVIL		-604, R44
		SMOVIL		-1, R45
		SADDA.M1		R45:R44,AR14,AR10
		SNOP		1
		SSTW		R42, *AR10
		SMOVIL		-608, R44
		SMOVIL		-1, R45
		SADDA.M1		R45:R44,AR14,AR10
		SNOP		1
		SLDW		*AR10, R43
		SNOP		5
		SSHFLR		28, R43, R42
		SMOVIL		-604, R44
		SMOVIL		-1, R45
		SADDA.M1		R45:R44,AR14,AR10
		SNOP		1
		SLDW		*AR10, R43
		SNOP		5
		SSHFLL		4, R43, R43
		SMOVIL		-612, R44
		SMOVIL		-1, R45
		SADDA.M1		R45:R44,AR14,AR10
		SNOP		1
		SSTW		R43, *AR10
		SMOVIL		-612, R44
		SMOVIL		-1, R45
		SADDA.M1		R45:R44,AR14,AR10
		SNOP		1
		SLDW		*AR10, R43
		SNOP		5
		SOR		R43, R42, R43
		SMOVIL		-612, R44
		SMOVIL		-1, R45
		SADDA.M1		R45:R44,AR14,AR10
		SNOP		1
		SSTW		R43, *AR10
		SMOVIL		-608, R42
		SMOVIL		-1, R43
		SADDA.M1		R43:R42,AR14,AR10
		SNOP		1
		SLDW		*AR10, R42
		SNOP		5
		SSHFLL		4, R42, R44
		SMOVIL		-616, R42
		SMOVIL		-1, R43
		SADDA.M1		R43:R42,AR14,AR10
		SNOP		1
		SSTW		R44, *AR10
		SMOVIL		-168, R42
		SMOVIL		-1, R43
		SMOVIL		-64, R44
		SMOVIL		-1, R45
		SADDA.M1		R45:R44,AR14,OR11
		SNOP		1
		SADDA.M1		R43:R42,OR11,OR11
		SNOP		1
		SMVAAGL.M1		OR11, R43:R42
		SNOP		1
		SMVAAGH.M1		OR11, R43:R42
		SNOP		1
		SMOVIL		-616, R46
		SMOVIL		-1, R47
		SADDA.M1		R47:R46,AR14,AR10
		SNOP		1
		SLDDW		*AR10, R45:R44
		SNOP		5
	;no-op trunc di R45:R44 to pdi R45:R44
		SMVAGA36.M1		R43:R42, AR10
		SNOP		1
		SLDDW		*AR10, R43:R42
		SNOP		5
		SMVAGA36.M1		R43:R42, OR11
		SNOP		1
		SADDA.M1		R45:R44,OR11,OR11
		SNOP		1
		SMVAAGL.M1		OR11, R43:R42
		SNOP		1
		SMVAAGH.M1		OR11, R43:R42
		SNOP		1
		SMVAGA36.M1		R43:R42, AR10
		SNOP		1
		SLDDW		*AR10, R43:R42
		SNOP		5
		SMOVIL		-136, R44
		SMOVIL		-1, R45
		SADDA.M1		R45:R44,AR14,AR10
		SNOP		1
		SSTDW		R43:R42, *AR10
	.loc 1 111 0 discriminator 2
		SMOVIL		-80, R42
		SMOVIL		-1, R43
		SADDA.M1		R43:R42,AR14,AR10
		SNOP		1
		SLDW		*AR10, R44
		SNOP		5
		SMOVIL		-624, R42
		SMOVIL		-1, R43
		SADDA.M1		R43:R42,AR14,AR10
		SNOP		1
		SSTW		R44, *AR10
		SMOVIL		-80, R44
		SMOVIL		-1, R45
		SADDA.M1		R45:R44,AR14,AR10
		SNOP		1
		SLDW		*AR10, R42
		SNOP		5
		SSHFAR		31, R42, R42
		SMOVIL		-620, R44
		SMOVIL		-1, R45
		SADDA.M1		R45:R44,AR14,AR10
		SNOP		1
		SSTW		R42, *AR10
		SMOVIL		-624, R44
		SMOVIL		-1, R45
		SADDA.M1		R45:R44,AR14,AR10
		SNOP		1
		SLDW		*AR10, R43
		SNOP		5
		SSHFLR		28, R43, R42
		SMOVIL		-620, R44
		SMOVIL		-1, R45
		SADDA.M1		R45:R44,AR14,AR10
		SNOP		1
		SLDW		*AR10, R43
		SNOP		5
		SSHFLL		4, R43, R43
		SMOVIL		-628, R44
		SMOVIL		-1, R45
		SADDA.M1		R45:R44,AR14,AR10
		SNOP		1
		SSTW		R43, *AR10
		SMOVIL		-628, R44
		SMOVIL		-1, R45
		SADDA.M1		R45:R44,AR14,AR10
		SNOP		1
		SLDW		*AR10, R43
		SNOP		5
		SOR		R43, R42, R43
		SMOVIL		-628, R44
		SMOVIL		-1, R45
		SADDA.M1		R45:R44,AR14,AR10
		SNOP		1
		SSTW		R43, *AR10
		SMOVIL		-624, R42
		SMOVIL		-1, R43
		SADDA.M1		R43:R42,AR14,AR10
		SNOP		1
		SLDW		*AR10, R42
		SNOP		5
		SSHFLL		4, R42, R44
		SMOVIL		-632, R42
		SMOVIL		-1, R43
		SADDA.M1		R43:R42,AR14,AR10
		SNOP		1
		SSTW		R44, *AR10
		SMOVIL		8, R42
		SMOVIL		0, R43
		SMOVIL		-632, R46
		SMOVIL		-1, R47
		SADDA.M1		R47:R46,AR14,AR10
		SNOP		1
		SLDW		*AR10, R46
		SNOP		5
		SADD.M1		R42,R46,R44
		SMOVIL		-632, R48
		SMOVIL		-1, R49
		SADDA.M1		R49:R48,AR14,AR10
		SNOP		1
		SLDW		*AR10, R47
		SNOP		5
		SLTU		R44, R47, R46
		SMOVIL		-628, R48
		SMOVIL		-1, R49
		SADDA.M1		R49:R48,AR14,AR10
		SNOP		1
		SLDW		*AR10, R47
		SNOP		5
		SADD.M1		R43,R47,R45
		SADD.M1		R45,R46,R42
		SMOV.M1		R42, R45
		SMOVIL		-168, R42
		SMOVIL		-1, R43
		SMOVIL		-64, R48
		SMOVIL		-1, R49
		SADDA.M1		R49:R48,AR14,OR11
		SNOP		1
		SADDA.M1		R43:R42,OR11,OR11
		SNOP		1
		SMVAAGL.M1		OR11, R43:R42
		SNOP		1
		SMVAAGH.M1		OR11, R43:R42
		SNOP		1
	;no-op trunc di R45:R44 to pdi R45:R44
		SMVAGA36.M1		R43:R42, AR10
		SNOP		1
		SLDDW		*AR10, R43:R42
		SNOP		5
		SMVAGA36.M1		R43:R42, OR11
		SNOP		1
		SADDA.M1		R45:R44,OR11,OR11
		SNOP		1
		SMVAAGL.M1		OR11, R43:R42
		SNOP		1
		SMVAAGH.M1		OR11, R43:R42
		SNOP		1
		SMVAGA36.M1		R43:R42, AR10
		SNOP		1
		SLDDW		*AR10, R47:R46
		SNOP		5
		SMOVIL		-80, R42
		SMOVIL		-1, R43
		SMOVIL		-64, R44
		SMOVIL		-1, R45
		SADDA.M1		R45:R44,AR14,OR11
		SNOP		1
		SADDA.M1		R43:R42,OR11,OR11
		SNOP		1
		SMVAAGL.M1		OR11, R43:R42
		SNOP		1
		SMVAAGH.M1		OR11, R43:R42
		SNOP		1
		SMVAGA36.M1		R43:R42, AR10
		SNOP		1
		SSTW		R46, *AR10
		SMOVIL		-76, R42
		SMOVIL		-1, R43
		SMOVIL		-64, R44
		SMOVIL		-1, R45
		SADDA.M1		R45:R44,AR14,OR11
		SNOP		1
		SADDA.M1		R43:R42,OR11,OR11
		SNOP		1
		SMVAAGL.M1		OR11, R43:R42
		SNOP		1
		SMVAAGH.M1		OR11, R43:R42
		SNOP		1
		SMOVIL		-2147483648, R44
		SMOVIH		-2147483648, R44
		SXOR		R44, R47, R44
		SMVAGA36.M1		R43:R42, AR10
		SNOP		1
		SSTW		R44, *AR10
	.loc 1 112 0 discriminator 2
		SMOVIL		-80, R44
		SMOVIL		-1, R45
		SADDA.M1		R45:R44,AR14,AR10
		SNOP		1
		SLDW		*AR10, R42
		SNOP		5
		SSHFLL		1, R42, R45
		SMOVIL		-64, R42
		SMOVIL		-1, R43
		SMOVIL		-64, R46
		SMOVIL		-1, R47
		SADDA.M1		R47:R46,AR14,OR11
		SNOP		1
		SADDA.M1		R43:R42,OR11,OR11
		SNOP		1
		SMVAAGL.M1		OR11, R43:R42
		SNOP		1
		SMVAAGH.M1		OR11, R43:R42
		SNOP		1
		SMOVIL		-76, R46
		SMOVIL		-1, R47
		SADDA.M1		R47:R46,AR14,AR10
		SNOP		1
		SLDW		*AR10, R44
		SNOP		5
		SMVAGA36.M1		R43:R42, AR10
		SNOP		1
		SLDW		*AR10, R42
		SNOP		5
		SMULIS.M1		R42,R44,R42
		SNOP		2
		SADD.M1		R42,R45,R42
		SMOVIL		-640, R44
		SMOVIL		-1, R45
		SADDA.M1		R45:R44,AR14,AR10
		SNOP		1
		SSTW		R42, *AR10
		SSHFAR		31, R42, R42
		SMOVIL		-636, R44
		SMOVIL		-1, R45
		SADDA.M1		R45:R44,AR14,AR10
		SNOP		1
		SSTW		R42, *AR10
		SMOVIL		-640, R42
		SMOVIL		-1, R43
		SADDA.M1		R43:R42,AR14,AR10
		SNOP		1
		SLDW		*AR10, R46
		SNOP		5
		SMOVIL		-640, R42
		SMOVIL		-1, R43
		SADDA.M1		R43:R42,AR14,AR10
		SNOP		1
		SLDW		*AR10, R42
		SNOP		5
		SADD.M1		R42,R46,R44
		SMOVIL		-640, R46
		SMOVIL		-1, R47
		SADDA.M1		R47:R46,AR14,AR10
		SNOP		1
		SLDW		*AR10, R43
		SNOP		5
		SLTU		R44, R43, R42
		SMOVIL		-636, R46
		SMOVIL		-1, R47
		SADDA.M1		R47:R46,AR14,AR10
		SNOP		1
		SLDW		*AR10, R43
		SNOP		5
		SMOVIL		-636, R46
		SMOVIL		-1, R47
		SADDA.M1		R47:R46,AR14,AR10
		SNOP		1
		SLDW		*AR10, R46
		SNOP		5
		SADD.M1		R46,R43,R45
		SADD.M1		R45,R42,R42
		SMOV.M1		R42, R45
		SADD.M1		R44,R44,R42
		SLTU		R42, R44, R46
		SADD.M1		R45,R45,R43
		SADD.M1		R43,R46,R44
		SMOV.M1		R44, R43
		SADD.M1		R42,R42,R44
		SLTU		R44, R42, R46
		SADD.M1		R43,R43,R45
		SADD.M1		R45,R46,R42
		SMOV.M1		R42, R45
		SMOVIL		-152, R42
		SMOVIL		-1, R43
		SMOVIL		-64, R48
		SMOVIL		-1, R49
		SADDA.M1		R49:R48,AR14,OR11
		SNOP		1
		SADDA.M1		R43:R42,OR11,OR11
		SNOP		1
		SMVAAGL.M1		OR11, R43:R42
		SNOP		1
		SMVAAGH.M1		OR11, R43:R42
		SNOP		1
	;no-op trunc di R45:R44 to pdi R45:R44
		SMVAGA36.M1		R43:R42, AR10
		SNOP		1
		SLDDW		*AR10, R43:R42
		SNOP		5
		SMVAGA36.M1		R43:R42, OR11
		SNOP		1
		SADDA.M1		R45:R44,OR11,OR11
		SNOP		1
		SMVAAGL.M1		OR11, R43:R42
		SNOP		1
		SMVAAGH.M1		OR11, R43:R42
		SNOP		1
		SMVAGA36.M1		R43:R42, AR10
		SNOP		1
		SLDDW		*AR10, R43:R42
		SNOP		5
		SMOVIL		-168, R44
		SMOVIL		-1, R45
		SADDA.M1		R45:R44,AR14,AR10
		SNOP		1
		SSTDW		R43:R42, *AR10
	.loc 1 113 0 discriminator 2
		SMOVIL		-80, R44
		SMOVIL		-1, R45
		SADDA.M1		R45:R44,AR14,AR10
		SNOP		1
		SLDW		*AR10, R42
		SNOP		5
		SSHFLL		1, R42, R42
		SADD.M1		1,R42,R45
		SMOVIL		-64, R42
		SMOVIL		-1, R43
		SMOVIL		-64, R46
		SMOVIL		-1, R47
		SADDA.M1		R47:R46,AR14,OR11
		SNOP		1
		SADDA.M1		R43:R42,OR11,OR11
		SNOP		1
		SMVAAGL.M1		OR11, R43:R42
		SNOP		1
		SMVAAGH.M1		OR11, R43:R42
		SNOP		1
		SMOVIL		-76, R46
		SMOVIL		-1, R47
		SADDA.M1		R47:R46,AR14,AR10
		SNOP		1
		SLDW		*AR10, R44
		SNOP		5
		SMVAGA36.M1		R43:R42, AR10
		SNOP		1
		SLDW		*AR10, R42
		SNOP		5
		SMULIS.M1		R42,R44,R42
		SNOP		2
		SADD.M1		R42,R45,R42
		SMOVIL		-648, R44
		SMOVIL		-1, R45
		SADDA.M1		R45:R44,AR14,AR10
		SNOP		1
		SSTW		R42, *AR10
		SSHFAR		31, R42, R42
		SMOVIL		-644, R44
		SMOVIL		-1, R45
		SADDA.M1		R45:R44,AR14,AR10
		SNOP		1
		SSTW		R42, *AR10
		SMOVIL		-648, R42
		SMOVIL		-1, R43
		SADDA.M1		R43:R42,AR14,AR10
		SNOP		1
		SLDW		*AR10, R46
		SNOP		5
		SMOVIL		-648, R42
		SMOVIL		-1, R43
		SADDA.M1		R43:R42,AR14,AR10
		SNOP		1
		SLDW		*AR10, R42
		SNOP		5
		SADD.M1		R42,R46,R44
		SMOVIL		-648, R46
		SMOVIL		-1, R47
		SADDA.M1		R47:R46,AR14,AR10
		SNOP		1
		SLDW		*AR10, R43
		SNOP		5
		SLTU		R44, R43, R42
		SMOVIL		-644, R46
		SMOVIL		-1, R47
		SADDA.M1		R47:R46,AR14,AR10
		SNOP		1
		SLDW		*AR10, R43
		SNOP		5
		SMOVIL		-644, R46
		SMOVIL		-1, R47
		SADDA.M1		R47:R46,AR14,AR10
		SNOP		1
		SLDW		*AR10, R46
		SNOP		5
		SADD.M1		R46,R43,R45
		SADD.M1		R45,R42,R42
		SMOV.M1		R42, R45
		SADD.M1		R44,R44,R42
		SLTU		R42, R44, R46
		SADD.M1		R45,R45,R43
		SADD.M1		R43,R46,R44
		SMOV.M1		R44, R43
		SADD.M1		R42,R42,R44
		SLTU		R44, R42, R46
		SADD.M1		R43,R43,R45
		SADD.M1		R45,R46,R42
		SMOV.M1		R42, R45
		SMOVIL		-152, R42
		SMOVIL		-1, R43
		SMOVIL		-64, R48
		SMOVIL		-1, R49
		SADDA.M1		R49:R48,AR14,OR11
		SNOP		1
		SADDA.M1		R43:R42,OR11,OR11
		SNOP		1
		SMVAAGL.M1		OR11, R43:R42
		SNOP		1
		SMVAAGH.M1		OR11, R43:R42
		SNOP		1
	;no-op trunc di R45:R44 to pdi R45:R44
		SMVAGA36.M1		R43:R42, AR10
		SNOP		1
		SLDDW		*AR10, R43:R42
		SNOP		5
		SMVAGA36.M1		R43:R42, OR11
		SNOP		1
		SADDA.M1		R45:R44,OR11,OR11
		SNOP		1
		SMVAAGL.M1		OR11, R43:R42
		SNOP		1
		SMVAAGH.M1		OR11, R43:R42
		SNOP		1
		SMVAGA36.M1		R43:R42, AR10
		SNOP		1
		SLDDW		*AR10, R43:R42
		SNOP		5
		SMOVIL		-176, R44
		SMOVIL		-1, R45
		SADDA.M1		R45:R44,AR14,AR10
		SNOP		1
		SSTDW		R43:R42, *AR10
	.loc 1 114 0 discriminator 2
		SMOVIL		-136, R42
		SMOVIL		-1, R43
		SADDA.M1		R43:R42,AR14,AR10
		SNOP		1
		SLDDW		*AR10, R45:R44
		SNOP		5
		SMOVIL		-168, R46
		SMOVIL		-1, R47
		SADDA.M1		R47:R46,AR14,AR10
		SNOP		1
		SLDDW		*AR10, R43:R42
		SNOP		5
		SFMULD.M1		R45:R44, R43:R42, R47:R46
		SNOP		5
		SMOVIL		-144, R42
		SMOVIL		-1, R43
		SADDA.M1		R43:R42,AR14,AR10
		SNOP		1
		SLDDW		*AR10, R45:R44
		SNOP		5
		SMOVIL		-176, R48
		SMOVIL		-1, R49
		SADDA.M1		R49:R48,AR14,AR10
		SNOP		1
		SLDDW		*AR10, R43:R42
		SNOP		5
		SFMULD.M1		R45:R44, R43:R42, R43:R42
		SNOP		5
		SFSUBD.M1	R43:R42, R47:R46, R45:R44
		SNOP		4
		SLDDW		*-AR14[12], R43:R42
		SNOP		5
		SFADDD.M1		R43:R42, R45:R44, R43:R42
		SNOP		4
		SSTDW		R43:R42, *-AR14[12]
	.loc 1 115 0 discriminator 2
		SMOVIL		-136, R42
		SMOVIL		-1, R43
		SADDA.M1		R43:R42,AR14,AR10
		SNOP		1
		SLDDW		*AR10, R45:R44
		SNOP		5
		SMOVIL		-176, R46
		SMOVIL		-1, R47
		SADDA.M1		R47:R46,AR14,AR10
		SNOP		1
		SLDDW		*AR10, R43:R42
		SNOP		5
		SFMULD.M1		R45:R44, R43:R42, R47:R46
		SNOP		5
		SMOVIL		-144, R42
		SMOVIL		-1, R43
		SADDA.M1		R43:R42,AR14,AR10
		SNOP		1
		SLDDW		*AR10, R45:R44
		SNOP		5
		SMOVIL		-168, R48
		SMOVIL		-1, R49
		SADDA.M1		R49:R48,AR14,AR10
		SNOP		1
		SLDDW		*AR10, R43:R42
		SNOP		5
		SFMULD.M1		R45:R44, R43:R42, R43:R42
		SNOP		5
		SFADDD.M1		R47:R46, R43:R42, R45:R44
		SNOP		4
		SLDDW		*-AR14[13], R43:R42
		SNOP		5
		SFADDD.M1		R43:R42, R45:R44, R43:R42
		SNOP		4
		SSTDW		R43:R42, *-AR14[13]
	.loc 1 108 0 discriminator 2
		SMOVIL		-80, R44
		SMOVIL		-1, R45
		SADDA.M1		R45:R44,AR14,AR10
		SNOP		1
		SLDW		*AR10, R42
		SNOP		5
		SADD.M1		1,R42,R42
		SMOVIL		-80, R44
		SMOVIL		-1, R45
		SADDA.M1		R45:R44,AR14,AR10
		SNOP		1
		SSTW		R42, *AR10
.L23:
	.loc 1 108 0 is_stmt 0 discriminator 1
		SMOVIL		-132, R42
		SMOVIL		-1, R43
		SMOVIL		-64, R44
		SMOVIL		-1, R45
		SADDA.M1		R45:R44,AR14,OR11
		SNOP		1
		SADDA.M1		R43:R42,OR11,OR11
		SNOP		1
		SMVAAGL.M1		OR11, R43:R42
		SNOP		1
		SMVAAGH.M1		OR11, R43:R42
		SNOP		1
		SMOVIL		-80, R46
		SMOVIL		-1, R47
		SADDA.M1		R47:R46,AR14,AR10
		SNOP		1
		SLDW		*AR10, R44
		SNOP		5
		SMVAGA36.M1		R43:R42, AR10
		SNOP		1
		SLDW		*AR10, R42
		SNOP		5
		SLT		R44, R42, R42
		SMOV.M1		R42, R0
	[R0]	SBR		.L24
		SNOP		6
	.loc 1 117 0 is_stmt 1
		SLDDW		*-AR14[12], R43:R42
		SNOP		5
		SMOVIL		-136, R44
		SMOVIL		-1, R45
		SADDA.M1		R45:R44,AR14,AR10
		SNOP		1
		SSTDW		R43:R42, *AR10
	.loc 1 118 0
		SLDDW		*-AR14[13], R43:R42
		SNOP		5
		SMOVIL		-144, R44
		SMOVIL		-1, R45
		SADDA.M1		R45:R44,AR14,AR10
		SNOP		1
		SSTDW		R43:R42, *AR10
	.loc 1 119 0
		SMOVIL		-184, R44
		SMOVIL		-1, R45
		SADDA.M1		R45:R44,AR14,AR10
		SNOP		1
		SLDDW		*AR10, R43:R42
		SNOP		5
		SMOVIL		-168, R44
		SMOVIL		-1, R45
		SADDA.M1		R45:R44,AR14,AR10
		SNOP		1
		SSTDW		R43:R42, *AR10
	.loc 1 120 0
		SMOVIL		-128, R42
		SMOVIL		-1, R43
		SMOVIL		-64, R44
		SMOVIL		-1, R45
		SADDA.M1		R45:R44,AR14,OR11
		SNOP		1
		SADDA.M1		R43:R42,OR11,OR11
		SNOP		1
		SMVAAGL.M1		OR11, R43:R42
		SNOP		1
		SMVAAGH.M1		OR11, R43:R42
		SNOP		1
		SMVAGA36.M1		R43:R42, AR10
		SNOP		1
		SLDDW		*AR10, R43:R42
		SNOP		5
		SMOVIL		-176, R44
		SMOVIL		-1, R45
		SADDA.M1		R45:R44,AR14,AR10
		SNOP		1
		SSTDW		R43:R42, *AR10
	.loc 1 121 0
		SMOVIL		-136, R42
		SMOVIL		-1, R43
		SADDA.M1		R43:R42,AR14,AR10
		SNOP		1
		SLDDW		*AR10, R45:R44
		SNOP		5
		SMOVIL		-168, R46
		SMOVIL		-1, R47
		SADDA.M1		R47:R46,AR14,AR10
		SNOP		1
		SLDDW		*AR10, R43:R42
		SNOP		5
		SFMULD.M1		R45:R44, R43:R42, R47:R46
		SNOP		5
		SMOVIL		-144, R42
		SMOVIL		-1, R43
		SADDA.M1		R43:R42,AR14,AR10
		SNOP		1
		SLDDW		*AR10, R45:R44
		SNOP		5
		SMOVIL		-176, R48
		SMOVIL		-1, R49
		SADDA.M1		R49:R48,AR14,AR10
		SNOP		1
		SLDDW		*AR10, R43:R42
		SNOP		5
		SFMULD.M1		R45:R44, R43:R42, R43:R42
		SNOP		5
		SFSUBD.M1	R43:R42, R47:R46, R43:R42
		SNOP		4
		SSTDW		R43:R42, *-AR14[12]
	.loc 1 122 0
		SMOVIL		-136, R42
		SMOVIL		-1, R43
		SADDA.M1		R43:R42,AR14,AR10
		SNOP		1
		SLDDW		*AR10, R45:R44
		SNOP		5
		SMOVIL		-176, R46
		SMOVIL		-1, R47
		SADDA.M1		R47:R46,AR14,AR10
		SNOP		1
		SLDDW		*AR10, R43:R42
		SNOP		5
		SFMULD.M1		R45:R44, R43:R42, R47:R46
		SNOP		5
		SMOVIL		-144, R42
		SMOVIL		-1, R43
		SADDA.M1		R43:R42,AR14,AR10
		SNOP		1
		SLDDW		*AR10, R45:R44
		SNOP		5
		SMOVIL		-168, R48
		SMOVIL		-1, R49
		SADDA.M1		R49:R48,AR14,AR10
		SNOP		1
		SLDDW		*AR10, R43:R42
		SNOP		5
		SFMULD.M1		R45:R44, R43:R42, R43:R42
		SNOP		5
		SFADDD.M1		R47:R46, R43:R42, R43:R42
		SNOP		4
		SSTDW		R43:R42, *-AR14[13]
	.loc 1 123 0
		SMOVIL		-72, R44
		SMOVIL		-1, R45
		SADDA.M1		R45:R44,AR14,AR10
		SNOP		1
		SLDW		*AR10, R42
		SNOP		5
		SMOVIL		-80, R44
		SMOVIL		-1, R45
		SADDA.M1		R45:R44,AR14,AR10
		SNOP		1
		SSTW		R42, *AR10
		SBR		.L25
		SNOP		6
.L26:
	.loc 1 125 0 discriminator 2
		SMOVIL		-80, R42
		SMOVIL		-1, R43
		SADDA.M1		R43:R42,AR14,AR10
		SNOP		1
		SLDW		*AR10, R44
		SNOP		5
		SMOVIL		-656, R42
		SMOVIL		-1, R43
		SADDA.M1		R43:R42,AR14,AR10
		SNOP		1
		SSTW		R44, *AR10
		SMOVIL		-80, R44
		SMOVIL		-1, R45
		SADDA.M1		R45:R44,AR14,AR10
		SNOP		1
		SLDW		*AR10, R42
		SNOP		5
		SSHFAR		31, R42, R42
		SMOVIL		-652, R44
		SMOVIL		-1, R45
		SADDA.M1		R45:R44,AR14,AR10
		SNOP		1
		SSTW		R42, *AR10
		SMOVIL		-656, R44
		SMOVIL		-1, R45
		SADDA.M1		R45:R44,AR14,AR10
		SNOP		1
		SLDW		*AR10, R43
		SNOP		5
		SSHFLR		28, R43, R42
		SMOVIL		-652, R44
		SMOVIL		-1, R45
		SADDA.M1		R45:R44,AR14,AR10
		SNOP		1
		SLDW		*AR10, R43
		SNOP		5
		SSHFLL		4, R43, R43
		SMOVIL		-660, R44
		SMOVIL		-1, R45
		SADDA.M1		R45:R44,AR14,AR10
		SNOP		1
		SSTW		R43, *AR10
		SMOVIL		-660, R44
		SMOVIL		-1, R45
		SADDA.M1		R45:R44,AR14,AR10
		SNOP		1
		SLDW		*AR10, R43
		SNOP		5
		SOR		R43, R42, R43
		SMOVIL		-660, R44
		SMOVIL		-1, R45
		SADDA.M1		R45:R44,AR14,AR10
		SNOP		1
		SSTW		R43, *AR10
		SMOVIL		-656, R42
		SMOVIL		-1, R43
		SADDA.M1		R43:R42,AR14,AR10
		SNOP		1
		SLDW		*AR10, R42
		SNOP		5
		SSHFLL		4, R42, R44
		SMOVIL		-664, R42
		SMOVIL		-1, R43
		SADDA.M1		R43:R42,AR14,AR10
		SNOP		1
		SSTW		R44, *AR10
		SMOVIL		-168, R42
		SMOVIL		-1, R43
		SMOVIL		-64, R44
		SMOVIL		-1, R45
		SADDA.M1		R45:R44,AR14,OR11
		SNOP		1
		SADDA.M1		R43:R42,OR11,OR11
		SNOP		1
		SMVAAGL.M1		OR11, R43:R42
		SNOP		1
		SMVAAGH.M1		OR11, R43:R42
		SNOP		1
		SMOVIL		-664, R46
		SMOVIL		-1, R47
		SADDA.M1		R47:R46,AR14,AR10
		SNOP		1
		SLDDW		*AR10, R45:R44
		SNOP		5
	;no-op trunc di R45:R44 to pdi R45:R44
		SMVAGA36.M1		R43:R42, AR10
		SNOP		1
		SLDDW		*AR10, R43:R42
		SNOP		5
		SMVAGA36.M1		R43:R42, OR11
		SNOP		1
		SADDA.M1		R45:R44,OR11,OR11
		SNOP		1
		SMVAAGL.M1		OR11, R43:R42
		SNOP		1
		SMVAAGH.M1		OR11, R43:R42
		SNOP		1
		SMVAGA36.M1		R43:R42, AR10
		SNOP		1
		SLDDW		*AR10, R43:R42
		SNOP		5
		SMOVIL		-136, R44
		SMOVIL		-1, R45
		SADDA.M1		R45:R44,AR14,AR10
		SNOP		1
		SSTDW		R43:R42, *AR10
	.loc 1 126 0 discriminator 2
		SMOVIL		-80, R42
		SMOVIL		-1, R43
		SADDA.M1		R43:R42,AR14,AR10
		SNOP		1
		SLDW		*AR10, R44
		SNOP		5
		SMOVIL		-672, R42
		SMOVIL		-1, R43
		SADDA.M1		R43:R42,AR14,AR10
		SNOP		1
		SSTW		R44, *AR10
		SMOVIL		-80, R44
		SMOVIL		-1, R45
		SADDA.M1		R45:R44,AR14,AR10
		SNOP		1
		SLDW		*AR10, R42
		SNOP		5
		SSHFAR		31, R42, R42
		SMOVIL		-668, R44
		SMOVIL		-1, R45
		SADDA.M1		R45:R44,AR14,AR10
		SNOP		1
		SSTW		R42, *AR10
		SMOVIL		-672, R44
		SMOVIL		-1, R45
		SADDA.M1		R45:R44,AR14,AR10
		SNOP		1
		SLDW		*AR10, R43
		SNOP		5
		SSHFLR		28, R43, R42
		SMOVIL		-668, R44
		SMOVIL		-1, R45
		SADDA.M1		R45:R44,AR14,AR10
		SNOP		1
		SLDW		*AR10, R43
		SNOP		5
		SSHFLL		4, R43, R43
		SMOVIL		-676, R44
		SMOVIL		-1, R45
		SADDA.M1		R45:R44,AR14,AR10
		SNOP		1
		SSTW		R43, *AR10
		SMOVIL		-676, R44
		SMOVIL		-1, R45
		SADDA.M1		R45:R44,AR14,AR10
		SNOP		1
		SLDW		*AR10, R43
		SNOP		5
		SOR		R43, R42, R43
		SMOVIL		-676, R44
		SMOVIL		-1, R45
		SADDA.M1		R45:R44,AR14,AR10
		SNOP		1
		SSTW		R43, *AR10
		SMOVIL		-672, R42
		SMOVIL		-1, R43
		SADDA.M1		R43:R42,AR14,AR10
		SNOP		1
		SLDW		*AR10, R42
		SNOP		5
		SSHFLL		4, R42, R44
		SMOVIL		-680, R42
		SMOVIL		-1, R43
		SADDA.M1		R43:R42,AR14,AR10
		SNOP		1
		SSTW		R44, *AR10
		SMOVIL		8, R42
		SMOVIL		0, R43
		SMOVIL		-680, R46
		SMOVIL		-1, R47
		SADDA.M1		R47:R46,AR14,AR10
		SNOP		1
		SLDW		*AR10, R46
		SNOP		5
		SADD.M1		R42,R46,R44
		SMOVIL		-680, R48
		SMOVIL		-1, R49
		SADDA.M1		R49:R48,AR14,AR10
		SNOP		1
		SLDW		*AR10, R47
		SNOP		5
		SLTU		R44, R47, R46
		SMOVIL		-676, R48
		SMOVIL		-1, R49
		SADDA.M1		R49:R48,AR14,AR10
		SNOP		1
		SLDW		*AR10, R47
		SNOP		5
		SADD.M1		R43,R47,R45
		SADD.M1		R45,R46,R42
		SMOV.M1		R42, R45
		SMOVIL		-168, R42
		SMOVIL		-1, R43
		SMOVIL		-64, R48
		SMOVIL		-1, R49
		SADDA.M1		R49:R48,AR14,OR11
		SNOP		1
		SADDA.M1		R43:R42,OR11,OR11
		SNOP		1
		SMVAAGL.M1		OR11, R43:R42
		SNOP		1
		SMVAAGH.M1		OR11, R43:R42
		SNOP		1
	;no-op trunc di R45:R44 to pdi R45:R44
		SMVAGA36.M1		R43:R42, AR10
		SNOP		1
		SLDDW		*AR10, R43:R42
		SNOP		5
		SMVAGA36.M1		R43:R42, OR11
		SNOP		1
		SADDA.M1		R45:R44,OR11,OR11
		SNOP		1
		SMVAAGL.M1		OR11, R43:R42
		SNOP		1
		SMVAAGH.M1		OR11, R43:R42
		SNOP		1
		SMVAGA36.M1		R43:R42, AR10
		SNOP		1
		SLDDW		*AR10, R43:R42
		SNOP		5
		SMOVIL		-144, R44
		SMOVIL		-1, R45
		SADDA.M1		R45:R44,AR14,AR10
		SNOP		1
		SSTDW		R43:R42, *AR10
	.loc 1 127 0 discriminator 2
		SLDDW		*-AR14[12], R43:R42
		SNOP		5
		SMOVIL		-168, R44
		SMOVIL		-1, R45
		SADDA.M1		R45:R44,AR14,AR10
		SNOP		1
		SSTDW		R43:R42, *AR10
	.loc 1 128 0 discriminator 2
		SLDDW		*-AR14[13], R43:R42
		SNOP		5
		SMOVIL		-176, R44
		SMOVIL		-1, R45
		SADDA.M1		R45:R44,AR14,AR10
		SNOP		1
		SSTDW		R43:R42, *AR10
	.loc 1 129 0 discriminator 2
		SMOVIL		-80, R44
		SMOVIL		-1, R45
		SADDA.M1		R45:R44,AR14,AR10
		SNOP		1
		SLDW		*AR10, R42
		SNOP		5
		SSHFLL		1, R42, R45
		SMOVIL		-64, R42
		SMOVIL		-1, R43
		SMOVIL		-64, R46
		SMOVIL		-1, R47
		SADDA.M1		R47:R46,AR14,OR11
		SNOP		1
		SADDA.M1		R43:R42,OR11,OR11
		SNOP		1
		SMVAAGL.M1		OR11, R43:R42
		SNOP		1
		SMVAAGH.M1		OR11, R43:R42
		SNOP		1
		SMOVIL		-76, R46
		SMOVIL		-1, R47
		SADDA.M1		R47:R46,AR14,AR10
		SNOP		1
		SLDW		*AR10, R44
		SNOP		5
		SMVAGA36.M1		R43:R42, AR10
		SNOP		1
		SLDW		*AR10, R42
		SNOP		5
		SMULIS.M1		R42,R44,R42
		SNOP		2
		SADD.M1		R42,R45,R42
		SMOVIL		-688, R44
		SMOVIL		-1, R45
		SADDA.M1		R45:R44,AR14,AR10
		SNOP		1
		SSTW		R42, *AR10
		SSHFAR		31, R42, R42
		SMOVIL		-684, R44
		SMOVIL		-1, R45
		SADDA.M1		R45:R44,AR14,AR10
		SNOP		1
		SSTW		R42, *AR10
		SMOVIL		-688, R42
		SMOVIL		-1, R43
		SADDA.M1		R43:R42,AR14,AR10
		SNOP		1
		SLDW		*AR10, R46
		SNOP		5
		SMOVIL		-688, R42
		SMOVIL		-1, R43
		SADDA.M1		R43:R42,AR14,AR10
		SNOP		1
		SLDW		*AR10, R42
		SNOP		5
		SADD.M1		R42,R46,R44
		SMOVIL		-688, R46
		SMOVIL		-1, R47
		SADDA.M1		R47:R46,AR14,AR10
		SNOP		1
		SLDW		*AR10, R43
		SNOP		5
		SLTU		R44, R43, R42
		SMOVIL		-684, R46
		SMOVIL		-1, R47
		SADDA.M1		R47:R46,AR14,AR10
		SNOP		1
		SLDW		*AR10, R43
		SNOP		5
		SMOVIL		-684, R46
		SMOVIL		-1, R47
		SADDA.M1		R47:R46,AR14,AR10
		SNOP		1
		SLDW		*AR10, R46
		SNOP		5
		SADD.M1		R46,R43,R45
		SADD.M1		R45,R42,R42
		SMOV.M1		R42, R45
		SADD.M1		R44,R44,R42
		SLTU		R42, R44, R46
		SADD.M1		R45,R45,R43
		SADD.M1		R43,R46,R44
		SMOV.M1		R44, R43
		SADD.M1		R42,R42,R44
		SLTU		R44, R42, R46
		SADD.M1		R43,R43,R45
		SADD.M1		R45,R46,R42
		SMOV.M1		R42, R45
		SMOVIL		-152, R42
		SMOVIL		-1, R43
		SMOVIL		-64, R48
		SMOVIL		-1, R49
		SADDA.M1		R49:R48,AR14,OR11
		SNOP		1
		SADDA.M1		R43:R42,OR11,OR11
		SNOP		1
		SMVAAGL.M1		OR11, R43:R42
		SNOP		1
		SMVAAGH.M1		OR11, R43:R42
		SNOP		1
	;no-op trunc di R45:R44 to pdi R45:R44
		SMVAGA36.M1		R43:R42, AR10
		SNOP		1
		SLDDW		*AR10, R43:R42
		SNOP		5
		SMVAGA36.M1		R43:R42, OR11
		SNOP		1
		SADDA.M1		R45:R44,OR11,OR11
		SNOP		1
		SMVAAGL.M1		OR11, R51:R50
		SNOP		1
		SMVAAGH.M1		OR11, R51:R50
		SNOP		1
		SMOVIL		-80, R44
		SMOVIL		-1, R45
		SADDA.M1		R45:R44,AR14,AR10
		SNOP		1
		SLDW		*AR10, R42
		SNOP		5
		SSHFLL		1, R42, R45
		SMOVIL		-64, R42
		SMOVIL		-1, R43
		SMOVIL		-64, R46
		SMOVIL		-1, R47
		SADDA.M1		R47:R46,AR14,OR11
		SNOP		1
		SADDA.M1		R43:R42,OR11,OR11
		SNOP		1
		SMVAAGL.M1		OR11, R43:R42
		SNOP		1
		SMVAAGH.M1		OR11, R43:R42
		SNOP		1
		SMOVIL		-76, R46
		SMOVIL		-1, R47
		SADDA.M1		R47:R46,AR14,AR10
		SNOP		1
		SLDW		*AR10, R44
		SNOP		5
		SMVAGA36.M1		R43:R42, AR10
		SNOP		1
		SLDW		*AR10, R42
		SNOP		5
		SMULIS.M1		R42,R44,R42
		SNOP		2
		SADD.M1		R42,R45,R42
		SMOVIL		-696, R44
		SMOVIL		-1, R45
		SADDA.M1		R45:R44,AR14,AR10
		SNOP		1
		SSTW		R42, *AR10
		SSHFAR		31, R42, R42
		SMOVIL		-692, R44
		SMOVIL		-1, R45
		SADDA.M1		R45:R44,AR14,AR10
		SNOP		1
		SSTW		R42, *AR10
		SMOVIL		-696, R42
		SMOVIL		-1, R43
		SADDA.M1		R43:R42,AR14,AR10
		SNOP		1
		SLDW		*AR10, R46
		SNOP		5
		SMOVIL		-696, R42
		SMOVIL		-1, R43
		SADDA.M1		R43:R42,AR14,AR10
		SNOP		1
		SLDW		*AR10, R42
		SNOP		5
		SADD.M1		R42,R46,R44
		SMOVIL		-696, R46
		SMOVIL		-1, R47
		SADDA.M1		R47:R46,AR14,AR10
		SNOP		1
		SLDW		*AR10, R43
		SNOP		5
		SLTU		R44, R43, R42
		SMOVIL		-692, R46
		SMOVIL		-1, R47
		SADDA.M1		R47:R46,AR14,AR10
		SNOP		1
		SLDW		*AR10, R43
		SNOP		5
		SMOVIL		-692, R46
		SMOVIL		-1, R47
		SADDA.M1		R47:R46,AR14,AR10
		SNOP		1
		SLDW		*AR10, R46
		SNOP		5
		SADD.M1		R46,R43,R45
		SADD.M1		R45,R42,R42
		SMOV.M1		R42, R45
		SADD.M1		R44,R44,R42
		SLTU		R42, R44, R46
		SADD.M1		R45,R45,R43
		SADD.M1		R43,R46,R44
		SMOV.M1		R44, R43
		SADD.M1		R42,R42,R44
		SLTU		R44, R42, R46
		SADD.M1		R43,R43,R45
		SADD.M1		R45,R46,R42
		SMOV.M1		R42, R45
		SMOVIL		-152, R42
		SMOVIL		-1, R43
		SMOVIL		-64, R48
		SMOVIL		-1, R49
		SADDA.M1		R49:R48,AR14,OR11
		SNOP		1
		SADDA.M1		R43:R42,OR11,OR11
		SNOP		1
		SMVAAGL.M1		OR11, R43:R42
		SNOP		1
		SMVAAGH.M1		OR11, R43:R42
		SNOP		1
	;no-op trunc di R45:R44 to pdi R45:R44
		SMVAGA36.M1		R43:R42, AR10
		SNOP		1
		SLDDW		*AR10, R43:R42
		SNOP		5
		SMVAGA36.M1		R43:R42, OR11
		SNOP		1
		SADDA.M1		R45:R44,OR11,OR11
		SNOP		1
		SMVAAGL.M1		OR11, R43:R42
		SNOP		1
		SMVAAGH.M1		OR11, R43:R42
		SNOP		1
		SMVAGA36.M1		R43:R42, AR10
		SNOP		1
		SLDDW		*AR10, R49:R48
		SNOP		5
		SMOVIL		-136, R42
		SMOVIL		-1, R43
		SADDA.M1		R43:R42,AR14,AR10
		SNOP		1
		SLDDW		*AR10, R45:R44
		SNOP		5
		SMOVIL		-168, R46
		SMOVIL		-1, R47
		SADDA.M1		R47:R46,AR14,AR10
		SNOP		1
		SLDDW		*AR10, R43:R42
		SNOP		5
		SFMULD.M1		R45:R44, R43:R42, R47:R46
		SNOP		5
		SMOVIL		-144, R42
		SMOVIL		-1, R43
		SADDA.M1		R43:R42,AR14,AR10
		SNOP		1
		SLDDW		*AR10, R45:R44
		SNOP		5
		SMOVIL		-176, R52
		SMOVIL		-1, R53
		SADDA.M1		R53:R52,AR14,AR10
		SNOP		1
		SLDDW		*AR10, R43:R42
		SNOP		5
		SFMULD.M1		R45:R44, R43:R42, R43:R42
		SNOP		5
		SFSUBD.M1	R43:R42, R47:R46, R43:R42
		SNOP		4
		SFSUBD.M1	R43:R42, R49:R48, R43:R42
		SNOP		4
		SMVAGA36.M1		R51:R50, AR10
		SNOP		1
		SSTDW		R43:R42, *AR10
	.loc 1 130 0 discriminator 2
		SMOVIL		-80, R44
		SMOVIL		-1, R45
		SADDA.M1		R45:R44,AR14,AR10
		SNOP		1
		SLDW		*AR10, R42
		SNOP		5
		SSHFLL		1, R42, R42
		SADD.M1		1,R42,R45
		SMOVIL		-64, R42
		SMOVIL		-1, R43
		SMOVIL		-64, R46
		SMOVIL		-1, R47
		SADDA.M1		R47:R46,AR14,OR11
		SNOP		1
		SADDA.M1		R43:R42,OR11,OR11
		SNOP		1
		SMVAAGL.M1		OR11, R43:R42
		SNOP		1
		SMVAAGH.M1		OR11, R43:R42
		SNOP		1
		SMOVIL		-76, R46
		SMOVIL		-1, R47
		SADDA.M1		R47:R46,AR14,AR10
		SNOP		1
		SLDW		*AR10, R44
		SNOP		5
		SMVAGA36.M1		R43:R42, AR10
		SNOP		1
		SLDW		*AR10, R42
		SNOP		5
		SMULIS.M1		R42,R44,R42
		SNOP		2
		SADD.M1		R42,R45,R42
		SMOVIL		-704, R44
		SMOVIL		-1, R45
		SADDA.M1		R45:R44,AR14,AR10
		SNOP		1
		SSTW		R42, *AR10
		SSHFAR		31, R42, R42
		SMOVIL		-700, R44
		SMOVIL		-1, R45
		SADDA.M1		R45:R44,AR14,AR10
		SNOP		1
		SSTW		R42, *AR10
		SMOVIL		-704, R42
		SMOVIL		-1, R43
		SADDA.M1		R43:R42,AR14,AR10
		SNOP		1
		SLDW		*AR10, R46
		SNOP		5
		SMOVIL		-704, R42
		SMOVIL		-1, R43
		SADDA.M1		R43:R42,AR14,AR10
		SNOP		1
		SLDW		*AR10, R42
		SNOP		5
		SADD.M1		R42,R46,R44
		SMOVIL		-704, R46
		SMOVIL		-1, R47
		SADDA.M1		R47:R46,AR14,AR10
		SNOP		1
		SLDW		*AR10, R43
		SNOP		5
		SLTU		R44, R43, R42
		SMOVIL		-700, R46
		SMOVIL		-1, R47
		SADDA.M1		R47:R46,AR14,AR10
		SNOP		1
		SLDW		*AR10, R43
		SNOP		5
		SMOVIL		-700, R46
		SMOVIL		-1, R47
		SADDA.M1		R47:R46,AR14,AR10
		SNOP		1
		SLDW		*AR10, R46
		SNOP		5
		SADD.M1		R46,R43,R45
		SADD.M1		R45,R42,R42
		SMOV.M1		R42, R45
		SADD.M1		R44,R44,R42
		SLTU		R42, R44, R46
		SADD.M1		R45,R45,R43
		SADD.M1		R43,R46,R44
		SMOV.M1		R44, R43
		SADD.M1		R42,R42,R44
		SLTU		R44, R42, R46
		SADD.M1		R43,R43,R45
		SADD.M1		R45,R46,R42
		SMOV.M1		R42, R45
		SMOVIL		-152, R42
		SMOVIL		-1, R43
		SMOVIL		-64, R48
		SMOVIL		-1, R49
		SADDA.M1		R49:R48,AR14,OR11
		SNOP		1
		SADDA.M1		R43:R42,OR11,OR11
		SNOP		1
		SMVAAGL.M1		OR11, R43:R42
		SNOP		1
		SMVAAGH.M1		OR11, R43:R42
		SNOP		1
	;no-op trunc di R45:R44 to pdi R45:R44
		SMVAGA36.M1		R43:R42, AR10
		SNOP		1
		SLDDW		*AR10, R43:R42
		SNOP		5
		SMVAGA36.M1		R43:R42, OR11
		SNOP		1
		SADDA.M1		R45:R44,OR11,OR11
		SNOP		1
		SMVAAGL.M1		OR11, R51:R50
		SNOP		1
		SMVAAGH.M1		OR11, R51:R50
		SNOP		1
		SMOVIL		-80, R44
		SMOVIL		-1, R45
		SADDA.M1		R45:R44,AR14,AR10
		SNOP		1
		SLDW		*AR10, R42
		SNOP		5
		SSHFLL		1, R42, R42
		SADD.M1		1,R42,R45
		SMOVIL		-64, R42
		SMOVIL		-1, R43
		SMOVIL		-64, R46
		SMOVIL		-1, R47
		SADDA.M1		R47:R46,AR14,OR11
		SNOP		1
		SADDA.M1		R43:R42,OR11,OR11
		SNOP		1
		SMVAAGL.M1		OR11, R43:R42
		SNOP		1
		SMVAAGH.M1		OR11, R43:R42
		SNOP		1
		SMOVIL		-76, R46
		SMOVIL		-1, R47
		SADDA.M1		R47:R46,AR14,AR10
		SNOP		1
		SLDW		*AR10, R44
		SNOP		5
		SMVAGA36.M1		R43:R42, AR10
		SNOP		1
		SLDW		*AR10, R42
		SNOP		5
		SMULIS.M1		R42,R44,R42
		SNOP		2
		SADD.M1		R42,R45,R42
		SMOVIL		-712, R44
		SMOVIL		-1, R45
		SADDA.M1		R45:R44,AR14,AR10
		SNOP		1
		SSTW		R42, *AR10
		SSHFAR		31, R42, R42
		SMOVIL		-708, R44
		SMOVIL		-1, R45
		SADDA.M1		R45:R44,AR14,AR10
		SNOP		1
		SSTW		R42, *AR10
		SMOVIL		-712, R42
		SMOVIL		-1, R43
		SADDA.M1		R43:R42,AR14,AR10
		SNOP		1
		SLDW		*AR10, R46
		SNOP		5
		SMOVIL		-712, R42
		SMOVIL		-1, R43
		SADDA.M1		R43:R42,AR14,AR10
		SNOP		1
		SLDW		*AR10, R42
		SNOP		5
		SADD.M1		R42,R46,R44
		SMOVIL		-712, R46
		SMOVIL		-1, R47
		SADDA.M1		R47:R46,AR14,AR10
		SNOP		1
		SLDW		*AR10, R43
		SNOP		5
		SLTU		R44, R43, R42
		SMOVIL		-708, R46
		SMOVIL		-1, R47
		SADDA.M1		R47:R46,AR14,AR10
		SNOP		1
		SLDW		*AR10, R43
		SNOP		5
		SMOVIL		-708, R46
		SMOVIL		-1, R47
		SADDA.M1		R47:R46,AR14,AR10
		SNOP		1
		SLDW		*AR10, R46
		SNOP		5
		SADD.M1		R46,R43,R45
		SADD.M1		R45,R42,R42
		SMOV.M1		R42, R45
		SADD.M1		R44,R44,R42
		SLTU		R42, R44, R46
		SADD.M1		R45,R45,R43
		SADD.M1		R43,R46,R44
		SMOV.M1		R44, R43
		SADD.M1		R42,R42,R44
		SLTU		R44, R42, R46
		SADD.M1		R43,R43,R45
		SADD.M1		R45,R46,R42
		SMOV.M1		R42, R45
		SMOVIL		-152, R42
		SMOVIL		-1, R43
		SMOVIL		-64, R48
		SMOVIL		-1, R49
		SADDA.M1		R49:R48,AR14,OR11
		SNOP		1
		SADDA.M1		R43:R42,OR11,OR11
		SNOP		1
		SMVAAGL.M1		OR11, R43:R42
		SNOP		1
		SMVAAGH.M1		OR11, R43:R42
		SNOP		1
	;no-op trunc di R45:R44 to pdi R45:R44
		SMVAGA36.M1		R43:R42, AR10
		SNOP		1
		SLDDW		*AR10, R43:R42
		SNOP		5
		SMVAGA36.M1		R43:R42, OR11
		SNOP		1
		SADDA.M1		R45:R44,OR11,OR11
		SNOP		1
		SMVAAGL.M1		OR11, R43:R42
		SNOP		1
		SMVAAGH.M1		OR11, R43:R42
		SNOP		1
		SMVAGA36.M1		R43:R42, AR10
		SNOP		1
		SLDDW		*AR10, R49:R48
		SNOP		5
		SMOVIL		-136, R42
		SMOVIL		-1, R43
		SADDA.M1		R43:R42,AR14,AR10
		SNOP		1
		SLDDW		*AR10, R45:R44
		SNOP		5
		SMOVIL		-176, R46
		SMOVIL		-1, R47
		SADDA.M1		R47:R46,AR14,AR10
		SNOP		1
		SLDDW		*AR10, R43:R42
		SNOP		5
		SFMULD.M1		R45:R44, R43:R42, R47:R46
		SNOP		5
		SMOVIL		-144, R42
		SMOVIL		-1, R43
		SADDA.M1		R43:R42,AR14,AR10
		SNOP		1
		SLDDW		*AR10, R45:R44
		SNOP		5
		SMOVIL		-168, R52
		SMOVIL		-1, R53
		SADDA.M1		R53:R52,AR14,AR10
		SNOP		1
		SLDDW		*AR10, R43:R42
		SNOP		5
		SFMULD.M1		R45:R44, R43:R42, R43:R42
		SNOP		5
		SFADDD.M1		R47:R46, R43:R42, R43:R42
		SNOP		4
		SFSUBD.M1	R43:R42, R49:R48, R43:R42
		SNOP		4
		SMVAGA36.M1		R51:R50, AR10
		SNOP		1
		SSTDW		R43:R42, *AR10
	.loc 1 123 0 discriminator 2
		SMOVIL		-80, R44
		SMOVIL		-1, R45
		SADDA.M1		R45:R44,AR14,AR10
		SNOP		1
		SLDW		*AR10, R42
		SNOP		5
		SADD.M1		1,R42,R42
		SMOVIL		-80, R44
		SMOVIL		-1, R45
		SADDA.M1		R45:R44,AR14,AR10
		SNOP		1
		SSTW		R42, *AR10
.L25:
	.loc 1 123 0 is_stmt 0 discriminator 1
		SMOVIL		-132, R42
		SMOVIL		-1, R43
		SMOVIL		-64, R44
		SMOVIL		-1, R45
		SADDA.M1		R45:R44,AR14,OR11
		SNOP		1
		SADDA.M1		R43:R42,OR11,OR11
		SNOP		1
		SMVAAGL.M1		OR11, R43:R42
		SNOP		1
		SMVAAGH.M1		OR11, R43:R42
		SNOP		1
		SMOVIL		-80, R46
		SMOVIL		-1, R47
		SADDA.M1		R47:R46,AR14,AR10
		SNOP		1
		SLDW		*AR10, R44
		SNOP		5
		SMVAGA36.M1		R43:R42, AR10
		SNOP		1
		SLDW		*AR10, R42
		SNOP		5
		SLT		R44, R42, R42
		SMOV.M1		R42, R0
	[R0]	SBR		.L26
		SNOP		6
	.loc 1 104 0 is_stmt 1
		SMOVIL		-76, R44
		SMOVIL		-1, R45
		SADDA.M1		R45:R44,AR14,AR10
		SNOP		1
		SLDW		*AR10, R42
		SNOP		5
		SADD.M1		1,R42,R42
		SMOVIL		-76, R44
		SMOVIL		-1, R45
		SADDA.M1		R45:R44,AR14,AR10
		SNOP		1
		SSTW		R42, *AR10
.L22:
	.loc 1 104 0 is_stmt 0 discriminator 1
		SMOVIL		-132, R42
		SMOVIL		-1, R43
		SMOVIL		-64, R44
		SMOVIL		-1, R45
		SADDA.M1		R45:R44,AR14,OR11
		SNOP		1
		SADDA.M1		R43:R42,OR11,OR11
		SNOP		1
		SMVAAGL.M1		OR11, R43:R42
		SNOP		1
		SMVAAGH.M1		OR11, R43:R42
		SNOP		1
		SMOVIL		-76, R46
		SMOVIL		-1, R47
		SADDA.M1		R47:R46,AR14,AR10
		SNOP		1
		SLDW		*AR10, R44
		SNOP		5
		SMVAGA36.M1		R43:R42, AR10
		SNOP		1
		SLDW		*AR10, R42
		SNOP		5
		SLT		R44, R42, R42
		SMOV.M1		R42, R0
	[R0]	SBR		.L27
		SNOP		6
.L9:
	.loc 1 37 0 is_stmt 1
		SMOVIL		-72, R44
		SMOVIL		-1, R45
		SADDA.M1		R45:R44,AR14,AR10
		SNOP		1
		SLDW		*AR10, R42
		SNOP		5
		SADD.M1		1,R42,R42
		SMOVIL		-72, R44
		SMOVIL		-1, R45
		SADDA.M1		R45:R44,AR14,AR10
		SNOP		1
		SSTW		R42, *AR10
.L6:
	.loc 1 37 0 is_stmt 0 discriminator 1
		SMOVIL		-72, R44
		SMOVIL		-1, R45
		SADDA.M1		R45:R44,AR14,AR10
		SNOP		1
		SLDW		*AR10, R43
		SNOP		5
		SMOVIL		-84, R44
		SMOVIL		-1, R45
		SADDA.M1		R45:R44,AR14,AR10
		SNOP		1
		SLDW		*AR10, R42
		SNOP		5
		SLT		R42, R43, R42
		SMOV.M1		R42, R0
	[!R0]	SBR		.L28
		SNOP		6
	.loc 1 138 0 is_stmt 1
		SMOVIL		0, R42
		SMOVIL		-68, R44
		SMOVIL		-1, R45
		SADDA.M1		R45:R44,AR14,AR10
		SNOP		1
		SSTW		R42, *AR10
		SBR		.L29
		SNOP		6
.L32:
	.loc 1 140 0
		SMOVIL		0, R42
		SMOVIL		-72, R44
		SMOVIL		-1, R45
		SADDA.M1		R45:R44,AR14,AR10
		SNOP		1
		SSTW		R42, *AR10
		SBR		.L30
		SNOP		6
.L31:
	.loc 1 142 0 discriminator 2
		SMOVIL		-72, R44
		SMOVIL		-1, R45
		SADDA.M1		R45:R44,AR14,AR10
		SNOP		1
		SLDW		*AR10, R42
		SNOP		5
		SSHFLL		1, R42, R42
		SADD.M1		1,R42,R44
		SMOVIL		-64, R42
		SMOVIL		-1, R43
		SMOVIL		-64, R46
		SMOVIL		-1, R47
		SADDA.M1		R47:R46,AR14,OR11
		SNOP		1
		SADDA.M1		R43:R42,OR11,OR11
		SNOP		1
		SMVAAGL.M1		OR11, R43:R42
		SNOP		1
		SMVAAGH.M1		OR11, R43:R42
		SNOP		1
		SMOVIL		-68, R46
		SMOVIL		-1, R47
		SADDA.M1		R47:R46,AR14,AR10
		SNOP		1
		SLDW		*AR10, R45
		SNOP		5
		SMVAGA36.M1		R43:R42, AR10
		SNOP		1
		SLDW		*AR10, R42
		SNOP		5
		SMULIS.M1		R42,R45,R42
		SNOP		2
		SADD.M1		R42,R44,R42
		SMOVIL		-720, R44
		SMOVIL		-1, R45
		SADDA.M1		R45:R44,AR14,AR10
		SNOP		1
		SSTW		R42, *AR10
		SSHFAR		31, R42, R42
		SMOVIL		-716, R44
		SMOVIL		-1, R45
		SADDA.M1		R45:R44,AR14,AR10
		SNOP		1
		SSTW		R42, *AR10
		SMOVIL		-720, R42
		SMOVIL		-1, R43
		SADDA.M1		R43:R42,AR14,AR10
		SNOP		1
		SLDW		*AR10, R46
		SNOP		5
		SMOVIL		-720, R42
		SMOVIL		-1, R43
		SADDA.M1		R43:R42,AR14,AR10
		SNOP		1
		SLDW		*AR10, R42
		SNOP		5
		SADD.M1		R42,R46,R44
		SMOVIL		-720, R46
		SMOVIL		-1, R47
		SADDA.M1		R47:R46,AR14,AR10
		SNOP		1
		SLDW		*AR10, R43
		SNOP		5
		SLTU		R44, R43, R42
		SMOVIL		-716, R46
		SMOVIL		-1, R47
		SADDA.M1		R47:R46,AR14,AR10
		SNOP		1
		SLDW		*AR10, R43
		SNOP		5
		SMOVIL		-716, R46
		SMOVIL		-1, R47
		SADDA.M1		R47:R46,AR14,AR10
		SNOP		1
		SLDW		*AR10, R46
		SNOP		5
		SADD.M1		R46,R43,R45
		SADD.M1		R45,R42,R42
		SMOV.M1		R42, R45
		SADD.M1		R44,R44,R42
		SLTU		R42, R44, R46
		SADD.M1		R45,R45,R43
		SADD.M1		R43,R46,R44
		SMOV.M1		R44, R43
		SADD.M1		R42,R42,R44
		SLTU		R44, R42, R46
		SADD.M1		R43,R43,R45
		SADD.M1		R45,R46,R42
		SMOV.M1		R42, R45
		SMOV.M1		R44, R42
		SMOV.M1		R45, R43
		SMOVIL		-152, R44
		SMOVIL		-1, R45
		SMOVIL		-64, R48
		SMOVIL		-1, R49
		SADDA.M1		R49:R48,AR14,OR11
		SNOP		1
		SADDA.M1		R45:R44,OR11,OR11
		SNOP		1
		SMVAAGL.M1		OR11, R45:R44
		SNOP		1
		SMVAAGH.M1		OR11, R45:R44
		SNOP		1
	;no-op trunc di R43:R42 to pdi R43:R42
		SMVAGA36.M1		R45:R44, AR10
		SNOP		1
		SLDDW		*AR10, R45:R44
		SNOP		5
		SMVAGA36.M1		R45:R44, OR11
		SNOP		1
		SADDA.M1		R43:R42,OR11,OR11
		SNOP		1
		SMVAAGL.M1		OR11, R47:R46
		SNOP		1
		SMVAAGH.M1		OR11, R47:R46
		SNOP		1
		SMOVIL		-72, R44
		SMOVIL		-1, R45
		SADDA.M1		R45:R44,AR14,AR10
		SNOP		1
		SLDW		*AR10, R42
		SNOP		5
		SSHFLL		1, R42, R42
		SADD.M1		1,R42,R44
		SMOVIL		-64, R42
		SMOVIL		-1, R43
		SMOVIL		-64, R48
		SMOVIL		-1, R49
		SADDA.M1		R49:R48,AR14,OR11
		SNOP		1
		SADDA.M1		R43:R42,OR11,OR11
		SNOP		1
		SMVAAGL.M1		OR11, R43:R42
		SNOP		1
		SMVAAGH.M1		OR11, R43:R42
		SNOP		1
		SMOVIL		-68, R48
		SMOVIL		-1, R49
		SADDA.M1		R49:R48,AR14,AR10
		SNOP		1
		SLDW		*AR10, R45
		SNOP		5
		SMVAGA36.M1		R43:R42, AR10
		SNOP		1
		SLDW		*AR10, R42
		SNOP		5
		SMULIS.M1		R42,R45,R42
		SNOP		2
		SADD.M1		R42,R44,R42
		SMOVIL		-728, R44
		SMOVIL		-1, R45
		SADDA.M1		R45:R44,AR14,AR10
		SNOP		1
		SSTW		R42, *AR10
		SSHFAR		31, R42, R42
		SMOVIL		-724, R44
		SMOVIL		-1, R45
		SADDA.M1		R45:R44,AR14,AR10
		SNOP		1
		SSTW		R42, *AR10
		SMOVIL		-728, R42
		SMOVIL		-1, R43
		SADDA.M1		R43:R42,AR14,AR10
		SNOP		1
		SLDW		*AR10, R48
		SNOP		5
		SMOVIL		-728, R42
		SMOVIL		-1, R43
		SADDA.M1		R43:R42,AR14,AR10
		SNOP		1
		SLDW		*AR10, R42
		SNOP		5
		SADD.M1		R42,R48,R44
		SMOVIL		-728, R48
		SMOVIL		-1, R49
		SADDA.M1		R49:R48,AR14,AR10
		SNOP		1
		SLDW		*AR10, R43
		SNOP		5
		SLTU		R44, R43, R42
		SMOVIL		-724, R48
		SMOVIL		-1, R49
		SADDA.M1		R49:R48,AR14,AR10
		SNOP		1
		SLDW		*AR10, R43
		SNOP		5
		SMOVIL		-724, R48
		SMOVIL		-1, R49
		SADDA.M1		R49:R48,AR14,AR10
		SNOP		1
		SLDW		*AR10, R48
		SNOP		5
		SADD.M1		R48,R43,R45
		SADD.M1		R45,R42,R42
		SMOV.M1		R42, R45
		SADD.M1		R44,R44,R42
		SLTU		R42, R44, R48
		SADD.M1		R45,R45,R43
		SADD.M1		R43,R48,R44
		SMOV.M1		R44, R43
		SADD.M1		R42,R42,R44
		SLTU		R44, R42, R48
		SADD.M1		R43,R43,R45
		SADD.M1		R45,R48,R42
		SMOV.M1		R42, R45
		SMOV.M1		R44, R42
		SMOV.M1		R45, R43
		SMOVIL		-152, R44
		SMOVIL		-1, R45
		SMOVIL		-64, R52
		SMOVIL		-1, R53
		SADDA.M1		R53:R52,AR14,OR11
		SNOP		1
		SADDA.M1		R45:R44,OR11,OR11
		SNOP		1
		SMVAAGL.M1		OR11, R45:R44
		SNOP		1
		SMVAAGH.M1		OR11, R45:R44
		SNOP		1
	;no-op trunc di R43:R42 to pdi R43:R42
		SMVAGA36.M1		R45:R44, AR10
		SNOP		1
		SLDDW		*AR10, R45:R44
		SNOP		5
		SMVAGA36.M1		R45:R44, OR11
		SNOP		1
		SADDA.M1		R43:R42,OR11,OR11
		SNOP		1
		SMVAAGL.M1		OR11, R43:R42
		SNOP		1
		SMVAAGH.M1		OR11, R43:R42
		SNOP		1
		SMVAGA36.M1		R43:R42, AR10
		SNOP		1
		SLDDW		*AR10, R43:R42
		SNOP		5
		SMOVIL		-736, R44
		SMOVIL		-1, R45
		SADDA.M1		R45:R44,AR14,AR10
		SNOP		1
		SSTW		R42, *AR10
		SMOVIL		-2147483648, R44
		SMOVIH		-2147483648, R44
		SXOR		R44, R43, R45
		SMOVIL		-732, R48
		SMOVIL		-1, R49
		SADDA.M1		R49:R48,AR14,AR10
		SNOP		1
		SSTW		R45, *AR10
		SMOVIL		-736, R42
		SMOVIL		-1, R43
		SADDA.M1		R43:R42,AR14,AR10
		SNOP		1
		SLDDW		*AR10, R43:R42
		SNOP		5
		SMVAGA36.M1		R47:R46, AR10
		SNOP		1
		SSTDW		R43:R42, *AR10
	.loc 1 140 0 discriminator 2
		SMOVIL		-72, R44
		SMOVIL		-1, R45
		SADDA.M1		R45:R44,AR14,AR10
		SNOP		1
		SLDW		*AR10, R42
		SNOP		5
		SADD.M1		1,R42,R42
		SMOVIL		-72, R44
		SMOVIL		-1, R45
		SADDA.M1		R45:R44,AR14,AR10
		SNOP		1
		SSTW		R42, *AR10
.L30:
	.loc 1 140 0 is_stmt 0 discriminator 1
		SMOVIL		-132, R42
		SMOVIL		-1, R43
		SMOVIL		-64, R44
		SMOVIL		-1, R45
		SADDA.M1		R45:R44,AR14,OR11
		SNOP		1
		SADDA.M1		R43:R42,OR11,OR11
		SNOP		1
		SMVAAGL.M1		OR11, R43:R42
		SNOP		1
		SMVAAGH.M1		OR11, R43:R42
		SNOP		1
		SMOVIL		-72, R46
		SMOVIL		-1, R47
		SADDA.M1		R47:R46,AR14,AR10
		SNOP		1
		SLDW		*AR10, R44
		SNOP		5
		SMVAGA36.M1		R43:R42, AR10
		SNOP		1
		SLDW		*AR10, R42
		SNOP		5
		SLT		R44, R42, R42
		SMOV.M1		R42, R0
	[R0]	SBR		.L31
		SNOP		6
	.loc 1 138 0 is_stmt 1
		SMOVIL		-68, R44
		SMOVIL		-1, R45
		SADDA.M1		R45:R44,AR14,AR10
		SNOP		1
		SLDW		*AR10, R42
		SNOP		5
		SADD.M1		1,R42,R42
		SMOVIL		-68, R44
		SMOVIL		-1, R45
		SADDA.M1		R45:R44,AR14,AR10
		SNOP		1
		SSTW		R42, *AR10
.L29:
	.loc 1 138 0 is_stmt 0 discriminator 1
		SMOVIL		-132, R42
		SMOVIL		-1, R43
		SMOVIL		-64, R44
		SMOVIL		-1, R45
		SADDA.M1		R45:R44,AR14,OR11
		SNOP		1
		SADDA.M1		R43:R42,OR11,OR11
		SNOP		1
		SMVAAGL.M1		OR11, R43:R42
		SNOP		1
		SMVAAGH.M1		OR11, R43:R42
		SNOP		1
		SMOVIL		-68, R46
		SMOVIL		-1, R47
		SADDA.M1		R47:R46,AR14,AR10
		SNOP		1
		SLDW		*AR10, R44
		SNOP		5
		SMVAGA36.M1		R43:R42, AR10
		SNOP		1
		SLDW		*AR10, R42
		SNOP		5
		SLT		R44, R42, R42
		SMOV.M1		R42, R0
	[R0]	SBR		.L32
		SNOP		6
	.loc 1 146 0 is_stmt 1
		SMOVIL		0, R42
	.loc 1 147 0
		SMOV.M1		R42, R10
		SLDDW		*+AR15[85], R31:R30
		SNOP		5
		SLDDW		*+AR15[86], R33:R32
		SNOP		5
		SLDDW		*+AR15[87], R35:R34
		SNOP		5
		SLDDW		*+AR15[88], R37:R36
		SNOP		5
		SLDDW		*+AR15[89], R39:R38
		SNOP		5
		SLDDW		*+AR15[90], R41:R40
		SNOP		5
		SLDDW		*+AR15[91], R63:R62
		SNOP		5
		SADDA.M1		-16,AR14,AR15
		SNOP		1
		SLDDW		*++AR15[2], R7:R6
		SNOP		5
		SMVAGA36.M1		R7:R6, AR14
		SNOP		1
		SMVCGC.L		R63, BRReg
		SNOP		1
		SBR		R62
		SNOP		6
	.cfi_endproc
.LFE0:
	.size	DSPF_dp_qrd_cmplx_cn, .-DSPF_dp_qrd_cmplx_cn
	.section	.text.DSPF_dp_qrd_solver_cmplx_cn,"ax",@progbits
	.align	2
	.global	DSPF_dp_qrd_solver_cmplx_cn
	.type	DSPF_dp_qrd_solver_cmplx_cn, @function
DSPF_dp_qrd_solver_cmplx_cn:
.LFB1:
	.loc 1 150 0
	.cfi_startproc
		SMVAAGL.M1		AR14, R7:R6
		SNOP		1
		SMVAAGH.M1		AR14, R7:R6
		SNOP		1
		SSTDW		R7:R6, *AR15--[2]
.LCFI2:
	.cfi_def_cfa_offset 16
	.cfi_offset 14, 0
		SADDA.M1		16,AR15,AR14
.LCFI3:
	.cfi_def_cfa 14, 0
		SNOP		1
		SMOVIL		-384, R6
		SMOVIL		-1, R7
		SADDA.M1		R7:R6,AR15,AR15
		SNOP		1
		SSTDW		R63:R62, *+AR15[48]
		SSTDW		R41:R40, *+AR15[47]
		SSTDW		R39:R38, *+AR15[46]
		SSTDW		R37:R36, *+AR15[45]
		SSTDW		R35:R34, *+AR15[44]
		SSTDW		R33:R32, *+AR15[43]
		SSTDW		R31:R30, *+AR15[42]
	.cfi_offset 78, -16
	.cfi_offset 79, -12
	.cfi_offset 56, -24
	.cfi_offset 57, -20
	.cfi_offset 54, -32
	.cfi_offset 55, -28
	.cfi_offset 52, -40
	.cfi_offset 53, -36
	.cfi_offset 50, -48
	.cfi_offset 51, -44
	.cfi_offset 48, -56
	.cfi_offset 49, -52
	.cfi_offset 46, -64
	.cfi_offset 47, -60
		SMOVIL		-76, R42
		SMOVIL		-1, R43
		SMOVIL		-64, R44
		SMOVIL		-1, R45
		SADDA.M1		R45:R44,AR14,OR11
		SNOP		1
		SADDA.M1		R43:R42,OR11,OR11
		SNOP		1
		SMVAAGL.M1		OR11, R43:R42
		SNOP		1
		SMVAAGH.M1		OR11, R43:R42
		SNOP		1
		SMVAGA36.M1		R43:R42, AR10
		SNOP		1
		SSTW		R10, *AR10
		SMOVIL		-80, R42
		SMOVIL		-1, R43
		SMOVIL		-64, R44
		SMOVIL		-1, R45
		SADDA.M1		R45:R44,AR14,OR11
		SNOP		1
		SADDA.M1		R43:R42,OR11,OR11
		SNOP		1
		SMVAAGL.M1		OR11, R43:R42
		SNOP		1
		SMVAAGH.M1		OR11, R43:R42
		SNOP		1
		SMVAGA36.M1		R43:R42, AR10
		SNOP		1
		SSTW		R12, *AR10
		SMOVIL		-152, R42
		SMOVIL		-1, R43
		SADDA.M1		R43:R42,AR14,AR10
		SNOP		1
		SSTDW		R15:R14, *AR10
		SMOVIL		-160, R42
		SMOVIL		-1, R43
		SADDA.M1		R43:R42,AR14,AR10
		SNOP		1
		SSTDW		R17:R16, *AR10
		SMOVIL		-168, R42
		SMOVIL		-1, R43
		SADDA.M1		R43:R42,AR14,AR10
		SNOP		1
		SSTDW		R19:R18, *AR10
		SMOVIL		-176, R42
		SMOVIL		-1, R43
		SADDA.M1		R43:R42,AR14,AR10
		SNOP		1
		SSTDW		R21:R20, *AR10
		SMOVIL		-184, R42
		SMOVIL		-1, R43
		SADDA.M1		R43:R42,AR14,AR10
		SNOP		1
		SSTDW		R23:R22, *AR10
	.loc 1 155 0
		SMOVIL		0, R42
		SMOVIL		-66, R44
		SMOVIL		-1, R45
		SADDA.M1		R45:R44,AR14,AR10
		SNOP		1
		SSTH		R42, *AR10
		SBR		.L41
		SNOP		6
.L44:
	.loc 1 157 0
		SMOVIL		0, R42
		SMOVIL		0, R43
		SSTDW		R43:R42, *-AR14[10]
	.loc 1 158 0
		SMOVIL		0, R42
		SMOVIL		0, R43
		SSTDW		R43:R42, *-AR14[11]
	.loc 1 159 0
		SMOVIL		0, R42
		SMOVIL		-68, R44
		SMOVIL		-1, R45
		SADDA.M1		R45:R44,AR14,AR10
		SNOP		1
		SSTH		R42, *AR10
		SBR		.L42
		SNOP		6
.L43:
	.loc 1 161 0 discriminator 2
		SMOVIL		-66, R44
		SMOVIL		-1, R45
		SADDA.M1		R45:R44,AR14,AR10
		SNOP		1
		SLDH		*AR10, R42
		SNOP		5
		SSHFLL		16, R42, R42
		SSHFAR		16, R42, R42
		SMOVIL		-192, R44
		SMOVIL		-1, R45
		SADDA.M1		R45:R44,AR14,AR10
		SNOP		1
		SSTW		R42, *AR10
		SSHFAR		31, R42, R42
		SMOVIL		-188, R44
		SMOVIL		-1, R45
		SADDA.M1		R45:R44,AR14,AR10
		SNOP		1
		SSTW		R42, *AR10
		SMOVIL		-68, R44
		SMOVIL		-1, R45
		SADDA.M1		R45:R44,AR14,AR10
		SNOP		1
		SLDH		*AR10, R42
		SNOP		5
		SSHFLL		16, R42, R42
		SSHFAR		16, R42, R42
		SMOVIL		-200, R44
		SMOVIL		-1, R45
		SADDA.M1		R45:R44,AR14,AR10
		SNOP		1
		SSTW		R42, *AR10
		SSHFAR		31, R42, R42
		SMOVIL		-196, R44
		SMOVIL		-1, R45
		SADDA.M1		R45:R44,AR14,AR10
		SNOP		1
		SSTW		R42, *AR10
		SMOVIL		-76, R42
		SMOVIL		-1, R43
		SMOVIL		-64, R44
		SMOVIL		-1, R45
		SADDA.M1		R45:R44,AR14,OR11
		SNOP		1
		SADDA.M1		R43:R42,OR11,OR11
		SNOP		1
		SMVAAGL.M1		OR11, R43:R42
		SNOP		1
		SMVAAGH.M1		OR11, R43:R42
		SNOP		1
		SMVAGA36.M1		R43:R42, AR10
		SNOP		1
		SLDW		*AR10, R46
		SNOP		5
		SMOVIL		-208, R44
		SMOVIL		-1, R45
		SADDA.M1		R45:R44,AR14,AR10
		SNOP		1
		SSTW		R46, *AR10
		SMVAGA36.M1		R43:R42, AR10
		SNOP		1
		SLDW		*AR10, R42
		SNOP		5
		SSHFAR		31, R42, R42
		SMOVIL		-204, R44
		SMOVIL		-1, R45
		SADDA.M1		R45:R44,AR14,AR10
		SNOP		1
		SSTW		R42, *AR10
		SMOVIL		-196, R44
		SMOVIL		-1, R45
		SADDA.M1		R45:R44,AR14,AR10
		SNOP		1
		SLDW		*AR10, R42
		SNOP		5
		SMOVIL		-208, R44
		SMOVIL		-1, R45
		SADDA.M1		R45:R44,AR14,AR10
		SNOP		1
		SLDW		*AR10, R44
		SNOP		5
		SMULIS.M1		R44,R42,R43
		SNOP		2
		SMOVIL		-204, R44
		SMOVIL		-1, R45
		SADDA.M1		R45:R44,AR14,AR10
		SNOP		1
		SLDW		*AR10, R46
		SNOP		5
		SMOVIL		-200, R44
		SMOVIL		-1, R45
		SADDA.M1		R45:R44,AR14,AR10
		SNOP		1
		SLDW		*AR10, R44
		SNOP		5
		SMULIS.M1		R44,R46,R42
		SNOP		2
		SADD.M1		R42,R43,R44
		SMOVIL		-200, R46
		SMOVIL		-1, R47
		SADDA.M1		R47:R46,AR14,AR10
		SNOP		1
		SLDW		*AR10, R45
		SNOP		5
		SMOVIL		-208, R46
		SMOVIL		-1, R47
		SADDA.M1		R47:R46,AR14,AR10
		SNOP		1
		SLDW		*AR10, R46
		SNOP		5
		SMULU.M1		R46,R45,R43:R42
		SNOP		3
		SADD.M1		R43,R44,R44
		SMOV.M1		R44, R43
		SMOVIL		-192, R46
		SMOVIL		-1, R47
		SADDA.M1		R47:R46,AR14,AR10
		SNOP		1
		SLDW		*AR10, R46
		SNOP		5
		SADD.M1		R42,R46,R44
		SMOVIL		-192, R52
		SMOVIL		-1, R53
		SADDA.M1		R53:R52,AR14,AR10
		SNOP		1
		SLDW		*AR10, R47
		SNOP		5
		SLTU		R44, R47, R46
		SMOVIL		-188, R52
		SMOVIL		-1, R53
		SADDA.M1		R53:R52,AR14,AR10
		SNOP		1
		SLDW		*AR10, R47
		SNOP		5
		SADD.M1		R43,R47,R45
		SADD.M1		R45,R46,R42
		SMOV.M1		R42, R45
		SMOV.M1		R44, R42
		SMOV.M1		R45, R43
		SSHFLR		28, R42, R44
		SSHFLL		4, R43, R45
		SMOVIL		-212, R46
		SMOVIL		-1, R47
		SADDA.M1		R47:R46,AR14,AR10
		SNOP		1
		SSTW		R45, *AR10
		SMOVIL		-212, R46
		SMOVIL		-1, R47
		SADDA.M1		R47:R46,AR14,AR10
		SNOP		1
		SLDW		*AR10, R45
		SNOP		5
		SOR		R45, R44, R45
		SMOVIL		-212, R46
		SMOVIL		-1, R47
		SADDA.M1		R47:R46,AR14,AR10
		SNOP		1
		SSTW		R45, *AR10
		SSHFLL		4, R42, R46
		SMOVIL		-216, R44
		SMOVIL		-1, R45
		SADDA.M1		R45:R44,AR14,AR10
		SNOP		1
		SSTW		R46, *AR10
		SMOVIL		-216, R42
		SMOVIL		-1, R43
		SADDA.M1		R43:R42,AR14,AR10
		SNOP		1
		SLDDW		*AR10, R45:R44
		SNOP		5
	;no-op trunc di R45:R44 to pdi R45:R44
		SMOVIL		-152, R46
		SMOVIL		-1, R47
		SADDA.M1		R47:R46,AR14,AR10
		SNOP		1
		SLDDW		*AR10, R43:R42
		SNOP		5
		SMVAGA36.M1		R43:R42, OR11
		SNOP		1
		SADDA.M1		R45:R44,OR11,OR11
		SNOP		1
		SMVAAGL.M1		OR11, R43:R42
		SNOP		1
		SMVAAGH.M1		OR11, R43:R42
		SNOP		1
		SMVAGA36.M1		R43:R42, AR10
		SNOP		1
		SLDDW		*AR10, R43:R42
		SNOP		5
		SSTDW		R43:R42, *-AR14[12]
	.loc 1 162 0 discriminator 2
		SMOVIL		-66, R44
		SMOVIL		-1, R45
		SADDA.M1		R45:R44,AR14,AR10
		SNOP		1
		SLDH		*AR10, R42
		SNOP		5
		SSHFLL		16, R42, R42
		SSHFAR		16, R42, R42
		SMOVIL		-224, R44
		SMOVIL		-1, R45
		SADDA.M1		R45:R44,AR14,AR10
		SNOP		1
		SSTW		R42, *AR10
		SSHFAR		31, R42, R42
		SMOVIL		-220, R44
		SMOVIL		-1, R45
		SADDA.M1		R45:R44,AR14,AR10
		SNOP		1
		SSTW		R42, *AR10
		SMOVIL		-68, R44
		SMOVIL		-1, R45
		SADDA.M1		R45:R44,AR14,AR10
		SNOP		1
		SLDH		*AR10, R42
		SNOP		5
		SSHFLL		16, R42, R42
		SSHFAR		16, R42, R42
		SMOV.M1		R42, R2
		SSHFAR		31, R42, R42
		SMOV.M1		R42, R3
		SMOVIL		-76, R42
		SMOVIL		-1, R43
		SMOVIL		-64, R44
		SMOVIL		-1, R45
		SADDA.M1		R45:R44,AR14,OR11
		SNOP		1
		SADDA.M1		R43:R42,OR11,OR11
		SNOP		1
		SMVAAGL.M1		OR11, R43:R42
		SNOP		1
		SMVAAGH.M1		OR11, R43:R42
		SNOP		1
		SMVAGA36.M1		R43:R42, AR10
		SNOP		1
		SLDW		*AR10, R46
		SNOP		5
		SMOVIL		-392, R44
		SMOVIL		-1, R45
		SADDA.M1		R45:R44,AR14,AR10
		SNOP		1
		SSTW		R46, *AR10
		SMVAGA36.M1		R43:R42, AR10
		SNOP		1
		SLDW		*AR10, R42
		SNOP		5
		SSHFAR		31, R42, R42
		SMOVIL		-388, R44
		SMOVIL		-1, R45
		SADDA.M1		R45:R44,AR14,AR10
		SNOP		1
		SSTW		R42, *AR10
		SMOVIL		-392, R44
		SMOVIL		-1, R45
		SADDA.M1		R45:R44,AR14,AR10
		SNOP		1
		SLDW		*AR10, R42
		SNOP		5
		SMULIS.M1		R42,R3,R43
		SNOP		2
		SMOVIL		-388, R44
		SMOVIL		-1, R45
		SADDA.M1		R45:R44,AR14,AR10
		SNOP		1
		SLDW		*AR10, R44
		SNOP		5
		SMULIS.M1		R2,R44,R42
		SNOP		2
		SADD.M1		R42,R43,R44
		SMOVIL		-392, R46
		SMOVIL		-1, R47
		SADDA.M1		R47:R46,AR14,AR10
		SNOP		1
		SLDW		*AR10, R45
		SNOP		5
		SMULU.M1		R45,R2,R43:R42
		SNOP		3
		SADD.M1		R43,R44,R44
		SMOV.M1		R44, R43
		SMOVIL		-224, R46
		SMOVIL		-1, R47
		SADDA.M1		R47:R46,AR14,AR10
		SNOP		1
		SLDW		*AR10, R46
		SNOP		5
		SADD.M1		R42,R46,R44
		SMOVIL		-224, R52
		SMOVIL		-1, R53
		SADDA.M1		R53:R52,AR14,AR10
		SNOP		1
		SLDW		*AR10, R47
		SNOP		5
		SLTU		R44, R47, R46
		SMOVIL		-220, R52
		SMOVIL		-1, R53
		SADDA.M1		R53:R52,AR14,AR10
		SNOP		1
		SLDW		*AR10, R47
		SNOP		5
		SADD.M1		R43,R47,R45
		SADD.M1		R45,R46,R42
		SMOV.M1		R42, R45
		SMOV.M1		R44, R42
		SMOV.M1		R45, R43
		SSHFLR		28, R42, R44
		SSHFLL		4, R43, R61
		SOR		R61, R44, R61
		SSHFLL		4, R42, R60
		SMOVIL		8, R42
		SMOVIL		0, R43
		SADD.M1		R42,R60,R44
		SLTU		R44, R60, R46
		SADD.M1		R43,R61,R45
		SADD.M1		R45,R46,R42
		SMOV.M1		R42, R45
		SMOV.M1		R44, R42
		SMOV.M1		R45, R43
		SMOV.M1		R42, R44
		SMOV.M1		R43, R45
	;no-op trunc di R45:R44 to pdi R45:R44
		SMOVIL		-152, R46
		SMOVIL		-1, R47
		SADDA.M1		R47:R46,AR14,AR10
		SNOP		1
		SLDDW		*AR10, R43:R42
		SNOP		5
		SMVAGA36.M1		R43:R42, OR11
		SNOP		1
		SADDA.M1		R45:R44,OR11,OR11
		SNOP		1
		SMVAAGL.M1		OR11, R43:R42
		SNOP		1
		SMVAAGH.M1		OR11, R43:R42
		SNOP		1
		SMVAGA36.M1		R43:R42, AR10
		SNOP		1
		SLDDW		*AR10, R43:R42
		SNOP		5
		SMOVIL		-104, R44
		SMOVIL		-1, R45
		SADDA.M1		R45:R44,AR14,AR10
		SNOP		1
		SSTW		R42, *AR10
		SMOVIL		-2147483648, R44
		SMOVIH		-2147483648, R44
		SXOR		R44, R43, R42
		SMOVIL		-100, R44
		SMOVIL		-1, R45
		SADDA.M1		R45:R44,AR14,AR10
		SNOP		1
		SSTW		R42, *AR10
	.loc 1 163 0 discriminator 2
		SMOVIL		-68, R44
		SMOVIL		-1, R45
		SADDA.M1		R45:R44,AR14,AR10
		SNOP		1
		SLDH		*AR10, R42
		SNOP		5
		SSHFLL		16, R42, R42
		SSHFAR		16, R42, R42
		SMOV.M1		R42, R8
		SSHFAR		31, R42, R42
		SMOV.M1		R42, R9
		SSHFLR		28, R8, R42
		SSHFLL		4, R9, R29
		SOR		R29, R42, R29
		SSHFLL		4, R8, R28
		SMOV.M1		R28, R44
		SMOV.M1		R29, R45
	;no-op trunc di R45:R44 to pdi R45:R44
		SMOVIL		-168, R46
		SMOVIL		-1, R47
		SADDA.M1		R47:R46,AR14,AR10
		SNOP		1
		SLDDW		*AR10, R43:R42
		SNOP		5
		SMVAGA36.M1		R43:R42, OR11
		SNOP		1
		SADDA.M1		R45:R44,OR11,OR11
		SNOP		1
		SMVAAGL.M1		OR11, R43:R42
		SNOP		1
		SMVAAGH.M1		OR11, R43:R42
		SNOP		1
		SMVAGA36.M1		R43:R42, AR10
		SNOP		1
		SLDDW		*AR10, R43:R42
		SNOP		5
		SSTDW		R43:R42, *-AR14[14]
	.loc 1 164 0 discriminator 2
		SMOVIL		-68, R44
		SMOVIL		-1, R45
		SADDA.M1		R45:R44,AR14,AR10
		SNOP		1
		SLDH		*AR10, R42
		SNOP		5
		SSHFLL		16, R42, R42
		SSHFAR		16, R42, R42
		SMOV.M1		R42, R26
		SSHFAR		31, R42, R42
		SMOV.M1		R42, R27
		SSHFLR		28, R26, R42
		SSHFLL		4, R27, R53
		SOR		R53, R42, R53
		SSHFLL		4, R26, R52
		SMOVIL		8, R42
		SMOVIL		0, R43
		SADD.M1		R42,R52,R44
		SLTU		R44, R52, R46
		SADD.M1		R43,R53,R45
		SADD.M1		R45,R46,R42
		SMOV.M1		R42, R45
		SMOV.M1		R44, R42
		SMOV.M1		R45, R43
		SMOV.M1		R42, R44
		SMOV.M1		R43, R45
	;no-op trunc di R45:R44 to pdi R45:R44
		SMOVIL		-168, R46
		SMOVIL		-1, R47
		SADDA.M1		R47:R46,AR14,AR10
		SNOP		1
		SLDDW		*AR10, R43:R42
		SNOP		5
		SMVAGA36.M1		R43:R42, OR11
		SNOP		1
		SADDA.M1		R45:R44,OR11,OR11
		SNOP		1
		SMVAAGL.M1		OR11, R43:R42
		SNOP		1
		SMVAAGH.M1		OR11, R43:R42
		SNOP		1
		SMVAGA36.M1		R43:R42, AR10
		SNOP		1
		SLDDW		*AR10, R43:R42
		SNOP		5
		SSTDW		R43:R42, *-AR14[15]
	.loc 1 165 0 discriminator 2
		SLDDW		*-AR14[12], R45:R44
		SNOP		5
		SLDDW		*-AR14[14], R43:R42
		SNOP		5
		SFMULD.M1		R45:R44, R43:R42, R47:R46
		SNOP		5
		SLDDW		*-AR14[13], R45:R44
		SNOP		5
		SLDDW		*-AR14[15], R43:R42
		SNOP		5
		SFMULD.M1		R45:R44, R43:R42, R43:R42
		SNOP		5
		SFSUBD.M1	R43:R42, R47:R46, R45:R44
		SNOP		4
		SLDDW		*-AR14[10], R43:R42
		SNOP		5
		SFADDD.M1		R43:R42, R45:R44, R43:R42
		SNOP		4
		SSTDW		R43:R42, *-AR14[10]
	.loc 1 166 0 discriminator 2
		SLDDW		*-AR14[12], R45:R44
		SNOP		5
		SLDDW		*-AR14[15], R43:R42
		SNOP		5
		SFMULD.M1		R45:R44, R43:R42, R47:R46
		SNOP		5
		SLDDW		*-AR14[13], R45:R44
		SNOP		5
		SLDDW		*-AR14[14], R43:R42
		SNOP		5
		SFMULD.M1		R45:R44, R43:R42, R43:R42
		SNOP		5
		SFADDD.M1		R47:R46, R43:R42, R45:R44
		SNOP		4
		SLDDW		*-AR14[11], R43:R42
		SNOP		5
		SFADDD.M1		R43:R42, R45:R44, R43:R42
		SNOP		4
		SSTDW		R43:R42, *-AR14[11]
	.loc 1 159 0 discriminator 2
		SMOVIL		-68, R44
		SMOVIL		-1, R45
		SADDA.M1		R45:R44,AR14,AR10
		SNOP		1
		SLDH		*AR10, R42
		SNOP		5
		SADD.M1		1,R42,R42
		SMOVIL		-68, R44
		SMOVIL		-1, R45
		SADDA.M1		R45:R44,AR14,AR10
		SNOP		1
		SSTH		R42, *AR10
.L42:
	.loc 1 159 0 is_stmt 0 discriminator 1
		SMOVIL		-68, R44
		SMOVIL		-1, R45
		SADDA.M1		R45:R44,AR14,AR10
		SNOP		1
		SLDH		*AR10, R42
		SNOP		5
		SSHFLL		16, R42, R44
		SSHFAR		16, R44, R44
		SMOVIL		-76, R42
		SMOVIL		-1, R43
		SMOVIL		-64, R46
		SMOVIL		-1, R47
		SADDA.M1		R47:R46,AR14,OR11
		SNOP		1
		SADDA.M1		R43:R42,OR11,OR11
		SNOP		1
		SMVAAGL.M1		OR11, R43:R42
		SNOP		1
		SMVAAGH.M1		OR11, R43:R42
		SNOP		1
		SMVAGA36.M1		R43:R42, AR10
		SNOP		1
		SLDW		*AR10, R42
		SNOP		5
		SLT		R44, R42, R42
		SMOV.M1		R42, R0
	[R0]	SBR		.L43
		SNOP		6
	.loc 1 168 0 is_stmt 1
		SMOVIL		-66, R44
		SMOVIL		-1, R45
		SADDA.M1		R45:R44,AR14,AR10
		SNOP		1
		SLDH		*AR10, R42
		SNOP		5
		SSHFLL		16, R42, R42
		SSHFAR		16, R42, R42
		SMOV.M1		R42, R24
		SSHFAR		31, R42, R42
		SMOV.M1		R42, R25
		SSHFLR		28, R24, R42
		SSHFLL		4, R25, R57
		SOR		R57, R42, R57
		SSHFLL		4, R24, R56
		SMOV.M1		R56, R44
		SMOV.M1		R57, R45
	;no-op trunc di R45:R44 to pdi R45:R44
		SMOVIL		-176, R46
		SMOVIL		-1, R47
		SADDA.M1		R47:R46,AR14,AR10
		SNOP		1
		SLDDW		*AR10, R43:R42
		SNOP		5
		SMVAGA36.M1		R43:R42, OR11
		SNOP		1
		SADDA.M1		R45:R44,OR11,OR11
		SNOP		1
		SMVAAGL.M1		OR11, R45:R44
		SNOP		1
		SMVAAGH.M1		OR11, R45:R44
		SNOP		1
		SLDDW		*-AR14[10], R43:R42
		SNOP		5
		SMVAGA36.M1		R45:R44, AR10
		SNOP		1
		SSTDW		R43:R42, *AR10
	.loc 1 169 0
		SMOVIL		-66, R44
		SMOVIL		-1, R45
		SADDA.M1		R45:R44,AR14,AR10
		SNOP		1
		SLDH		*AR10, R42
		SNOP		5
		SSHFLL		16, R42, R42
		SSHFAR		16, R42, R42
		SMOV.M1		R42, R58
		SSHFAR		31, R42, R42
		SMOV.M1		R42, R59
		SSHFLR		28, R58, R42
		SSHFLL		4, R59, R49
		SOR		R49, R42, R49
		SSHFLL		4, R58, R48
		SMOVIL		8, R42
		SMOVIL		0, R43
		SADD.M1		R42,R48,R44
		SLTU		R44, R48, R46
		SADD.M1		R43,R49,R45
		SADD.M1		R45,R46,R42
		SMOV.M1		R42, R45
		SMOV.M1		R44, R42
		SMOV.M1		R45, R43
		SMOV.M1		R42, R44
		SMOV.M1		R43, R45
	;no-op trunc di R45:R44 to pdi R45:R44
		SMOVIL		-176, R46
		SMOVIL		-1, R47
		SADDA.M1		R47:R46,AR14,AR10
		SNOP		1
		SLDDW		*AR10, R43:R42
		SNOP		5
		SMVAGA36.M1		R43:R42, OR11
		SNOP		1
		SADDA.M1		R45:R44,OR11,OR11
		SNOP		1
		SMVAAGL.M1		OR11, R45:R44
		SNOP		1
		SMVAAGH.M1		OR11, R45:R44
		SNOP		1
		SLDDW		*-AR14[11], R43:R42
		SNOP		5
		SMVAGA36.M1		R45:R44, AR10
		SNOP		1
		SSTDW		R43:R42, *AR10
	.loc 1 155 0
		SMOVIL		-66, R44
		SMOVIL		-1, R45
		SADDA.M1		R45:R44,AR14,AR10
		SNOP		1
		SLDH		*AR10, R42
		SNOP		5
		SADD.M1		1,R42,R42
		SMOVIL		-66, R44
		SMOVIL		-1, R45
		SADDA.M1		R45:R44,AR14,AR10
		SNOP		1
		SSTH		R42, *AR10
.L41:
	.loc 1 155 0 is_stmt 0 discriminator 1
		SMOVIL		-66, R44
		SMOVIL		-1, R45
		SADDA.M1		R45:R44,AR14,AR10
		SNOP		1
		SLDH		*AR10, R42
		SNOP		5
		SSHFLL		16, R42, R44
		SSHFAR		16, R44, R44
		SMOVIL		-76, R42
		SMOVIL		-1, R43
		SMOVIL		-64, R46
		SMOVIL		-1, R47
		SADDA.M1		R47:R46,AR14,OR11
		SNOP		1
		SADDA.M1		R43:R42,OR11,OR11
		SNOP		1
		SMVAAGL.M1		OR11, R43:R42
		SNOP		1
		SMVAAGH.M1		OR11, R43:R42
		SNOP		1
		SMVAGA36.M1		R43:R42, AR10
		SNOP		1
		SLDW		*AR10, R42
		SNOP		5
		SLT		R44, R42, R42
		SMOV.M1		R42, R0
	[R0]	SBR		.L44
		SNOP		6
	.loc 1 173 0 is_stmt 1
		SMOVIL		-76, R42
		SMOVIL		-1, R43
		SMOVIL		-64, R46
		SMOVIL		-1, R47
		SADDA.M1		R47:R46,AR14,OR11
		SNOP		1
		SADDA.M1		R43:R42,OR11,OR11
		SNOP		1
		SMVAAGL.M1		OR11, R45:R44
		SNOP		1
		SMVAAGH.M1		OR11, R45:R44
		SNOP		1
		SMOVIL		-80, R42
		SMOVIL		-1, R43
		SMOVIL		-64, R46
		SMOVIL		-1, R47
		SADDA.M1		R47:R46,AR14,OR11
		SNOP		1
		SADDA.M1		R43:R42,OR11,OR11
		SNOP		1
		SMVAAGL.M1		OR11, R43:R42
		SNOP		1
		SMVAAGH.M1		OR11, R43:R42
		SNOP		1
		SMVAGA36.M1		R45:R44, AR10
		SNOP		1
		SLDW		*AR10, R44
		SNOP		5
		SMVAGA36.M1		R43:R42, AR10
		SNOP		1
		SLDW		*AR10, R42
		SNOP		5
		SLT		R44, R42, R42
		SMOV.M1		R42, R0
	[R0]	SBR		.L45
		SNOP		6
	.loc 1 174 0
		SMOVIL		-80, R42
		SMOVIL		-1, R43
		SMOVIL		-64, R44
		SMOVIL		-1, R45
		SADDA.M1		R45:R44,AR14,OR11
		SNOP		1
		SADDA.M1		R43:R42,OR11,OR11
		SNOP		1
		SMVAAGL.M1		OR11, R43:R42
		SNOP		1
		SMVAAGH.M1		OR11, R43:R42
		SNOP		1
		SMVAGA36.M1		R43:R42, AR10
		SNOP		1
		SLDW		*AR10, R42
		SNOP		5
		SMOVIL		-70, R44
		SMOVIL		-1, R45
		SADDA.M1		R45:R44,AR14,AR10
		SNOP		1
		SSTH		R42, *AR10
		SBR		.L46
		SNOP		6
.L45:
	.loc 1 176 0
		SMOVIL		-76, R42
		SMOVIL		-1, R43
		SMOVIL		-64, R44
		SMOVIL		-1, R45
		SADDA.M1		R45:R44,AR14,OR11
		SNOP		1
		SADDA.M1		R43:R42,OR11,OR11
		SNOP		1
		SMVAAGL.M1		OR11, R43:R42
		SNOP		1
		SMVAAGH.M1		OR11, R43:R42
		SNOP		1
		SMVAGA36.M1		R43:R42, AR10
		SNOP		1
		SLDW		*AR10, R42
		SNOP		5
		SMOVIL		-70, R44
		SMOVIL		-1, R45
		SADDA.M1		R45:R44,AR14,AR10
		SNOP		1
		SSTH		R42, *AR10
.L46:
	.loc 1 177 0
		SMOVIL		-80, R42
		SMOVIL		-1, R43
		SMOVIL		-64, R44
		SMOVIL		-1, R45
		SADDA.M1		R45:R44,AR14,OR11
		SNOP		1
		SADDA.M1		R43:R42,OR11,OR11
		SNOP		1
		SMVAAGL.M1		OR11, R43:R42
		SNOP		1
		SMVAAGH.M1		OR11, R43:R42
		SNOP		1
		SMVAGA36.M1		R43:R42, AR10
		SNOP		1
		SLDW		*AR10, R54
		SNOP		5
		SMVAGA36.M1		R43:R42, AR10
		SNOP		1
		SLDW		*AR10, R42
		SNOP		5
		SSHFAR		31, R42, R42
		SMOV.M1		R42, R55
		SSHFLR		28, R54, R42
		SSHFLL		4, R55, R51
		SOR		R51, R42, R51
		SSHFLL		4, R54, R50
		SMOVIL		-184, R42
		SMOVIL		-1, R43
		SADDA.M1		R43:R42,AR14,AR10
		SNOP		1
		SLDDW		*AR10, R11:R10
		SNOP		5
		SMOVIL		0, R12
		SMOV.M1		R50, R14
		SMOV.M1		R51, R15
		SBR		memset
		SMOVIL		.L52, R62
		SMOVIH		.L52, R62
		SMOVIH4.L		.L52, R63
		SNOP		4
.L52:
	.loc 1 178 0
		SMOVIL		-70, R44
		SMOVIL		-1, R45
		SADDA.M1		R45:R44,AR14,AR10
		SNOP		1
		SLDH		*AR10, R42
		SNOP		5
		SADD.M1		-1,R42,R42
		SMOVIL		-66, R44
		SMOVIL		-1, R45
		SADDA.M1		R45:R44,AR14,AR10
		SNOP		1
		SSTH		R42, *AR10
		SBR		.L47
		SNOP		6
.L50:
	.loc 1 180 0
		SMOVIL		0, R42
		SMOVIL		0, R43
		SSTDW		R43:R42, *-AR14[10]
	.loc 1 181 0
		SMOVIL		0, R42
		SMOVIL		0, R43
		SSTDW		R43:R42, *-AR14[11]
	.loc 1 182 0
		SMOVIL		-66, R44
		SMOVIL		-1, R45
		SADDA.M1		R45:R44,AR14,AR10
		SNOP		1
		SLDH		*AR10, R42
		SNOP		5
		SADD.M1		1,R42,R42
		SMOVIL		-68, R44
		SMOVIL		-1, R45
		SADDA.M1		R45:R44,AR14,AR10
		SNOP		1
		SSTH		R42, *AR10
		SBR		.L48
		SNOP		6
.L49:
	.loc 1 184 0 discriminator 2
		SMOVIL		-68, R44
		SMOVIL		-1, R45
		SADDA.M1		R45:R44,AR14,AR10
		SNOP		1
		SLDH		*AR10, R42
		SNOP		5
		SSHFLL		16, R42, R42
		SSHFAR		16, R42, R42
		SMOVIL		-232, R44
		SMOVIL		-1, R45
		SADDA.M1		R45:R44,AR14,AR10
		SNOP		1
		SSTW		R42, *AR10
		SSHFAR		31, R42, R42
		SMOVIL		-228, R44
		SMOVIL		-1, R45
		SADDA.M1		R45:R44,AR14,AR10
		SNOP		1
		SSTW		R42, *AR10
		SMOVIL		-66, R44
		SMOVIL		-1, R45
		SADDA.M1		R45:R44,AR14,AR10
		SNOP		1
		SLDH		*AR10, R42
		SNOP		5
		SSHFLL		16, R42, R42
		SSHFAR		16, R42, R42
		SMOVIL		-240, R44
		SMOVIL		-1, R45
		SADDA.M1		R45:R44,AR14,AR10
		SNOP		1
		SSTW		R42, *AR10
		SSHFAR		31, R42, R42
		SMOVIL		-236, R44
		SMOVIL		-1, R45
		SADDA.M1		R45:R44,AR14,AR10
		SNOP		1
		SSTW		R42, *AR10
		SMOVIL		-80, R42
		SMOVIL		-1, R43
		SMOVIL		-64, R44
		SMOVIL		-1, R45
		SADDA.M1		R45:R44,AR14,OR11
		SNOP		1
		SADDA.M1		R43:R42,OR11,OR11
		SNOP		1
		SMVAAGL.M1		OR11, R43:R42
		SNOP		1
		SMVAAGH.M1		OR11, R43:R42
		SNOP		1
		SMVAGA36.M1		R43:R42, AR10
		SNOP		1
		SLDW		*AR10, R46
		SNOP		5
		SMOVIL		-248, R44
		SMOVIL		-1, R45
		SADDA.M1		R45:R44,AR14,AR10
		SNOP		1
		SSTW		R46, *AR10
		SMVAGA36.M1		R43:R42, AR10
		SNOP		1
		SLDW		*AR10, R42
		SNOP		5
		SSHFAR		31, R42, R42
		SMOVIL		-244, R44
		SMOVIL		-1, R45
		SADDA.M1		R45:R44,AR14,AR10
		SNOP		1
		SSTW		R42, *AR10
		SMOVIL		-236, R44
		SMOVIL		-1, R45
		SADDA.M1		R45:R44,AR14,AR10
		SNOP		1
		SLDW		*AR10, R42
		SNOP		5
		SMOVIL		-248, R44
		SMOVIL		-1, R45
		SADDA.M1		R45:R44,AR14,AR10
		SNOP		1
		SLDW		*AR10, R44
		SNOP		5
		SMULIS.M1		R44,R42,R43
		SNOP		2
		SMOVIL		-244, R44
		SMOVIL		-1, R45
		SADDA.M1		R45:R44,AR14,AR10
		SNOP		1
		SLDW		*AR10, R46
		SNOP		5
		SMOVIL		-240, R44
		SMOVIL		-1, R45
		SADDA.M1		R45:R44,AR14,AR10
		SNOP		1
		SLDW		*AR10, R44
		SNOP		5
		SMULIS.M1		R44,R46,R42
		SNOP		2
		SADD.M1		R42,R43,R42
		SMOVIL		-240, R46
		SMOVIL		-1, R47
		SADDA.M1		R47:R46,AR14,AR10
		SNOP		1
		SLDW		*AR10, R43
		SNOP		5
		SMOVIL		-248, R46
		SMOVIL		-1, R47
		SADDA.M1		R47:R46,AR14,AR10
		SNOP		1
		SLDW		*AR10, R46
		SNOP		5
		SMULU.M1		R46,R43,R45:R44
		SNOP		3
		SADD.M1		R45,R42,R42
		SMOV.M1		R42, R45
		SMOVIL		-232, R46
		SMOVIL		-1, R47
		SADDA.M1		R47:R46,AR14,AR10
		SNOP		1
		SLDW		*AR10, R46
		SNOP		5
		SADD.M1		R44,R46,R42
		SMOVIL		-232, R48
		SMOVIL		-1, R49
		SADDA.M1		R49:R48,AR14,AR10
		SNOP		1
		SLDW		*AR10, R47
		SNOP		5
		SLTU		R42, R47, R46
		SMOVIL		-228, R48
		SMOVIL		-1, R49
		SADDA.M1		R49:R48,AR14,AR10
		SNOP		1
		SLDW		*AR10, R47
		SNOP		5
		SADD.M1		R45,R47,R43
		SADD.M1		R43,R46,R44
		SMOV.M1		R44, R43
		SSHFLR		28, R42, R44
		SSHFLL		4, R43, R41
		SOR		R41, R44, R41
		SSHFLL		4, R42, R40
		SMOV.M1		R40, R42
		SMOV.M1		R41, R43
	;no-op trunc di R43:R42 to pdi R43:R42
		SMOVIL		-160, R46
		SMOVIL		-1, R47
		SADDA.M1		R47:R46,AR14,AR10
		SNOP		1
		SLDDW		*AR10, R45:R44
		SNOP		5
		SMVAGA36.M1		R45:R44, OR11
		SNOP		1
		SADDA.M1		R43:R42,OR11,OR11
		SNOP		1
		SMVAAGL.M1		OR11, R43:R42
		SNOP		1
		SMVAAGH.M1		OR11, R43:R42
		SNOP		1
		SMVAGA36.M1		R43:R42, AR10
		SNOP		1
		SLDDW		*AR10, R43:R42
		SNOP		5
		SSTDW		R43:R42, *-AR14[12]
	.loc 1 185 0 discriminator 2
		SMOVIL		-68, R44
		SMOVIL		-1, R45
		SADDA.M1		R45:R44,AR14,AR10
		SNOP		1
		SLDH		*AR10, R42
		SNOP		5
		SSHFLL		16, R42, R42
		SSHFAR		16, R42, R42
		SMOVIL		-256, R44
		SMOVIL		-1, R45
		SADDA.M1		R45:R44,AR14,AR10
		SNOP		1
		SSTW		R42, *AR10
		SSHFAR		31, R42, R42
		SMOVIL		-252, R44
		SMOVIL		-1, R45
		SADDA.M1		R45:R44,AR14,AR10
		SNOP		1
		SSTW		R42, *AR10
		SMOVIL		-66, R44
		SMOVIL		-1, R45
		SADDA.M1		R45:R44,AR14,AR10
		SNOP		1
		SLDH		*AR10, R42
		SNOP		5
		SSHFLL		16, R42, R42
		SSHFAR		16, R42, R42
		SMOVIL		-264, R44
		SMOVIL		-1, R45
		SADDA.M1		R45:R44,AR14,AR10
		SNOP		1
		SSTW		R42, *AR10
		SSHFAR		31, R42, R42
		SMOVIL		-260, R44
		SMOVIL		-1, R45
		SADDA.M1		R45:R44,AR14,AR10
		SNOP		1
		SSTW		R42, *AR10
		SMOVIL		-80, R42
		SMOVIL		-1, R43
		SMOVIL		-64, R44
		SMOVIL		-1, R45
		SADDA.M1		R45:R44,AR14,OR11
		SNOP		1
		SADDA.M1		R43:R42,OR11,OR11
		SNOP		1
		SMVAAGL.M1		OR11, R43:R42
		SNOP		1
		SMVAAGH.M1		OR11, R43:R42
		SNOP		1
		SMVAGA36.M1		R43:R42, AR10
		SNOP		1
		SLDW		*AR10, R46
		SNOP		5
		SMOVIL		-272, R44
		SMOVIL		-1, R45
		SADDA.M1		R45:R44,AR14,AR10
		SNOP		1
		SSTW		R46, *AR10
		SMVAGA36.M1		R43:R42, AR10
		SNOP		1
		SLDW		*AR10, R42
		SNOP		5
		SSHFAR		31, R42, R42
		SMOVIL		-268, R44
		SMOVIL		-1, R45
		SADDA.M1		R45:R44,AR14,AR10
		SNOP		1
		SSTW		R42, *AR10
		SMOVIL		-260, R44
		SMOVIL		-1, R45
		SADDA.M1		R45:R44,AR14,AR10
		SNOP		1
		SLDW		*AR10, R42
		SNOP		5
		SMOVIL		-272, R44
		SMOVIL		-1, R45
		SADDA.M1		R45:R44,AR14,AR10
		SNOP		1
		SLDW		*AR10, R44
		SNOP		5
		SMULIS.M1		R44,R42,R43
		SNOP		2
		SMOVIL		-268, R44
		SMOVIL		-1, R45
		SADDA.M1		R45:R44,AR14,AR10
		SNOP		1
		SLDW		*AR10, R46
		SNOP		5
		SMOVIL		-264, R44
		SMOVIL		-1, R45
		SADDA.M1		R45:R44,AR14,AR10
		SNOP		1
		SLDW		*AR10, R44
		SNOP		5
		SMULIS.M1		R44,R46,R42
		SNOP		2
		SADD.M1		R42,R43,R42
		SMOVIL		-264, R46
		SMOVIL		-1, R47
		SADDA.M1		R47:R46,AR14,AR10
		SNOP		1
		SLDW		*AR10, R43
		SNOP		5
		SMOVIL		-272, R46
		SMOVIL		-1, R47
		SADDA.M1		R47:R46,AR14,AR10
		SNOP		1
		SLDW		*AR10, R46
		SNOP		5
		SMULU.M1		R46,R43,R45:R44
		SNOP		3
		SADD.M1		R45,R42,R42
		SMOV.M1		R42, R45
		SMOVIL		-256, R46
		SMOVIL		-1, R47
		SADDA.M1		R47:R46,AR14,AR10
		SNOP		1
		SLDW		*AR10, R46
		SNOP		5
		SADD.M1		R44,R46,R42
		SMOVIL		-256, R48
		SMOVIL		-1, R49
		SADDA.M1		R49:R48,AR14,AR10
		SNOP		1
		SLDW		*AR10, R47
		SNOP		5
		SLTU		R42, R47, R46
		SMOVIL		-252, R48
		SMOVIL		-1, R49
		SADDA.M1		R49:R48,AR14,AR10
		SNOP		1
		SLDW		*AR10, R47
		SNOP		5
		SADD.M1		R45,R47,R43
		SADD.M1		R43,R46,R44
		SMOV.M1		R44, R43
		SSHFLR		28, R42, R44
		SSHFLL		4, R43, R31
		SOR		R31, R44, R31
		SSHFLL		4, R42, R30
		SMOVIL		8, R44
		SMOVIL		0, R45
		SADD.M1		R44,R30,R42
		SLTU		R42, R30, R46
		SADD.M1		R45,R31,R43
		SADD.M1		R43,R46,R44
		SMOV.M1		R44, R43
	;no-op trunc di R43:R42 to pdi R43:R42
		SMOVIL		-160, R46
		SMOVIL		-1, R47
		SADDA.M1		R47:R46,AR14,AR10
		SNOP		1
		SLDDW		*AR10, R45:R44
		SNOP		5
		SMVAGA36.M1		R45:R44, OR11
		SNOP		1
		SADDA.M1		R43:R42,OR11,OR11
		SNOP		1
		SMVAAGL.M1		OR11, R43:R42
		SNOP		1
		SMVAAGH.M1		OR11, R43:R42
		SNOP		1
		SMVAGA36.M1		R43:R42, AR10
		SNOP		1
		SLDDW		*AR10, R43:R42
		SNOP		5
		SSTDW		R43:R42, *-AR14[13]
	.loc 1 186 0 discriminator 2
		SMOVIL		-68, R44
		SMOVIL		-1, R45
		SADDA.M1		R45:R44,AR14,AR10
		SNOP		1
		SLDH		*AR10, R42
		SNOP		5
		SSHFLL		16, R42, R42
		SSHFAR		16, R42, R42
		SMOVIL		-280, R44
		SMOVIL		-1, R45
		SADDA.M1		R45:R44,AR14,AR10
		SNOP		1
		SSTW		R42, *AR10
		SSHFAR		31, R42, R42
		SMOVIL		-276, R44
		SMOVIL		-1, R45
		SADDA.M1		R45:R44,AR14,AR10
		SNOP		1
		SSTW		R42, *AR10
		SMOVIL		-280, R44
		SMOVIL		-1, R45
		SADDA.M1		R45:R44,AR14,AR10
		SNOP		1
		SLDW		*AR10, R43
		SNOP		5
		SSHFLR		28, R43, R42
		SMOVIL		-276, R44
		SMOVIL		-1, R45
		SADDA.M1		R45:R44,AR14,AR10
		SNOP		1
		SLDW		*AR10, R43
		SNOP		5
		SSHFLL		4, R43, R43
		SMOVIL		-284, R44
		SMOVIL		-1, R45
		SADDA.M1		R45:R44,AR14,AR10
		SNOP		1
		SSTW		R43, *AR10
		SMOVIL		-284, R44
		SMOVIL		-1, R45
		SADDA.M1		R45:R44,AR14,AR10
		SNOP		1
		SLDW		*AR10, R43
		SNOP		5
		SOR		R43, R42, R43
		SMOVIL		-284, R44
		SMOVIL		-1, R45
		SADDA.M1		R45:R44,AR14,AR10
		SNOP		1
		SSTW		R43, *AR10
		SMOVIL		-280, R42
		SMOVIL		-1, R43
		SADDA.M1		R43:R42,AR14,AR10
		SNOP		1
		SLDW		*AR10, R42
		SNOP		5
		SSHFLL		4, R42, R44
		SMOVIL		-288, R42
		SMOVIL		-1, R43
		SADDA.M1		R43:R42,AR14,AR10
		SNOP		1
		SSTW		R44, *AR10
		SMOVIL		-288, R44
		SMOVIL		-1, R45
		SADDA.M1		R45:R44,AR14,AR10
		SNOP		1
		SLDDW		*AR10, R43:R42
		SNOP		5
	;no-op trunc di R43:R42 to pdi R43:R42
		SMOVIL		-184, R46
		SMOVIL		-1, R47
		SADDA.M1		R47:R46,AR14,AR10
		SNOP		1
		SLDDW		*AR10, R45:R44
		SNOP		5
		SMVAGA36.M1		R45:R44, OR11
		SNOP		1
		SADDA.M1		R43:R42,OR11,OR11
		SNOP		1
		SMVAAGL.M1		OR11, R43:R42
		SNOP		1
		SMVAAGH.M1		OR11, R43:R42
		SNOP		1
		SMVAGA36.M1		R43:R42, AR10
		SNOP		1
		SLDDW		*AR10, R43:R42
		SNOP		5
		SSTDW		R43:R42, *-AR14[14]
	.loc 1 187 0 discriminator 2
		SMOVIL		-68, R44
		SMOVIL		-1, R45
		SADDA.M1		R45:R44,AR14,AR10
		SNOP		1
		SLDH		*AR10, R42
		SNOP		5
		SSHFLL		16, R42, R42
		SSHFAR		16, R42, R42
		SMOVIL		-296, R44
		SMOVIL		-1, R45
		SADDA.M1		R45:R44,AR14,AR10
		SNOP		1
		SSTW		R42, *AR10
		SSHFAR		31, R42, R42
		SMOVIL		-292, R44
		SMOVIL		-1, R45
		SADDA.M1		R45:R44,AR14,AR10
		SNOP		1
		SSTW		R42, *AR10
		SMOVIL		-296, R44
		SMOVIL		-1, R45
		SADDA.M1		R45:R44,AR14,AR10
		SNOP		1
		SLDW		*AR10, R43
		SNOP		5
		SSHFLR		28, R43, R42
		SMOVIL		-292, R44
		SMOVIL		-1, R45
		SADDA.M1		R45:R44,AR14,AR10
		SNOP		1
		SLDW		*AR10, R43
		SNOP		5
		SSHFLL		4, R43, R33
		SOR		R33, R42, R33
		SMOVIL		-296, R42
		SMOVIL		-1, R43
		SADDA.M1		R43:R42,AR14,AR10
		SNOP		1
		SLDW		*AR10, R42
		SNOP		5
		SSHFLL		4, R42, R32
		SMOVIL		8, R44
		SMOVIL		0, R45
		SADD.M1		R44,R32,R42
		SLTU		R42, R32, R46
		SADD.M1		R45,R33,R43
		SADD.M1		R43,R46,R44
		SMOV.M1		R44, R43
	;no-op trunc di R43:R42 to pdi R43:R42
		SMOVIL		-184, R46
		SMOVIL		-1, R47
		SADDA.M1		R47:R46,AR14,AR10
		SNOP		1
		SLDDW		*AR10, R45:R44
		SNOP		5
		SMVAGA36.M1		R45:R44, OR11
		SNOP		1
		SADDA.M1		R43:R42,OR11,OR11
		SNOP		1
		SMVAAGL.M1		OR11, R43:R42
		SNOP		1
		SMVAAGH.M1		OR11, R43:R42
		SNOP		1
		SMVAGA36.M1		R43:R42, AR10
		SNOP		1
		SLDDW		*AR10, R43:R42
		SNOP		5
		SSTDW		R43:R42, *-AR14[15]
	.loc 1 188 0 discriminator 2
		SLDDW		*-AR14[12], R45:R44
		SNOP		5
		SLDDW		*-AR14[14], R43:R42
		SNOP		5
		SFMULD.M1		R45:R44, R43:R42, R45:R44
		SNOP		5
		SLDDW		*-AR14[13], R47:R46
		SNOP		5
		SLDDW		*-AR14[15], R43:R42
		SNOP		5
		SFMULD.M1		R47:R46, R43:R42, R43:R42
		SNOP		5
		SFSUBD.M1	R43:R42, R45:R44, R43:R42
		SNOP		4
		SLDDW		*-AR14[10], R45:R44
		SNOP		5
		SFADDD.M1		R45:R44, R43:R42, R43:R42
		SNOP		4
		SSTDW		R43:R42, *-AR14[10]
	.loc 1 189 0 discriminator 2
		SLDDW		*-AR14[12], R45:R44
		SNOP		5
		SLDDW		*-AR14[15], R43:R42
		SNOP		5
		SFMULD.M1		R45:R44, R43:R42, R45:R44
		SNOP		5
		SLDDW		*-AR14[13], R47:R46
		SNOP		5
		SLDDW		*-AR14[14], R43:R42
		SNOP		5
		SFMULD.M1		R47:R46, R43:R42, R43:R42
		SNOP		5
		SFADDD.M1		R45:R44, R43:R42, R43:R42
		SNOP		4
		SLDDW		*-AR14[11], R45:R44
		SNOP		5
		SFADDD.M1		R45:R44, R43:R42, R43:R42
		SNOP		4
		SSTDW		R43:R42, *-AR14[11]
	.loc 1 182 0 discriminator 2
		SMOVIL		-68, R44
		SMOVIL		-1, R45
		SADDA.M1		R45:R44,AR14,AR10
		SNOP		1
		SLDH		*AR10, R42
		SNOP		5
		SADD.M1		1,R42,R42
		SMOVIL		-68, R44
		SMOVIL		-1, R45
		SADDA.M1		R45:R44,AR14,AR10
		SNOP		1
		SSTH		R42, *AR10
.L48:
	.loc 1 182 0 is_stmt 0 discriminator 1
		SMOVIL		-68, R44
		SMOVIL		-1, R45
		SADDA.M1		R45:R44,AR14,AR10
		SNOP		1
		SLDH		*AR10, R42
		SNOP		5
		SSHFLL		16, R42, R43
		SSHFAR		16, R43, R43
		SMOVIL		-70, R44
		SMOVIL		-1, R45
		SADDA.M1		R45:R44,AR14,AR10
		SNOP		1
		SLDH		*AR10, R42
		SNOP		5
		SSHFLL		16, R42, R42
		SSHFAR		16, R42, R42
		SLT		R43, R42, R42
		SMOV.M1		R42, R0
	[R0]	SBR		.L49
		SNOP		6
	.loc 1 191 0 is_stmt 1
		SMOVIL		-66, R44
		SMOVIL		-1, R45
		SADDA.M1		R45:R44,AR14,AR10
		SNOP		1
		SLDH		*AR10, R42
		SNOP		5
		SSHFLL		16, R42, R42
		SSHFAR		16, R42, R42
		SMOVIL		-304, R44
		SMOVIL		-1, R45
		SADDA.M1		R45:R44,AR14,AR10
		SNOP		1
		SSTW		R42, *AR10
		SSHFAR		31, R42, R42
		SMOVIL		-300, R44
		SMOVIL		-1, R45
		SADDA.M1		R45:R44,AR14,AR10
		SNOP		1
		SSTW		R42, *AR10
		SMOVIL		-304, R44
		SMOVIL		-1, R45
		SADDA.M1		R45:R44,AR14,AR10
		SNOP		1
		SLDW		*AR10, R43
		SNOP		5
		SSHFLR		28, R43, R42
		SMOVIL		-300, R44
		SMOVIL		-1, R45
		SADDA.M1		R45:R44,AR14,AR10
		SNOP		1
		SLDW		*AR10, R43
		SNOP		5
		SSHFLL		4, R43, R43
		SMOVIL		-308, R44
		SMOVIL		-1, R45
		SADDA.M1		R45:R44,AR14,AR10
		SNOP		1
		SSTW		R43, *AR10
		SMOVIL		-308, R44
		SMOVIL		-1, R45
		SADDA.M1		R45:R44,AR14,AR10
		SNOP		1
		SLDW		*AR10, R43
		SNOP		5
		SOR		R43, R42, R43
		SMOVIL		-308, R44
		SMOVIL		-1, R45
		SADDA.M1		R45:R44,AR14,AR10
		SNOP		1
		SSTW		R43, *AR10
		SMOVIL		-304, R42
		SMOVIL		-1, R43
		SADDA.M1		R43:R42,AR14,AR10
		SNOP		1
		SLDW		*AR10, R42
		SNOP		5
		SSHFLL		4, R42, R44
		SMOVIL		-312, R42
		SMOVIL		-1, R43
		SADDA.M1		R43:R42,AR14,AR10
		SNOP		1
		SSTW		R44, *AR10
		SMOVIL		-312, R44
		SMOVIL		-1, R45
		SADDA.M1		R45:R44,AR14,AR10
		SNOP		1
		SLDDW		*AR10, R43:R42
		SNOP		5
	;no-op trunc di R43:R42 to pdi R43:R42
		SMOVIL		-176, R46
		SMOVIL		-1, R47
		SADDA.M1		R47:R46,AR14,AR10
		SNOP		1
		SLDDW		*AR10, R45:R44
		SNOP		5
		SMVAGA36.M1		R45:R44, OR11
		SNOP		1
		SADDA.M1		R43:R42,OR11,OR11
		SNOP		1
		SMVAAGL.M1		OR11, R43:R42
		SNOP		1
		SMVAAGH.M1		OR11, R43:R42
		SNOP		1
		SMVAGA36.M1		R43:R42, AR10
		SNOP		1
		SLDDW		*AR10, R45:R44
		SNOP		5
		SLDDW		*-AR14[10], R43:R42
		SNOP		5
		SFSUBD.M1	R43:R42, R45:R44, R43:R42
		SNOP		4
		SSTDW		R43:R42, *-AR14[12]
	.loc 1 192 0
		SMOVIL		-66, R44
		SMOVIL		-1, R45
		SADDA.M1		R45:R44,AR14,AR10
		SNOP		1
		SLDH		*AR10, R42
		SNOP		5
		SSHFLL		16, R42, R42
		SSHFAR		16, R42, R42
		SMOVIL		-320, R44
		SMOVIL		-1, R45
		SADDA.M1		R45:R44,AR14,AR10
		SNOP		1
		SSTW		R42, *AR10
		SSHFAR		31, R42, R42
		SMOVIL		-316, R44
		SMOVIL		-1, R45
		SADDA.M1		R45:R44,AR14,AR10
		SNOP		1
		SSTW		R42, *AR10
		SMOVIL		-320, R44
		SMOVIL		-1, R45
		SADDA.M1		R45:R44,AR14,AR10
		SNOP		1
		SLDW		*AR10, R43
		SNOP		5
		SSHFLR		28, R43, R42
		SMOVIL		-316, R44
		SMOVIL		-1, R45
		SADDA.M1		R45:R44,AR14,AR10
		SNOP		1
		SLDW		*AR10, R43
		SNOP		5
		SSHFLL		4, R43, R35
		SOR		R35, R42, R35
		SMOVIL		-320, R42
		SMOVIL		-1, R43
		SADDA.M1		R43:R42,AR14,AR10
		SNOP		1
		SLDW		*AR10, R42
		SNOP		5
		SSHFLL		4, R42, R34
		SMOVIL		8, R44
		SMOVIL		0, R45
		SADD.M1		R44,R34,R42
		SLTU		R42, R34, R46
		SADD.M1		R45,R35,R43
		SADD.M1		R43,R46,R44
		SMOV.M1		R44, R43
	;no-op trunc di R43:R42 to pdi R43:R42
		SMOVIL		-176, R46
		SMOVIL		-1, R47
		SADDA.M1		R47:R46,AR14,AR10
		SNOP		1
		SLDDW		*AR10, R45:R44
		SNOP		5
		SMVAGA36.M1		R45:R44, OR11
		SNOP		1
		SADDA.M1		R43:R42,OR11,OR11
		SNOP		1
		SMVAAGL.M1		OR11, R43:R42
		SNOP		1
		SMVAAGH.M1		OR11, R43:R42
		SNOP		1
		SMVAGA36.M1		R43:R42, AR10
		SNOP		1
		SLDDW		*AR10, R45:R44
		SNOP		5
		SLDDW		*-AR14[11], R43:R42
		SNOP		5
		SFSUBD.M1	R43:R42, R45:R44, R43:R42
		SNOP		4
		SSTDW		R43:R42, *-AR14[13]
	.loc 1 193 0
		SMOVIL		-80, R42
		SMOVIL		-1, R43
		SMOVIL		-64, R44
		SMOVIL		-1, R45
		SADDA.M1		R45:R44,AR14,OR11
		SNOP		1
		SADDA.M1		R43:R42,OR11,OR11
		SNOP		1
		SMVAAGL.M1		OR11, R43:R42
		SNOP		1
		SMVAAGH.M1		OR11, R43:R42
		SNOP		1
		SMVAGA36.M1		R43:R42, AR10
		SNOP		1
		SLDW		*AR10, R46
		SNOP		5
		SMOVIL		-328, R44
		SMOVIL		-1, R45
		SADDA.M1		R45:R44,AR14,AR10
		SNOP		1
		SSTW		R46, *AR10
		SMVAGA36.M1		R43:R42, AR10
		SNOP		1
		SLDW		*AR10, R42
		SNOP		5
		SSHFAR		31, R42, R42
		SMOVIL		-324, R44
		SMOVIL		-1, R45
		SADDA.M1		R45:R44,AR14,AR10
		SNOP		1
		SSTW		R42, *AR10
		SMOVIL		1, R44
		SMOVIL		0, R45
		SMOVIL		-328, R46
		SMOVIL		-1, R47
		SADDA.M1		R47:R46,AR14,AR10
		SNOP		1
		SLDW		*AR10, R46
		SNOP		5
		SADD.M1		R44,R46,R42
		SMOVIL		-328, R48
		SMOVIL		-1, R49
		SADDA.M1		R49:R48,AR14,AR10
		SNOP		1
		SLDW		*AR10, R47
		SNOP		5
		SLTU		R42, R47, R46
		SMOVIL		-324, R48
		SMOVIL		-1, R49
		SADDA.M1		R49:R48,AR14,AR10
		SNOP		1
		SLDW		*AR10, R47
		SNOP		5
		SADD.M1		R45,R47,R43
		SADD.M1		R43,R46,R44
		SMOV.M1		R44, R43
		SMOVIL		-66, R46
		SMOVIL		-1, R47
		SADDA.M1		R47:R46,AR14,AR10
		SNOP		1
		SLDH		*AR10, R44
		SNOP		5
		SSHFLL		16, R44, R44
		SSHFAR		16, R44, R44
		SMOVIL		-336, R46
		SMOVIL		-1, R47
		SADDA.M1		R47:R46,AR14,AR10
		SNOP		1
		SSTW		R44, *AR10
		SSHFAR		31, R44, R44
		SMOVIL		-332, R46
		SMOVIL		-1, R47
		SADDA.M1		R47:R46,AR14,AR10
		SNOP		1
		SSTW		R44, *AR10
		SMOVIL		-336, R46
		SMOVIL		-1, R47
		SADDA.M1		R47:R46,AR14,AR10
		SNOP		1
		SLDW		*AR10, R44
		SNOP		5
		SMULIS.M1		R44,R43,R45
		SNOP		2
		SMOVIL		-332, R46
		SMOVIL		-1, R47
		SADDA.M1		R47:R46,AR14,AR10
		SNOP		1
		SLDW		*AR10, R46
		SNOP		5
		SMULIS.M1		R42,R46,R44
		SNOP		2
		SADD.M1		R44,R45,R44
		SMOVIL		-336, R46
		SMOVIL		-1, R47
		SADDA.M1		R47:R46,AR14,AR10
		SNOP		1
		SLDW		*AR10, R45
		SNOP		5
		SMULU.M1		R45,R42,R43:R42
		SNOP		3
		SADD.M1		R43,R44,R44
		SMOV.M1		R44, R43
		SSHFLR		28, R42, R44
		SSHFLL		4, R43, R45
		SMOVIL		-340, R46
		SMOVIL		-1, R47
		SADDA.M1		R47:R46,AR14,AR10
		SNOP		1
		SSTW		R45, *AR10
		SMOVIL		-340, R46
		SMOVIL		-1, R47
		SADDA.M1		R47:R46,AR14,AR10
		SNOP		1
		SLDW		*AR10, R45
		SNOP		5
		SOR		R45, R44, R45
		SMOVIL		-340, R46
		SMOVIL		-1, R47
		SADDA.M1		R47:R46,AR14,AR10
		SNOP		1
		SSTW		R45, *AR10
		SSHFLL		4, R42, R46
		SMOVIL		-344, R44
		SMOVIL		-1, R45
		SADDA.M1		R45:R44,AR14,AR10
		SNOP		1
		SSTW		R46, *AR10
		SMOVIL		-344, R44
		SMOVIL		-1, R45
		SADDA.M1		R45:R44,AR14,AR10
		SNOP		1
		SLDDW		*AR10, R43:R42
		SNOP		5
	;no-op trunc di R43:R42 to pdi R43:R42
		SMOVIL		-160, R46
		SMOVIL		-1, R47
		SADDA.M1		R47:R46,AR14,AR10
		SNOP		1
		SLDDW		*AR10, R45:R44
		SNOP		5
		SMVAGA36.M1		R45:R44, OR11
		SNOP		1
		SADDA.M1		R43:R42,OR11,OR11
		SNOP		1
		SMVAAGL.M1		OR11, R43:R42
		SNOP		1
		SMVAAGH.M1		OR11, R43:R42
		SNOP		1
		SMVAGA36.M1		R43:R42, AR10
		SNOP		1
		SLDDW		*AR10, R43:R42
		SNOP		5
		SSTDW		R43:R42, *-AR14[14]
	.loc 1 194 0
		SMOVIL		-80, R42
		SMOVIL		-1, R43
		SMOVIL		-64, R44
		SMOVIL		-1, R45
		SADDA.M1		R45:R44,AR14,OR11
		SNOP		1
		SADDA.M1		R43:R42,OR11,OR11
		SNOP		1
		SMVAAGL.M1		OR11, R43:R42
		SNOP		1
		SMVAAGH.M1		OR11, R43:R42
		SNOP		1
		SMVAGA36.M1		R43:R42, AR10
		SNOP		1
		SLDW		*AR10, R46
		SNOP		5
		SMOVIL		-352, R44
		SMOVIL		-1, R45
		SADDA.M1		R45:R44,AR14,AR10
		SNOP		1
		SSTW		R46, *AR10
		SMVAGA36.M1		R43:R42, AR10
		SNOP		1
		SLDW		*AR10, R42
		SNOP		5
		SSHFAR		31, R42, R42
		SMOVIL		-348, R44
		SMOVIL		-1, R45
		SADDA.M1		R45:R44,AR14,AR10
		SNOP		1
		SSTW		R42, *AR10
		SMOVIL		1, R44
		SMOVIL		0, R45
		SMOVIL		-352, R46
		SMOVIL		-1, R47
		SADDA.M1		R47:R46,AR14,AR10
		SNOP		1
		SLDW		*AR10, R46
		SNOP		5
		SADD.M1		R44,R46,R42
		SMOVIL		-352, R48
		SMOVIL		-1, R49
		SADDA.M1		R49:R48,AR14,AR10
		SNOP		1
		SLDW		*AR10, R47
		SNOP		5
		SLTU		R42, R47, R46
		SMOVIL		-348, R48
		SMOVIL		-1, R49
		SADDA.M1		R49:R48,AR14,AR10
		SNOP		1
		SLDW		*AR10, R47
		SNOP		5
		SADD.M1		R45,R47,R43
		SADD.M1		R43,R46,R44
		SMOV.M1		R44, R43
		SMOVIL		-66, R46
		SMOVIL		-1, R47
		SADDA.M1		R47:R46,AR14,AR10
		SNOP		1
		SLDH		*AR10, R44
		SNOP		5
		SSHFLL		16, R44, R44
		SSHFAR		16, R44, R44
		SMOVIL		-360, R46
		SMOVIL		-1, R47
		SADDA.M1		R47:R46,AR14,AR10
		SNOP		1
		SSTW		R44, *AR10
		SSHFAR		31, R44, R44
		SMOVIL		-356, R46
		SMOVIL		-1, R47
		SADDA.M1		R47:R46,AR14,AR10
		SNOP		1
		SSTW		R44, *AR10
		SMOVIL		-360, R46
		SMOVIL		-1, R47
		SADDA.M1		R47:R46,AR14,AR10
		SNOP		1
		SLDW		*AR10, R44
		SNOP		5
		SMULIS.M1		R44,R43,R45
		SNOP		2
		SMOVIL		-356, R46
		SMOVIL		-1, R47
		SADDA.M1		R47:R46,AR14,AR10
		SNOP		1
		SLDW		*AR10, R46
		SNOP		5
		SMULIS.M1		R42,R46,R44
		SNOP		2
		SADD.M1		R44,R45,R44
		SMOVIL		-360, R46
		SMOVIL		-1, R47
		SADDA.M1		R47:R46,AR14,AR10
		SNOP		1
		SLDW		*AR10, R45
		SNOP		5
		SMULU.M1		R45,R42,R43:R42
		SNOP		3
		SADD.M1		R43,R44,R44
		SMOV.M1		R44, R43
		SSHFLR		28, R42, R44
		SSHFLL		4, R43, R37
		SOR		R37, R44, R37
		SSHFLL		4, R42, R36
		SMOVIL		8, R44
		SMOVIL		0, R45
		SADD.M1		R44,R36,R42
		SLTU		R42, R36, R46
		SADD.M1		R45,R37,R43
		SADD.M1		R43,R46,R44
		SMOV.M1		R44, R43
	;no-op trunc di R43:R42 to pdi R43:R42
		SMOVIL		-160, R46
		SMOVIL		-1, R47
		SADDA.M1		R47:R46,AR14,AR10
		SNOP		1
		SLDDW		*AR10, R45:R44
		SNOP		5
		SMVAGA36.M1		R45:R44, OR11
		SNOP		1
		SADDA.M1		R43:R42,OR11,OR11
		SNOP		1
		SMVAAGL.M1		OR11, R43:R42
		SNOP		1
		SMVAAGH.M1		OR11, R43:R42
		SNOP		1
		SMVAGA36.M1		R43:R42, AR10
		SNOP		1
		SLDDW		*AR10, R43:R42
		SNOP		5
		SSTDW		R43:R42, *-AR14[15]
	.loc 1 195 0
		SMOVIL		-64, R42
		SMOVIL		-1, R43
		SMOVIL		-64, R46
		SMOVIL		-1, R47
		SADDA.M1		R47:R46,AR14,OR11
		SNOP		1
		SADDA.M1		R43:R42,OR11,OR11
		SNOP		1
		SMVAAGL.M1		OR11, R45:R44
		SNOP		1
		SMVAAGH.M1		OR11, R45:R44
		SNOP		1
		SMOVIL		-72, R42
		SMOVIL		-1, R43
		SMOVIL		-64, R46
		SMOVIL		-1, R47
		SADDA.M1		R47:R46,AR14,OR11
		SNOP		1
		SADDA.M1		R43:R42,OR11,OR11
		SNOP		1
		SMVAAGL.M1		OR11, R43:R42
		SNOP		1
		SMVAAGH.M1		OR11, R43:R42
		SNOP		1
		SLDDW		*-AR14[12], R11:R10
		SNOP		5
		SLDDW		*-AR14[13], R13:R12
		SNOP		5
		SLDDW		*-AR14[14], R15:R14
		SNOP		5
		SLDDW		*-AR14[15], R17:R16
		SNOP		5
		SMVAGA36.M1		R45:R44, OR11
		SNOP		1
		SMVAAGL.M1		OR11, R19:R18
		SNOP		1
		SMVAAGH.M1		OR11, R19:R18
		SNOP		1
		SMVAGA36.M1		R43:R42, OR11
		SNOP		1
		SMVAAGL.M1		OR11, R21:R20
		SNOP		1
		SMVAAGH.M1		OR11, R21:R20
		SNOP		1
		SBR		complex_sp_div_cn
		SMOVIL		.L53, R62
		SMOVIH		.L53, R62
		SMOVIH4.L		.L53, R63
		SNOP		4
.L53:
	.loc 1 196 0
		SMOVIL		-66, R44
		SMOVIL		-1, R45
		SADDA.M1		R45:R44,AR14,AR10
		SNOP		1
		SLDH		*AR10, R42
		SNOP		5
		SSHFLL		16, R42, R42
		SSHFAR		16, R42, R42
		SMOVIL		-368, R44
		SMOVIL		-1, R45
		SADDA.M1		R45:R44,AR14,AR10
		SNOP		1
		SSTW		R42, *AR10
		SSHFAR		31, R42, R42
		SMOVIL		-364, R44
		SMOVIL		-1, R45
		SADDA.M1		R45:R44,AR14,AR10
		SNOP		1
		SSTW		R42, *AR10
		SMOVIL		-368, R44
		SMOVIL		-1, R45
		SADDA.M1		R45:R44,AR14,AR10
		SNOP		1
		SLDW		*AR10, R43
		SNOP		5
		SSHFLR		28, R43, R42
		SMOVIL		-364, R44
		SMOVIL		-1, R45
		SADDA.M1		R45:R44,AR14,AR10
		SNOP		1
		SLDW		*AR10, R43
		SNOP		5
		SSHFLL		4, R43, R43
		SMOVIL		-372, R44
		SMOVIL		-1, R45
		SADDA.M1		R45:R44,AR14,AR10
		SNOP		1
		SSTW		R43, *AR10
		SMOVIL		-372, R44
		SMOVIL		-1, R45
		SADDA.M1		R45:R44,AR14,AR10
		SNOP		1
		SLDW		*AR10, R43
		SNOP		5
		SOR		R43, R42, R43
		SMOVIL		-372, R44
		SMOVIL		-1, R45
		SADDA.M1		R45:R44,AR14,AR10
		SNOP		1
		SSTW		R43, *AR10
		SMOVIL		-368, R42
		SMOVIL		-1, R43
		SADDA.M1		R43:R42,AR14,AR10
		SNOP		1
		SLDW		*AR10, R42
		SNOP		5
		SSHFLL		4, R42, R44
		SMOVIL		-376, R42
		SMOVIL		-1, R43
		SADDA.M1		R43:R42,AR14,AR10
		SNOP		1
		SSTW		R44, *AR10
		SMOVIL		-376, R44
		SMOVIL		-1, R45
		SADDA.M1		R45:R44,AR14,AR10
		SNOP		1
		SLDDW		*AR10, R43:R42
		SNOP		5
	;no-op trunc di R43:R42 to pdi R43:R42
		SMOVIL		-184, R46
		SMOVIL		-1, R47
		SADDA.M1		R47:R46,AR14,AR10
		SNOP		1
		SLDDW		*AR10, R45:R44
		SNOP		5
		SMVAGA36.M1		R45:R44, OR11
		SNOP		1
		SADDA.M1		R43:R42,OR11,OR11
		SNOP		1
		SMVAAGL.M1		OR11, R43:R42
		SNOP		1
		SMVAAGH.M1		OR11, R43:R42
		SNOP		1
		SMOVIL		-128, R46
		SMOVIL		-1, R47
		SADDA.M1		R47:R46,AR14,AR10
		SNOP		1
		SLDDW		*AR10, R45:R44
		SNOP		5
		SMVAGA36.M1		R43:R42, AR10
		SNOP		1
		SSTDW		R45:R44, *AR10
	.loc 1 197 0
		SMOVIL		-66, R44
		SMOVIL		-1, R45
		SADDA.M1		R45:R44,AR14,AR10
		SNOP		1
		SLDH		*AR10, R42
		SNOP		5
		SSHFLL		16, R42, R42
		SSHFAR		16, R42, R42
		SMOVIL		-384, R44
		SMOVIL		-1, R45
		SADDA.M1		R45:R44,AR14,AR10
		SNOP		1
		SSTW		R42, *AR10
		SSHFAR		31, R42, R42
		SMOVIL		-380, R44
		SMOVIL		-1, R45
		SADDA.M1		R45:R44,AR14,AR10
		SNOP		1
		SSTW		R42, *AR10
		SMOVIL		-384, R44
		SMOVIL		-1, R45
		SADDA.M1		R45:R44,AR14,AR10
		SNOP		1
		SLDW		*AR10, R43
		SNOP		5
		SSHFLR		28, R43, R42
		SMOVIL		-380, R44
		SMOVIL		-1, R45
		SADDA.M1		R45:R44,AR14,AR10
		SNOP		1
		SLDW		*AR10, R43
		SNOP		5
		SSHFLL		4, R43, R39
		SOR		R39, R42, R39
		SMOVIL		-384, R42
		SMOVIL		-1, R43
		SADDA.M1		R43:R42,AR14,AR10
		SNOP		1
		SLDW		*AR10, R42
		SNOP		5
		SSHFLL		4, R42, R38
		SMOVIL		8, R44
		SMOVIL		0, R45
		SADD.M1		R44,R38,R42
		SLTU		R42, R38, R46
		SADD.M1		R45,R39,R43
		SADD.M1		R43,R46,R44
		SMOV.M1		R44, R43
	;no-op trunc di R43:R42 to pdi R43:R42
		SMOVIL		-184, R46
		SMOVIL		-1, R47
		SADDA.M1		R47:R46,AR14,AR10
		SNOP		1
		SLDDW		*AR10, R45:R44
		SNOP		5
		SMVAGA36.M1		R45:R44, OR11
		SNOP		1
		SADDA.M1		R43:R42,OR11,OR11
		SNOP		1
		SMVAAGL.M1		OR11, R43:R42
		SNOP		1
		SMVAAGH.M1		OR11, R43:R42
		SNOP		1
		SMOVIL		-136, R46
		SMOVIL		-1, R47
		SADDA.M1		R47:R46,AR14,AR10
		SNOP		1
		SLDDW		*AR10, R45:R44
		SNOP		5
		SMVAGA36.M1		R43:R42, AR10
		SNOP		1
		SSTDW		R45:R44, *AR10
	.loc 1 178 0
		SMOVIL		-66, R44
		SMOVIL		-1, R45
		SADDA.M1		R45:R44,AR14,AR10
		SNOP		1
		SLDH		*AR10, R42
		SNOP		5
		SADD.M1		-1,R42,R42
		SMOVIL		-66, R44
		SMOVIL		-1, R45
		SADDA.M1		R45:R44,AR14,AR10
		SNOP		1
		SSTH		R42, *AR10
.L47:
	.loc 1 178 0 is_stmt 0 discriminator 1
		SMOVIL		-66, R44
		SMOVIL		-1, R45
		SADDA.M1		R45:R44,AR14,AR10
		SNOP		1
		SLDH		*AR10, R42
		SNOP		5
		SSHFLL		16, R42, R42
		SSHFAR		16, R42, R42
		SMOVIL		0, R0
		SLT		R42, R0, R42
		SMOV.M1		R42, R0
	[!R0]	SBR		.L50
		SNOP		6
	.loc 1 200 0 is_stmt 1
		SMOVIL		0, R42
	.loc 1 201 0
		SMOV.M1		R42, R10
		SLDDW		*+AR15[42], R31:R30
		SNOP		5
		SLDDW		*+AR15[43], R33:R32
		SNOP		5
		SLDDW		*+AR15[44], R35:R34
		SNOP		5
		SLDDW		*+AR15[45], R37:R36
		SNOP		5
		SLDDW		*+AR15[46], R39:R38
		SNOP		5
		SLDDW		*+AR15[47], R41:R40
		SNOP		5
		SLDDW		*+AR15[48], R63:R62
		SNOP		5
		SADDA.M1		-16,AR14,AR15
		SNOP		1
		SLDDW		*++AR15[2], R7:R6
		SNOP		5
		SMVAGA36.M1		R7:R6, AR14
		SNOP		1
		SMVCGC.L		R63, BRReg
		SNOP		1
		SBR		R62
		SNOP		6
	.cfi_endproc
.LFE1:
	.size	DSPF_dp_qrd_solver_cmplx_cn, .-DSPF_dp_qrd_solver_cmplx_cn
	.section	.text.DSPF_dp_qrd_inverse_cmplx_cn,"ax",@progbits
	.align	2
	.global	DSPF_dp_qrd_inverse_cmplx_cn
	.type	DSPF_dp_qrd_inverse_cmplx_cn, @function
DSPF_dp_qrd_inverse_cmplx_cn:
.LFB2:
	.loc 1 204 0
	.cfi_startproc
		SMVAAGL.M1		AR14, R7:R6
		SNOP		1
		SMVAAGH.M1		AR14, R7:R6
		SNOP		1
		SSTDW		R7:R6, *AR15--[2]
.LCFI4:
	.cfi_def_cfa_offset 16
	.cfi_offset 14, 0
		SADDA.M1		16,AR15,AR14
.LCFI5:
	.cfi_def_cfa 14, 0
		SNOP		1
		SMOVIL		-1216, R6
		SMOVIL		-1, R7
		SADDA.M1		R7:R6,AR15,AR15
		SNOP		1
		SSTDW		R63:R62, *+AR15[152]
		SSTDW		R41:R40, *+AR15[151]
		SSTDW		R39:R38, *+AR15[150]
		SSTDW		R37:R36, *+AR15[149]
		SSTDW		R35:R34, *+AR15[148]
		SSTDW		R33:R32, *+AR15[147]
		SSTDW		R31:R30, *+AR15[146]
	.cfi_offset 78, -16
	.cfi_offset 79, -12
	.cfi_offset 56, -24
	.cfi_offset 57, -20
	.cfi_offset 54, -32
	.cfi_offset 55, -28
	.cfi_offset 52, -40
	.cfi_offset 53, -36
	.cfi_offset 50, -48
	.cfi_offset 51, -44
	.cfi_offset 48, -56
	.cfi_offset 49, -52
	.cfi_offset 46, -64
	.cfi_offset 47, -60
		SMOVIL		-100, R42
		SMOVIL		-1, R43
		SMOVIL		-64, R44
		SMOVIL		-1, R45
		SADDA.M1		R45:R44,AR14,OR11
		SNOP		1
		SADDA.M1		R43:R42,OR11,OR11
		SNOP		1
		SMVAAGL.M1		OR11, R43:R42
		SNOP		1
		SMVAAGH.M1		OR11, R43:R42
		SNOP		1
		SMVAGA36.M1		R43:R42, AR10
		SNOP		1
		SSTW		R10, *AR10
		SMOVIL		-104, R42
		SMOVIL		-1, R43
		SMOVIL		-64, R44
		SMOVIL		-1, R45
		SADDA.M1		R45:R44,AR14,OR11
		SNOP		1
		SADDA.M1		R43:R42,OR11,OR11
		SNOP		1
		SMVAAGL.M1		OR11, R43:R42
		SNOP		1
		SMVAAGH.M1		OR11, R43:R42
		SNOP		1
		SMVAGA36.M1		R43:R42, AR10
		SNOP		1
		SSTW		R12, *AR10
		SMOVIL		-176, R42
		SMOVIL		-1, R43
		SADDA.M1		R43:R42,AR14,AR10
		SNOP		1
		SSTDW		R15:R14, *AR10
		SMOVIL		-184, R42
		SMOVIL		-1, R43
		SADDA.M1		R43:R42,AR14,AR10
		SNOP		1
		SSTDW		R17:R16, *AR10
		SMOVIL		-128, R42
		SMOVIL		-1, R43
		SMOVIL		-64, R44
		SMOVIL		-1, R45
		SADDA.M1		R45:R44,AR14,OR11
		SNOP		1
		SADDA.M1		R43:R42,OR11,OR11
		SNOP		1
		SMVAAGL.M1		OR11, R43:R42
		SNOP		1
		SMVAAGH.M1		OR11, R43:R42
		SNOP		1
		SMVAGA36.M1		R43:R42, AR10
		SNOP		1
		SSTDW		R19:R18, *AR10
	.loc 1 210 0
		SMOVIL		0, R42
		SMOVIL		-68, R44
		SMOVIL		-1, R45
		SADDA.M1		R45:R44,AR14,AR10
		SNOP		1
		SSTW		R42, *AR10
		SBR		.L55
		SNOP		6
.L60:
	.loc 1 212 0
		SMOVIL		0, R42
		SMOVIL		-72, R44
		SMOVIL		-1, R45
		SADDA.M1		R45:R44,AR14,AR10
		SNOP		1
		SSTW		R42, *AR10
		SBR		.L56
		SNOP		6
.L59:
	.loc 1 214 0
		SMOVIL		-68, R44
		SMOVIL		-1, R45
		SADDA.M1		R45:R44,AR14,AR10
		SNOP		1
		SLDW		*AR10, R43
		SNOP		5
		SMOVIL		-72, R44
		SMOVIL		-1, R45
		SADDA.M1		R45:R44,AR14,AR10
		SNOP		1
		SLDW		*AR10, R42
		SNOP		5
		SEQ		R42, R43, R42
		SMOV.M1		R42, R0
	[!R0]	SBR		.L57
		SNOP		6
	.loc 1 216 0
		SMOVIL		-72, R42
		SMOVIL		-1, R43
		SADDA.M1		R43:R42,AR14,AR10
		SNOP		1
		SLDW		*AR10, R34
		SNOP		5
		SMOVIL		-72, R44
		SMOVIL		-1, R45
		SADDA.M1		R45:R44,AR14,AR10
		SNOP		1
		SLDW		*AR10, R42
		SNOP		5
		SSHFAR		31, R42, R42
		SMOV.M1		R42, R35
		SMOVIL		-68, R42
		SMOVIL		-1, R43
		SADDA.M1		R43:R42,AR14,AR10
		SNOP		1
		SLDW		*AR10, R30
		SNOP		5
		SMOVIL		-68, R44
		SMOVIL		-1, R45
		SADDA.M1		R45:R44,AR14,AR10
		SNOP		1
		SLDW		*AR10, R42
		SNOP		5
		SSHFAR		31, R42, R42
		SMOV.M1		R42, R31
		SMOVIL		-104, R42
		SMOVIL		-1, R43
		SMOVIL		-64, R44
		SMOVIL		-1, R45
		SADDA.M1		R45:R44,AR14,OR11
		SNOP		1
		SADDA.M1		R43:R42,OR11,OR11
		SNOP		1
		SMVAAGL.M1		OR11, R43:R42
		SNOP		1
		SMVAAGH.M1		OR11, R43:R42
		SNOP		1
		SMVAGA36.M1		R43:R42, AR10
		SNOP		1
		SLDW		*AR10, R28
		SNOP		5
		SMVAGA36.M1		R43:R42, AR10
		SNOP		1
		SLDW		*AR10, R42
		SNOP		5
		SSHFAR		31, R42, R42
		SMOV.M1		R42, R29
		SMULIS.M1		R28,R31,R43
		SNOP		2
		SMULIS.M1		R30,R29,R42
		SNOP		2
		SADD.M1		R42,R43,R44
		SMULU.M1		R28,R30,R43:R42
		SNOP		3
		SADD.M1		R43,R44,R44
		SMOV.M1		R44, R43
		SADD.M1		R42,R34,R44
		SLTU		R44, R34, R46
		SADD.M1		R43,R35,R45
		SADD.M1		R45,R46,R42
		SMOV.M1		R42, R45
		SMOV.M1		R44, R42
		SMOV.M1		R45, R43
		SSHFLR		28, R42, R44
		SSHFLL		4, R43, R25
		SOR		R25, R44, R25
		SSHFLL		4, R42, R24
		SMOVIL		-128, R42
		SMOVIL		-1, R43
		SMOVIL		-64, R44
		SMOVIL		-1, R45
		SADDA.M1		R45:R44,AR14,OR11
		SNOP		1
		SADDA.M1		R43:R42,OR11,OR11
		SNOP		1
		SMVAAGL.M1		OR11, R43:R42
		SNOP		1
		SMVAAGH.M1		OR11, R43:R42
		SNOP		1
		SMOV.M1		R24, R44
		SMOV.M1		R25, R45
	;no-op trunc di R45:R44 to pdi R45:R44
		SMVAGA36.M1		R43:R42, AR10
		SNOP		1
		SLDDW		*AR10, R43:R42
		SNOP		5
		SMVAGA36.M1		R43:R42, OR11
		SNOP		1
		SADDA.M1		R45:R44,OR11,OR11
		SNOP		1
		SMVAAGL.M1		OR11, R45:R44
		SNOP		1
		SMVAAGH.M1		OR11, R45:R44
		SNOP		1
		SMOVIL		0, R42
		SMOVIL		1072693248, R43
		SMOVIH		1072693248, R43
		SMVAGA36.M1		R45:R44, AR10
		SNOP		1
		SSTDW		R43:R42, *AR10
	.loc 1 217 0
		SMOVIL		-72, R42
		SMOVIL		-1, R43
		SADDA.M1		R43:R42,AR14,AR10
		SNOP		1
		SLDW		*AR10, R20
		SNOP		5
		SMOVIL		-72, R44
		SMOVIL		-1, R45
		SADDA.M1		R45:R44,AR14,AR10
		SNOP		1
		SLDW		*AR10, R42
		SNOP		5
		SSHFAR		31, R42, R42
		SMOV.M1		R42, R21
		SMOVIL		-68, R42
		SMOVIL		-1, R43
		SADDA.M1		R43:R42,AR14,AR10
		SNOP		1
		SLDW		*AR10, R58
		SNOP		5
		SMOVIL		-68, R44
		SMOVIL		-1, R45
		SADDA.M1		R45:R44,AR14,AR10
		SNOP		1
		SLDW		*AR10, R42
		SNOP		5
		SSHFAR		31, R42, R42
		SMOV.M1		R42, R59
		SMOVIL		-104, R42
		SMOVIL		-1, R43
		SMOVIL		-64, R44
		SMOVIL		-1, R45
		SADDA.M1		R45:R44,AR14,OR11
		SNOP		1
		SADDA.M1		R43:R42,OR11,OR11
		SNOP		1
		SMVAAGL.M1		OR11, R43:R42
		SNOP		1
		SMVAAGH.M1		OR11, R43:R42
		SNOP		1
		SMVAGA36.M1		R43:R42, AR10
		SNOP		1
		SLDW		*AR10, R54
		SNOP		5
		SMVAGA36.M1		R43:R42, AR10
		SNOP		1
		SLDW		*AR10, R42
		SNOP		5
		SSHFAR		31, R42, R42
		SMOV.M1		R42, R55
		SMULIS.M1		R54,R59,R43
		SNOP		2
		SMULIS.M1		R58,R55,R42
		SNOP		2
		SADD.M1		R42,R43,R44
		SMULU.M1		R54,R58,R43:R42
		SNOP		3
		SADD.M1		R43,R44,R44
		SMOV.M1		R44, R43
		SADD.M1		R42,R20,R44
		SLTU		R44, R20, R46
		SADD.M1		R43,R21,R45
		SADD.M1		R45,R46,R42
		SMOV.M1		R42, R45
		SMOV.M1		R44, R42
		SMOV.M1		R45, R43
		SSHFLR		28, R42, R44
		SSHFLL		4, R43, R51
		SOR		R51, R44, R51
		SSHFLL		4, R42, R50
		SMOVIL		8, R42
		SMOVIL		0, R43
		SADD.M1		R42,R50,R44
		SLTU		R44, R50, R46
		SADD.M1		R43,R51,R45
		SADD.M1		R45,R46,R42
		SMOV.M1		R42, R45
		SMOVIL		-128, R42
		SMOVIL		-1, R43
		SMOVIL		-64, R46
		SMOVIL		-1, R47
		SADDA.M1		R47:R46,AR14,OR11
		SNOP		1
		SADDA.M1		R43:R42,OR11,OR11
		SNOP		1
		SMVAAGL.M1		OR11, R43:R42
		SNOP		1
		SMVAAGH.M1		OR11, R43:R42
		SNOP		1
	;no-op trunc di R45:R44 to pdi R45:R44
		SMVAGA36.M1		R43:R42, AR10
		SNOP		1
		SLDDW		*AR10, R43:R42
		SNOP		5
		SMVAGA36.M1		R43:R42, OR11
		SNOP		1
		SADDA.M1		R45:R44,OR11,OR11
		SNOP		1
		SMVAAGL.M1		OR11, R45:R44
		SNOP		1
		SMVAAGH.M1		OR11, R45:R44
		SNOP		1
		SMOVIL		0, R42
		SMOVIL		0, R43
		SMVAGA36.M1		R45:R44, AR10
		SNOP		1
		SSTDW		R43:R42, *AR10
		SBR		.L58
		SNOP		6
.L57:
	.loc 1 221 0
		SMOVIL		-72, R42
		SMOVIL		-1, R43
		SADDA.M1		R43:R42,AR14,AR10
		SNOP		1
		SLDW		*AR10, R32
		SNOP		5
		SMOVIL		-72, R44
		SMOVIL		-1, R45
		SADDA.M1		R45:R44,AR14,AR10
		SNOP		1
		SLDW		*AR10, R42
		SNOP		5
		SSHFAR		31, R42, R42
		SMOV.M1		R42, R33
		SMOVIL		-68, R42
		SMOVIL		-1, R43
		SADDA.M1		R43:R42,AR14,AR10
		SNOP		1
		SLDW		*AR10, R8
		SNOP		5
		SMOVIL		-68, R44
		SMOVIL		-1, R45
		SADDA.M1		R45:R44,AR14,AR10
		SNOP		1
		SLDW		*AR10, R42
		SNOP		5
		SSHFAR		31, R42, R42
		SMOV.M1		R42, R9
		SMOVIL		-104, R42
		SMOVIL		-1, R43
		SMOVIL		-64, R44
		SMOVIL		-1, R45
		SADDA.M1		R45:R44,AR14,OR11
		SNOP		1
		SADDA.M1		R43:R42,OR11,OR11
		SNOP		1
		SMVAAGL.M1		OR11, R43:R42
		SNOP		1
		SMVAAGH.M1		OR11, R43:R42
		SNOP		1
		SMVAGA36.M1		R43:R42, AR10
		SNOP		1
		SLDW		*AR10, R26
		SNOP		5
		SMVAGA36.M1		R43:R42, AR10
		SNOP		1
		SLDW		*AR10, R42
		SNOP		5
		SSHFAR		31, R42, R42
		SMOV.M1		R42, R27
		SMULIS.M1		R26,R9,R43
		SNOP		2
		SMULIS.M1		R8,R27,R42
		SNOP		2
		SADD.M1		R42,R43,R44
		SMULU.M1		R26,R8,R43:R42
		SNOP		3
		SADD.M1		R43,R44,R44
		SMOV.M1		R44, R43
		SADD.M1		R42,R32,R44
		SLTU		R44, R32, R46
		SADD.M1		R43,R33,R45
		SADD.M1		R45,R46,R42
		SMOV.M1		R42, R45
		SMOV.M1		R44, R42
		SMOV.M1		R45, R43
		SSHFLR		28, R42, R44
		SSHFLL		4, R43, R23
		SOR		R23, R44, R23
		SSHFLL		4, R42, R22
		SMOVIL		-128, R42
		SMOVIL		-1, R43
		SMOVIL		-64, R44
		SMOVIL		-1, R45
		SADDA.M1		R45:R44,AR14,OR11
		SNOP		1
		SADDA.M1		R43:R42,OR11,OR11
		SNOP		1
		SMVAAGL.M1		OR11, R43:R42
		SNOP		1
		SMVAAGH.M1		OR11, R43:R42
		SNOP		1
		SMOV.M1		R22, R44
		SMOV.M1		R23, R45
	;no-op trunc di R45:R44 to pdi R45:R44
		SMVAGA36.M1		R43:R42, AR10
		SNOP		1
		SLDDW		*AR10, R43:R42
		SNOP		5
		SMVAGA36.M1		R43:R42, OR11
		SNOP		1
		SADDA.M1		R45:R44,OR11,OR11
		SNOP		1
		SMVAAGL.M1		OR11, R45:R44
		SNOP		1
		SMVAAGH.M1		OR11, R45:R44
		SNOP		1
		SMOVIL		0, R42
		SMOVIL		0, R43
		SMVAGA36.M1		R45:R44, AR10
		SNOP		1
		SSTDW		R43:R42, *AR10
	.loc 1 222 0
		SMOVIL		-72, R42
		SMOVIL		-1, R43
		SADDA.M1		R43:R42,AR14,AR10
		SNOP		1
		SLDW		*AR10, R60
		SNOP		5
		SMOVIL		-72, R44
		SMOVIL		-1, R45
		SADDA.M1		R45:R44,AR14,AR10
		SNOP		1
		SLDW		*AR10, R42
		SNOP		5
		SSHFAR		31, R42, R42
		SMOV.M1		R42, R61
		SMOVIL		-68, R42
		SMOVIL		-1, R43
		SADDA.M1		R43:R42,AR14,AR10
		SNOP		1
		SLDW		*AR10, R56
		SNOP		5
		SMOVIL		-68, R44
		SMOVIL		-1, R45
		SADDA.M1		R45:R44,AR14,AR10
		SNOP		1
		SLDW		*AR10, R42
		SNOP		5
		SSHFAR		31, R42, R42
		SMOV.M1		R42, R57
		SMOVIL		-104, R42
		SMOVIL		-1, R43
		SMOVIL		-64, R44
		SMOVIL		-1, R45
		SADDA.M1		R45:R44,AR14,OR11
		SNOP		1
		SADDA.M1		R43:R42,OR11,OR11
		SNOP		1
		SMVAAGL.M1		OR11, R43:R42
		SNOP		1
		SMVAAGH.M1		OR11, R43:R42
		SNOP		1
		SMVAGA36.M1		R43:R42, AR10
		SNOP		1
		SLDW		*AR10, R52
		SNOP		5
		SMVAGA36.M1		R43:R42, AR10
		SNOP		1
		SLDW		*AR10, R42
		SNOP		5
		SSHFAR		31, R42, R42
		SMOV.M1		R42, R53
		SMULIS.M1		R52,R57,R43
		SNOP		2
		SMULIS.M1		R56,R53,R42
		SNOP		2
		SADD.M1		R42,R43,R44
		SMULU.M1		R52,R56,R43:R42
		SNOP		3
		SADD.M1		R43,R44,R44
		SMOV.M1		R44, R43
		SADD.M1		R42,R60,R44
		SLTU		R44, R60, R46
		SADD.M1		R43,R61,R45
		SADD.M1		R45,R46,R42
		SMOV.M1		R42, R45
		SMOV.M1		R44, R42
		SMOV.M1		R45, R43
		SSHFLR		28, R42, R44
		SSHFLL		4, R43, R49
		SOR		R49, R44, R49
		SSHFLL		4, R42, R48
		SMOVIL		8, R42
		SMOVIL		0, R43
		SADD.M1		R42,R48,R44
		SLTU		R44, R48, R46
		SADD.M1		R43,R49,R45
		SADD.M1		R45,R46,R42
		SMOV.M1		R42, R45
		SMOVIL		-128, R42
		SMOVIL		-1, R43
		SMOVIL		-64, R46
		SMOVIL		-1, R47
		SADDA.M1		R47:R46,AR14,OR11
		SNOP		1
		SADDA.M1		R43:R42,OR11,OR11
		SNOP		1
		SMVAAGL.M1		OR11, R43:R42
		SNOP		1
		SMVAAGH.M1		OR11, R43:R42
		SNOP		1
	;no-op trunc di R45:R44 to pdi R45:R44
		SMVAGA36.M1		R43:R42, AR10
		SNOP		1
		SLDDW		*AR10, R43:R42
		SNOP		5
		SMVAGA36.M1		R43:R42, OR11
		SNOP		1
		SADDA.M1		R45:R44,OR11,OR11
		SNOP		1
		SMVAAGL.M1		OR11, R45:R44
		SNOP		1
		SMVAAGH.M1		OR11, R45:R44
		SNOP		1
		SMOVIL		0, R42
		SMOVIL		0, R43
		SMVAGA36.M1		R45:R44, AR10
		SNOP		1
		SSTDW		R43:R42, *AR10
.L58:
	.loc 1 212 0
		SMOVIL		-72, R44
		SMOVIL		-1, R45
		SADDA.M1		R45:R44,AR14,AR10
		SNOP		1
		SLDW		*AR10, R42
		SNOP		5
		SADD.M1		1,R42,R42
		SMOVIL		-72, R44
		SMOVIL		-1, R45
		SADDA.M1		R45:R44,AR14,AR10
		SNOP		1
		SSTW		R42, *AR10
.L56:
	.loc 1 212 0 is_stmt 0 discriminator 1
		SMOVIL		-104, R42
		SMOVIL		-1, R43
		SMOVIL		-64, R44
		SMOVIL		-1, R45
		SADDA.M1		R45:R44,AR14,OR11
		SNOP		1
		SADDA.M1		R43:R42,OR11,OR11
		SNOP		1
		SMVAAGL.M1		OR11, R43:R42
		SNOP		1
		SMVAAGH.M1		OR11, R43:R42
		SNOP		1
		SMOVIL		-72, R46
		SMOVIL		-1, R47
		SADDA.M1		R47:R46,AR14,AR10
		SNOP		1
		SLDW		*AR10, R44
		SNOP		5
		SMVAGA36.M1		R43:R42, AR10
		SNOP		1
		SLDW		*AR10, R42
		SNOP		5
		SLT		R44, R42, R42
		SMOV.M1		R42, R0
	[R0]	SBR		.L59
		SNOP		6
	.loc 1 210 0 is_stmt 1
		SMOVIL		-68, R44
		SMOVIL		-1, R45
		SADDA.M1		R45:R44,AR14,AR10
		SNOP		1
		SLDW		*AR10, R42
		SNOP		5
		SADD.M1		1,R42,R42
		SMOVIL		-68, R44
		SMOVIL		-1, R45
		SADDA.M1		R45:R44,AR14,AR10
		SNOP		1
		SSTW		R42, *AR10
.L55:
	.loc 1 210 0 is_stmt 0 discriminator 1
		SMOVIL		-100, R42
		SMOVIL		-1, R43
		SMOVIL		-64, R44
		SMOVIL		-1, R45
		SADDA.M1		R45:R44,AR14,OR11
		SNOP		1
		SADDA.M1		R43:R42,OR11,OR11
		SNOP		1
		SMVAAGL.M1		OR11, R43:R42
		SNOP		1
		SMVAAGH.M1		OR11, R43:R42
		SNOP		1
		SMOVIL		-68, R46
		SMOVIL		-1, R47
		SADDA.M1		R47:R46,AR14,AR10
		SNOP		1
		SLDW		*AR10, R44
		SNOP		5
		SMVAGA36.M1		R43:R42, AR10
		SNOP		1
		SLDW		*AR10, R42
		SNOP		5
		SLT		R44, R42, R42
		SMOV.M1		R42, R0
	[R0]	SBR		.L60
		SNOP		6
	.loc 1 228 0 is_stmt 1
		SMOVIL		-104, R42
		SMOVIL		-1, R43
		SMOVIL		-64, R44
		SMOVIL		-1, R45
		SADDA.M1		R45:R44,AR14,OR11
		SNOP		1
		SADDA.M1		R43:R42,OR11,OR11
		SNOP		1
		SMVAAGL.M1		OR11, R43:R42
		SNOP		1
		SMVAAGH.M1		OR11, R43:R42
		SNOP		1
		SMVAGA36.M1		R43:R42, AR10
		SNOP		1
		SLDW		*AR10, R42
		SNOP		5
		SADD.M1		-1,R42,R42
		SMOVIL		-72, R44
		SMOVIL		-1, R45
		SADDA.M1		R45:R44,AR14,AR10
		SNOP		1
		SSTW		R42, *AR10
		SBR		.L61
		SNOP		6
.L66:
	.loc 1 230 0
		SMOVIL		-72, R44
		SMOVIL		-1, R45
		SADDA.M1		R45:R44,AR14,AR10
		SNOP		1
		SLDW		*AR10, R42
		SNOP		5
		SADD.M1		-1,R42,R42
		SMOVIL		-68, R44
		SMOVIL		-1, R45
		SADDA.M1		R45:R44,AR14,AR10
		SNOP		1
		SSTW		R42, *AR10
		SBR		.L62
		SNOP		6
.L65:
	.loc 1 232 0
		SMOVIL		-72, R42
		SMOVIL		-1, R43
		SADDA.M1		R43:R42,AR14,AR10
		SNOP		1
		SLDW		*AR10, R44
		SNOP		5
		SMOVIL		-200, R42
		SMOVIL		-1, R43
		SADDA.M1		R43:R42,AR14,AR10
		SNOP		1
		SSTW		R44, *AR10
		SMOVIL		-72, R44
		SMOVIL		-1, R45
		SADDA.M1		R45:R44,AR14,AR10
		SNOP		1
		SLDW		*AR10, R42
		SNOP		5
		SSHFAR		31, R42, R42
		SMOVIL		-196, R44
		SMOVIL		-1, R45
		SADDA.M1		R45:R44,AR14,AR10
		SNOP		1
		SSTW		R42, *AR10
		SMOVIL		-68, R42
		SMOVIL		-1, R43
		SADDA.M1		R43:R42,AR14,AR10
		SNOP		1
		SLDW		*AR10, R44
		SNOP		5
		SMOVIL		-208, R42
		SMOVIL		-1, R43
		SADDA.M1		R43:R42,AR14,AR10
		SNOP		1
		SSTW		R44, *AR10
		SMOVIL		-68, R44
		SMOVIL		-1, R45
		SADDA.M1		R45:R44,AR14,AR10
		SNOP		1
		SLDW		*AR10, R42
		SNOP		5
		SSHFAR		31, R42, R42
		SMOVIL		-204, R44
		SMOVIL		-1, R45
		SADDA.M1		R45:R44,AR14,AR10
		SNOP		1
		SSTW		R42, *AR10
		SMOVIL		-104, R42
		SMOVIL		-1, R43
		SMOVIL		-64, R44
		SMOVIL		-1, R45
		SADDA.M1		R45:R44,AR14,OR11
		SNOP		1
		SADDA.M1		R43:R42,OR11,OR11
		SNOP		1
		SMVAAGL.M1		OR11, R43:R42
		SNOP		1
		SMVAAGH.M1		OR11, R43:R42
		SNOP		1
		SMVAGA36.M1		R43:R42, AR10
		SNOP		1
		SLDW		*AR10, R46
		SNOP		5
		SMOVIL		-216, R44
		SMOVIL		-1, R45
		SADDA.M1		R45:R44,AR14,AR10
		SNOP		1
		SSTW		R46, *AR10
		SMVAGA36.M1		R43:R42, AR10
		SNOP		1
		SLDW		*AR10, R42
		SNOP		5
		SSHFAR		31, R42, R42
		SMOVIL		-212, R44
		SMOVIL		-1, R45
		SADDA.M1		R45:R44,AR14,AR10
		SNOP		1
		SSTW		R42, *AR10
		SMOVIL		-204, R44
		SMOVIL		-1, R45
		SADDA.M1		R45:R44,AR14,AR10
		SNOP		1
		SLDW		*AR10, R42
		SNOP		5
		SMOVIL		-216, R44
		SMOVIL		-1, R45
		SADDA.M1		R45:R44,AR14,AR10
		SNOP		1
		SLDW		*AR10, R44
		SNOP		5
		SMULIS.M1		R44,R42,R43
		SNOP		2
		SMOVIL		-212, R44
		SMOVIL		-1, R45
		SADDA.M1		R45:R44,AR14,AR10
		SNOP		1
		SLDW		*AR10, R46
		SNOP		5
		SMOVIL		-208, R44
		SMOVIL		-1, R45
		SADDA.M1		R45:R44,AR14,AR10
		SNOP		1
		SLDW		*AR10, R44
		SNOP		5
		SMULIS.M1		R44,R46,R42
		SNOP		2
		SADD.M1		R42,R43,R44
		SMOVIL		-208, R46
		SMOVIL		-1, R47
		SADDA.M1		R47:R46,AR14,AR10
		SNOP		1
		SLDW		*AR10, R45
		SNOP		5
		SMOVIL		-216, R46
		SMOVIL		-1, R47
		SADDA.M1		R47:R46,AR14,AR10
		SNOP		1
		SLDW		*AR10, R46
		SNOP		5
		SMULU.M1		R46,R45,R43:R42
		SNOP		3
		SADD.M1		R43,R44,R44
		SMOV.M1		R44, R43
		SMOVIL		-200, R46
		SMOVIL		-1, R47
		SADDA.M1		R47:R46,AR14,AR10
		SNOP		1
		SLDW		*AR10, R46
		SNOP		5
		SADD.M1		R42,R46,R44
		SMOVIL		-200, R48
		SMOVIL		-1, R49
		SADDA.M1		R49:R48,AR14,AR10
		SNOP		1
		SLDW		*AR10, R47
		SNOP		5
		SLTU		R44, R47, R46
		SMOVIL		-196, R48
		SMOVIL		-1, R49
		SADDA.M1		R49:R48,AR14,AR10
		SNOP		1
		SLDW		*AR10, R47
		SNOP		5
		SADD.M1		R43,R47,R45
		SADD.M1		R45,R46,R42
		SMOV.M1		R42, R45
		SMOV.M1		R44, R42
		SMOV.M1		R45, R43
		SSHFLR		28, R42, R44
		SSHFLL		4, R43, R45
		SMOVIL		-220, R46
		SMOVIL		-1, R47
		SADDA.M1		R47:R46,AR14,AR10
		SNOP		1
		SSTW		R45, *AR10
		SMOVIL		-220, R46
		SMOVIL		-1, R47
		SADDA.M1		R47:R46,AR14,AR10
		SNOP		1
		SLDW		*AR10, R45
		SNOP		5
		SOR		R45, R44, R45
		SMOVIL		-220, R46
		SMOVIL		-1, R47
		SADDA.M1		R47:R46,AR14,AR10
		SNOP		1
		SSTW		R45, *AR10
		SSHFLL		4, R42, R46
		SMOVIL		-224, R44
		SMOVIL		-1, R45
		SADDA.M1		R45:R44,AR14,AR10
		SNOP		1
		SSTW		R46, *AR10
		SMOVIL		-224, R42
		SMOVIL		-1, R43
		SADDA.M1		R43:R42,AR14,AR10
		SNOP		1
		SLDDW		*AR10, R45:R44
		SNOP		5
	;no-op trunc di R45:R44 to pdi R45:R44
		SMOVIL		-184, R46
		SMOVIL		-1, R47
		SADDA.M1		R47:R46,AR14,AR10
		SNOP		1
		SLDDW		*AR10, R43:R42
		SNOP		5
		SMVAGA36.M1		R43:R42, OR11
		SNOP		1
		SADDA.M1		R45:R44,OR11,OR11
		SNOP		1
		SMVAAGL.M1		OR11, R43:R42
		SNOP		1
		SMVAAGH.M1		OR11, R43:R42
		SNOP		1
		SMVAGA36.M1		R43:R42, AR10
		SNOP		1
		SLDDW		*AR10, R43:R42
		SNOP		5
		SSTDW		R43:R42, *-AR14[13]
	.loc 1 233 0
		SMOVIL		-72, R42
		SMOVIL		-1, R43
		SADDA.M1		R43:R42,AR14,AR10
		SNOP		1
		SLDW		*AR10, R44
		SNOP		5
		SMOVIL		-232, R42
		SMOVIL		-1, R43
		SADDA.M1		R43:R42,AR14,AR10
		SNOP		1
		SSTW		R44, *AR10
		SMOVIL		-72, R44
		SMOVIL		-1, R45
		SADDA.M1		R45:R44,AR14,AR10
		SNOP		1
		SLDW		*AR10, R42
		SNOP		5
		SSHFAR		31, R42, R42
		SMOVIL		-228, R44
		SMOVIL		-1, R45
		SADDA.M1		R45:R44,AR14,AR10
		SNOP		1
		SSTW		R42, *AR10
		SMOVIL		-68, R42
		SMOVIL		-1, R43
		SADDA.M1		R43:R42,AR14,AR10
		SNOP		1
		SLDW		*AR10, R44
		SNOP		5
		SMOVIL		-240, R42
		SMOVIL		-1, R43
		SADDA.M1		R43:R42,AR14,AR10
		SNOP		1
		SSTW		R44, *AR10
		SMOVIL		-68, R44
		SMOVIL		-1, R45
		SADDA.M1		R45:R44,AR14,AR10
		SNOP		1
		SLDW		*AR10, R42
		SNOP		5
		SSHFAR		31, R42, R42
		SMOVIL		-236, R44
		SMOVIL		-1, R45
		SADDA.M1		R45:R44,AR14,AR10
		SNOP		1
		SSTW		R42, *AR10
		SMOVIL		-104, R42
		SMOVIL		-1, R43
		SMOVIL		-64, R44
		SMOVIL		-1, R45
		SADDA.M1		R45:R44,AR14,OR11
		SNOP		1
		SADDA.M1		R43:R42,OR11,OR11
		SNOP		1
		SMVAAGL.M1		OR11, R43:R42
		SNOP		1
		SMVAAGH.M1		OR11, R43:R42
		SNOP		1
		SMVAGA36.M1		R43:R42, AR10
		SNOP		1
		SLDW		*AR10, R46
		SNOP		5
		SMOVIL		-248, R44
		SMOVIL		-1, R45
		SADDA.M1		R45:R44,AR14,AR10
		SNOP		1
		SSTW		R46, *AR10
		SMVAGA36.M1		R43:R42, AR10
		SNOP		1
		SLDW		*AR10, R42
		SNOP		5
		SSHFAR		31, R42, R42
		SMOVIL		-244, R44
		SMOVIL		-1, R45
		SADDA.M1		R45:R44,AR14,AR10
		SNOP		1
		SSTW		R42, *AR10
		SMOVIL		-236, R44
		SMOVIL		-1, R45
		SADDA.M1		R45:R44,AR14,AR10
		SNOP		1
		SLDW		*AR10, R42
		SNOP		5
		SMOVIL		-248, R44
		SMOVIL		-1, R45
		SADDA.M1		R45:R44,AR14,AR10
		SNOP		1
		SLDW		*AR10, R44
		SNOP		5
		SMULIS.M1		R44,R42,R43
		SNOP		2
		SMOVIL		-244, R44
		SMOVIL		-1, R45
		SADDA.M1		R45:R44,AR14,AR10
		SNOP		1
		SLDW		*AR10, R46
		SNOP		5
		SMOVIL		-240, R44
		SMOVIL		-1, R45
		SADDA.M1		R45:R44,AR14,AR10
		SNOP		1
		SLDW		*AR10, R44
		SNOP		5
		SMULIS.M1		R44,R46,R42
		SNOP		2
		SADD.M1		R42,R43,R44
		SMOVIL		-240, R46
		SMOVIL		-1, R47
		SADDA.M1		R47:R46,AR14,AR10
		SNOP		1
		SLDW		*AR10, R45
		SNOP		5
		SMOVIL		-248, R46
		SMOVIL		-1, R47
		SADDA.M1		R47:R46,AR14,AR10
		SNOP		1
		SLDW		*AR10, R46
		SNOP		5
		SMULU.M1		R46,R45,R43:R42
		SNOP		3
		SADD.M1		R43,R44,R44
		SMOV.M1		R44, R43
		SMOVIL		-232, R46
		SMOVIL		-1, R47
		SADDA.M1		R47:R46,AR14,AR10
		SNOP		1
		SLDW		*AR10, R46
		SNOP		5
		SADD.M1		R42,R46,R44
		SMOVIL		-232, R48
		SMOVIL		-1, R49
		SADDA.M1		R49:R48,AR14,AR10
		SNOP		1
		SLDW		*AR10, R47
		SNOP		5
		SLTU		R44, R47, R46
		SMOVIL		-228, R48
		SMOVIL		-1, R49
		SADDA.M1		R49:R48,AR14,AR10
		SNOP		1
		SLDW		*AR10, R47
		SNOP		5
		SADD.M1		R43,R47,R45
		SADD.M1		R45,R46,R42
		SMOV.M1		R42, R45
		SMOV.M1		R44, R42
		SMOV.M1		R45, R43
		SSHFLR		28, R42, R44
		SSHFLL		4, R43, R45
		SMOVIL		-252, R46
		SMOVIL		-1, R47
		SADDA.M1		R47:R46,AR14,AR10
		SNOP		1
		SSTW		R45, *AR10
		SMOVIL		-252, R46
		SMOVIL		-1, R47
		SADDA.M1		R47:R46,AR14,AR10
		SNOP		1
		SLDW		*AR10, R45
		SNOP		5
		SOR		R45, R44, R45
		SMOVIL		-252, R46
		SMOVIL		-1, R47
		SADDA.M1		R47:R46,AR14,AR10
		SNOP		1
		SSTW		R45, *AR10
		SSHFLL		4, R42, R46
		SMOVIL		-256, R44
		SMOVIL		-1, R45
		SADDA.M1		R45:R44,AR14,AR10
		SNOP		1
		SSTW		R46, *AR10
		SMOVIL		8, R42
		SMOVIL		0, R43
		SMOVIL		-256, R46
		SMOVIL		-1, R47
		SADDA.M1		R47:R46,AR14,AR10
		SNOP		1
		SLDW		*AR10, R46
		SNOP		5
		SADD.M1		R42,R46,R44
		SMOVIL		-256, R48
		SMOVIL		-1, R49
		SADDA.M1		R49:R48,AR14,AR10
		SNOP		1
		SLDW		*AR10, R47
		SNOP		5
		SLTU		R44, R47, R46
		SMOVIL		-252, R48
		SMOVIL		-1, R49
		SADDA.M1		R49:R48,AR14,AR10
		SNOP		1
		SLDW		*AR10, R47
		SNOP		5
		SADD.M1		R43,R47,R45
		SADD.M1		R45,R46,R42
		SMOV.M1		R42, R45
		SMOV.M1		R44, R42
		SMOV.M1		R45, R43
		SMOV.M1		R42, R44
		SMOV.M1		R43, R45
	;no-op trunc di R45:R44 to pdi R45:R44
		SMOVIL		-184, R46
		SMOVIL		-1, R47
		SADDA.M1		R47:R46,AR14,AR10
		SNOP		1
		SLDDW		*AR10, R43:R42
		SNOP		5
		SMVAGA36.M1		R43:R42, OR11
		SNOP		1
		SADDA.M1		R45:R44,OR11,OR11
		SNOP		1
		SMVAAGL.M1		OR11, R43:R42
		SNOP		1
		SMVAAGH.M1		OR11, R43:R42
		SNOP		1
		SMVAGA36.M1		R43:R42, AR10
		SNOP		1
		SLDDW		*AR10, R43:R42
		SNOP		5
		SSTDW		R43:R42, *-AR14[14]
	.loc 1 234 0
		SMOVIL		-104, R42
		SMOVIL		-1, R43
		SMOVIL		-64, R44
		SMOVIL		-1, R45
		SADDA.M1		R45:R44,AR14,OR11
		SNOP		1
		SADDA.M1		R43:R42,OR11,OR11
		SNOP		1
		SMVAAGL.M1		OR11, R43:R42
		SNOP		1
		SMVAAGH.M1		OR11, R43:R42
		SNOP		1
		SMVAGA36.M1		R43:R42, AR10
		SNOP		1
		SLDW		*AR10, R46
		SNOP		5
		SMOVIL		-264, R44
		SMOVIL		-1, R45
		SADDA.M1		R45:R44,AR14,AR10
		SNOP		1
		SSTW		R46, *AR10
		SMVAGA36.M1		R43:R42, AR10
		SNOP		1
		SLDW		*AR10, R42
		SNOP		5
		SSHFAR		31, R42, R42
		SMOVIL		-260, R44
		SMOVIL		-1, R45
		SADDA.M1		R45:R44,AR14,AR10
		SNOP		1
		SSTW		R42, *AR10
		SMOVIL		1, R42
		SMOVIL		0, R43
		SMOVIL		-264, R46
		SMOVIL		-1, R47
		SADDA.M1		R47:R46,AR14,AR10
		SNOP		1
		SLDW		*AR10, R46
		SNOP		5
		SADD.M1		R42,R46,R44
		SMOVIL		-264, R48
		SMOVIL		-1, R49
		SADDA.M1		R49:R48,AR14,AR10
		SNOP		1
		SLDW		*AR10, R47
		SNOP		5
		SLTU		R44, R47, R46
		SMOVIL		-260, R48
		SMOVIL		-1, R49
		SADDA.M1		R49:R48,AR14,AR10
		SNOP		1
		SLDW		*AR10, R47
		SNOP		5
		SADD.M1		R43,R47,R45
		SADD.M1		R45,R46,R42
		SMOV.M1		R42, R45
		SMOV.M1		R44, R42
		SMOV.M1		R45, R43
		SMOVIL		-72, R44
		SMOVIL		-1, R45
		SADDA.M1		R45:R44,AR14,AR10
		SNOP		1
		SLDW		*AR10, R46
		SNOP		5
		SMOVIL		-272, R44
		SMOVIL		-1, R45
		SADDA.M1		R45:R44,AR14,AR10
		SNOP		1
		SSTW		R46, *AR10
		SMOVIL		-72, R46
		SMOVIL		-1, R47
		SADDA.M1		R47:R46,AR14,AR10
		SNOP		1
		SLDW		*AR10, R44
		SNOP		5
		SSHFAR		31, R44, R44
		SMOVIL		-268, R46
		SMOVIL		-1, R47
		SADDA.M1		R47:R46,AR14,AR10
		SNOP		1
		SSTW		R44, *AR10
		SMOVIL		-272, R46
		SMOVIL		-1, R47
		SADDA.M1		R47:R46,AR14,AR10
		SNOP		1
		SLDW		*AR10, R44
		SNOP		5
		SMULIS.M1		R44,R43,R45
		SNOP		2
		SMOVIL		-268, R46
		SMOVIL		-1, R47
		SADDA.M1		R47:R46,AR14,AR10
		SNOP		1
		SLDW		*AR10, R46
		SNOP		5
		SMULIS.M1		R42,R46,R44
		SNOP		2
		SADD.M1		R44,R45,R44
		SMOVIL		-272, R46
		SMOVIL		-1, R47
		SADDA.M1		R47:R46,AR14,AR10
		SNOP		1
		SLDW		*AR10, R45
		SNOP		5
		SMULU.M1		R45,R42,R43:R42
		SNOP		3
		SADD.M1		R43,R44,R44
		SMOV.M1		R44, R43
		SSHFLR		28, R42, R44
		SSHFLL		4, R43, R45
		SMOVIL		-276, R46
		SMOVIL		-1, R47
		SADDA.M1		R47:R46,AR14,AR10
		SNOP		1
		SSTW		R45, *AR10
		SMOVIL		-276, R46
		SMOVIL		-1, R47
		SADDA.M1		R47:R46,AR14,AR10
		SNOP		1
		SLDW		*AR10, R45
		SNOP		5
		SOR		R45, R44, R45
		SMOVIL		-276, R46
		SMOVIL		-1, R47
		SADDA.M1		R47:R46,AR14,AR10
		SNOP		1
		SSTW		R45, *AR10
		SSHFLL		4, R42, R46
		SMOVIL		-280, R44
		SMOVIL		-1, R45
		SADDA.M1		R45:R44,AR14,AR10
		SNOP		1
		SSTW		R46, *AR10
		SMOVIL		-280, R42
		SMOVIL		-1, R43
		SADDA.M1		R43:R42,AR14,AR10
		SNOP		1
		SLDDW		*AR10, R45:R44
		SNOP		5
	;no-op trunc di R45:R44 to pdi R45:R44
		SMOVIL		-184, R46
		SMOVIL		-1, R47
		SADDA.M1		R47:R46,AR14,AR10
		SNOP		1
		SLDDW		*AR10, R43:R42
		SNOP		5
		SMVAGA36.M1		R43:R42, OR11
		SNOP		1
		SADDA.M1		R45:R44,OR11,OR11
		SNOP		1
		SMVAAGL.M1		OR11, R43:R42
		SNOP		1
		SMVAAGH.M1		OR11, R43:R42
		SNOP		1
		SMVAGA36.M1		R43:R42, AR10
		SNOP		1
		SLDDW		*AR10, R43:R42
		SNOP		5
		SSTDW		R43:R42, *-AR14[15]
	.loc 1 235 0
		SMOVIL		-104, R42
		SMOVIL		-1, R43
		SMOVIL		-64, R44
		SMOVIL		-1, R45
		SADDA.M1		R45:R44,AR14,OR11
		SNOP		1
		SADDA.M1		R43:R42,OR11,OR11
		SNOP		1
		SMVAAGL.M1		OR11, R43:R42
		SNOP		1
		SMVAAGH.M1		OR11, R43:R42
		SNOP		1
		SMVAGA36.M1		R43:R42, AR10
		SNOP		1
		SLDW		*AR10, R46
		SNOP		5
		SMOVIL		-288, R44
		SMOVIL		-1, R45
		SADDA.M1		R45:R44,AR14,AR10
		SNOP		1
		SSTW		R46, *AR10
		SMVAGA36.M1		R43:R42, AR10
		SNOP		1
		SLDW		*AR10, R42
		SNOP		5
		SSHFAR		31, R42, R42
		SMOVIL		-284, R44
		SMOVIL		-1, R45
		SADDA.M1		R45:R44,AR14,AR10
		SNOP		1
		SSTW		R42, *AR10
		SMOVIL		1, R42
		SMOVIL		0, R43
		SMOVIL		-288, R46
		SMOVIL		-1, R47
		SADDA.M1		R47:R46,AR14,AR10
		SNOP		1
		SLDW		*AR10, R46
		SNOP		5
		SADD.M1		R42,R46,R44
		SMOVIL		-288, R48
		SMOVIL		-1, R49
		SADDA.M1		R49:R48,AR14,AR10
		SNOP		1
		SLDW		*AR10, R47
		SNOP		5
		SLTU		R44, R47, R46
		SMOVIL		-284, R48
		SMOVIL		-1, R49
		SADDA.M1		R49:R48,AR14,AR10
		SNOP		1
		SLDW		*AR10, R47
		SNOP		5
		SADD.M1		R43,R47,R45
		SADD.M1		R45,R46,R42
		SMOV.M1		R42, R45
		SMOV.M1		R44, R42
		SMOV.M1		R45, R43
		SMOVIL		-72, R44
		SMOVIL		-1, R45
		SADDA.M1		R45:R44,AR14,AR10
		SNOP		1
		SLDW		*AR10, R46
		SNOP		5
		SMOVIL		-296, R44
		SMOVIL		-1, R45
		SADDA.M1		R45:R44,AR14,AR10
		SNOP		1
		SSTW		R46, *AR10
		SMOVIL		-72, R46
		SMOVIL		-1, R47
		SADDA.M1		R47:R46,AR14,AR10
		SNOP		1
		SLDW		*AR10, R44
		SNOP		5
		SSHFAR		31, R44, R44
		SMOVIL		-292, R46
		SMOVIL		-1, R47
		SADDA.M1		R47:R46,AR14,AR10
		SNOP		1
		SSTW		R44, *AR10
		SMOVIL		-296, R46
		SMOVIL		-1, R47
		SADDA.M1		R47:R46,AR14,AR10
		SNOP		1
		SLDW		*AR10, R44
		SNOP		5
		SMULIS.M1		R44,R43,R45
		SNOP		2
		SMOVIL		-292, R46
		SMOVIL		-1, R47
		SADDA.M1		R47:R46,AR14,AR10
		SNOP		1
		SLDW		*AR10, R46
		SNOP		5
		SMULIS.M1		R42,R46,R44
		SNOP		2
		SADD.M1		R44,R45,R44
		SMOVIL		-296, R46
		SMOVIL		-1, R47
		SADDA.M1		R47:R46,AR14,AR10
		SNOP		1
		SLDW		*AR10, R45
		SNOP		5
		SMULU.M1		R45,R42,R43:R42
		SNOP		3
		SADD.M1		R43,R44,R44
		SMOV.M1		R44, R43
		SSHFLR		28, R42, R44
		SSHFLL		4, R43, R39
		SOR		R39, R44, R39
		SSHFLL		4, R42, R38
		SMOVIL		8, R42
		SMOVIL		0, R43
		SADD.M1		R42,R38,R44
		SLTU		R44, R38, R46
		SADD.M1		R43,R39,R45
		SADD.M1		R45,R46,R42
		SMOV.M1		R42, R45
		SMOV.M1		R44, R42
		SMOV.M1		R45, R43
		SMOV.M1		R42, R44
		SMOV.M1		R43, R45
	;no-op trunc di R45:R44 to pdi R45:R44
		SMOVIL		-184, R46
		SMOVIL		-1, R47
		SADDA.M1		R47:R46,AR14,AR10
		SNOP		1
		SLDDW		*AR10, R43:R42
		SNOP		5
		SMVAGA36.M1		R43:R42, OR11
		SNOP		1
		SADDA.M1		R45:R44,OR11,OR11
		SNOP		1
		SMVAAGL.M1		OR11, R43:R42
		SNOP		1
		SMVAAGH.M1		OR11, R43:R42
		SNOP		1
		SMVAGA36.M1		R43:R42, AR10
		SNOP		1
		SLDDW		*AR10, R43:R42
		SNOP		5
		SMOVIL		-128, R44
		SMOVIL		-1, R45
		SADDA.M1		R45:R44,AR14,AR10
		SNOP		1
		SSTDW		R43:R42, *AR10
	.loc 1 236 0
		SMOVIL		-88, R42
		SMOVIL		-1, R43
		SMOVIL		-64, R46
		SMOVIL		-1, R47
		SADDA.M1		R47:R46,AR14,OR11
		SNOP		1
		SADDA.M1		R43:R42,OR11,OR11
		SNOP		1
		SMVAAGL.M1		OR11, R45:R44
		SNOP		1
		SMVAAGH.M1		OR11, R45:R44
		SNOP		1
		SMOVIL		-96, R42
		SMOVIL		-1, R43
		SMOVIL		-64, R46
		SMOVIL		-1, R47
		SADDA.M1		R47:R46,AR14,OR11
		SNOP		1
		SADDA.M1		R43:R42,OR11,OR11
		SNOP		1
		SMVAAGL.M1		OR11, R43:R42
		SNOP		1
		SMVAAGH.M1		OR11, R43:R42
		SNOP		1
		SLDDW		*-AR14[13], R11:R10
		SNOP		5
		SLDDW		*-AR14[14], R13:R12
		SNOP		5
		SLDDW		*-AR14[15], R15:R14
		SNOP		5
		SMOVIL		-128, R46
		SMOVIL		-1, R47
		SADDA.M1		R47:R46,AR14,AR10
		SNOP		1
		SLDDW		*AR10, R17:R16
		SNOP		5
		SMVAGA36.M1		R45:R44, OR11
		SNOP		1
		SMVAAGL.M1		OR11, R19:R18
		SNOP		1
		SMVAAGH.M1		OR11, R19:R18
		SNOP		1
		SMVAGA36.M1		R43:R42, OR11
		SNOP		1
		SMVAAGL.M1		OR11, R21:R20
		SNOP		1
		SMVAAGH.M1		OR11, R21:R20
		SNOP		1
		SBR		complex_sp_div_cn
		SMOVIL		.L80, R62
		SMOVIH		.L80, R62
		SMOVIH4.L		.L80, R63
		SNOP		4
.L80:
	.loc 1 237 0
		SMOVIL		0, R42
		SMOVIL		-76, R44
		SMOVIL		-1, R45
		SADDA.M1		R45:R44,AR14,AR10
		SNOP		1
		SSTW		R42, *AR10
		SBR		.L63
		SNOP		6
.L64:
	.loc 1 239 0 discriminator 2
		SMOVIL		-152, R44
		SMOVIL		-1, R45
		SADDA.M1		R45:R44,AR14,AR10
		SNOP		1
		SLDDW		*AR10, R43:R42
		SNOP		5
		SSTDW		R43:R42, *-AR14[13]
	.loc 1 240 0 discriminator 2
		SMOVIL		-160, R44
		SMOVIL		-1, R45
		SADDA.M1		R45:R44,AR14,AR10
		SNOP		1
		SLDDW		*AR10, R43:R42
		SNOP		5
		SSTDW		R43:R42, *-AR14[14]
	.loc 1 241 0 discriminator 2
		SMOVIL		-76, R42
		SMOVIL		-1, R43
		SADDA.M1		R43:R42,AR14,AR10
		SNOP		1
		SLDW		*AR10, R44
		SNOP		5
		SMOVIL		-304, R42
		SMOVIL		-1, R43
		SADDA.M1		R43:R42,AR14,AR10
		SNOP		1
		SSTW		R44, *AR10
		SMOVIL		-76, R44
		SMOVIL		-1, R45
		SADDA.M1		R45:R44,AR14,AR10
		SNOP		1
		SLDW		*AR10, R42
		SNOP		5
		SSHFAR		31, R42, R42
		SMOVIL		-300, R44
		SMOVIL		-1, R45
		SADDA.M1		R45:R44,AR14,AR10
		SNOP		1
		SSTW		R42, *AR10
		SMOVIL		-72, R42
		SMOVIL		-1, R43
		SADDA.M1		R43:R42,AR14,AR10
		SNOP		1
		SLDW		*AR10, R44
		SNOP		5
		SMOVIL		-312, R42
		SMOVIL		-1, R43
		SADDA.M1		R43:R42,AR14,AR10
		SNOP		1
		SSTW		R44, *AR10
		SMOVIL		-72, R44
		SMOVIL		-1, R45
		SADDA.M1		R45:R44,AR14,AR10
		SNOP		1
		SLDW		*AR10, R42
		SNOP		5
		SSHFAR		31, R42, R42
		SMOVIL		-308, R44
		SMOVIL		-1, R45
		SADDA.M1		R45:R44,AR14,AR10
		SNOP		1
		SSTW		R42, *AR10
		SMOVIL		-104, R42
		SMOVIL		-1, R43
		SMOVIL		-64, R44
		SMOVIL		-1, R45
		SADDA.M1		R45:R44,AR14,OR11
		SNOP		1
		SADDA.M1		R43:R42,OR11,OR11
		SNOP		1
		SMVAAGL.M1		OR11, R43:R42
		SNOP		1
		SMVAAGH.M1		OR11, R43:R42
		SNOP		1
		SMVAGA36.M1		R43:R42, AR10
		SNOP		1
		SLDW		*AR10, R46
		SNOP		5
		SMOVIL		-320, R44
		SMOVIL		-1, R45
		SADDA.M1		R45:R44,AR14,AR10
		SNOP		1
		SSTW		R46, *AR10
		SMVAGA36.M1		R43:R42, AR10
		SNOP		1
		SLDW		*AR10, R42
		SNOP		5
		SSHFAR		31, R42, R42
		SMOVIL		-316, R44
		SMOVIL		-1, R45
		SADDA.M1		R45:R44,AR14,AR10
		SNOP		1
		SSTW		R42, *AR10
		SMOVIL		-308, R44
		SMOVIL		-1, R45
		SADDA.M1		R45:R44,AR14,AR10
		SNOP		1
		SLDW		*AR10, R42
		SNOP		5
		SMOVIL		-320, R44
		SMOVIL		-1, R45
		SADDA.M1		R45:R44,AR14,AR10
		SNOP		1
		SLDW		*AR10, R44
		SNOP		5
		SMULIS.M1		R44,R42,R43
		SNOP		2
		SMOVIL		-316, R44
		SMOVIL		-1, R45
		SADDA.M1		R45:R44,AR14,AR10
		SNOP		1
		SLDW		*AR10, R46
		SNOP		5
		SMOVIL		-312, R44
		SMOVIL		-1, R45
		SADDA.M1		R45:R44,AR14,AR10
		SNOP		1
		SLDW		*AR10, R44
		SNOP		5
		SMULIS.M1		R44,R46,R42
		SNOP		2
		SADD.M1		R42,R43,R44
		SMOVIL		-312, R46
		SMOVIL		-1, R47
		SADDA.M1		R47:R46,AR14,AR10
		SNOP		1
		SLDW		*AR10, R45
		SNOP		5
		SMOVIL		-320, R46
		SMOVIL		-1, R47
		SADDA.M1		R47:R46,AR14,AR10
		SNOP		1
		SLDW		*AR10, R46
		SNOP		5
		SMULU.M1		R46,R45,R43:R42
		SNOP		3
		SADD.M1		R43,R44,R44
		SMOV.M1		R44, R43
		SMOVIL		-304, R46
		SMOVIL		-1, R47
		SADDA.M1		R47:R46,AR14,AR10
		SNOP		1
		SLDW		*AR10, R46
		SNOP		5
		SADD.M1		R42,R46,R44
		SMOVIL		-304, R48
		SMOVIL		-1, R49
		SADDA.M1		R49:R48,AR14,AR10
		SNOP		1
		SLDW		*AR10, R47
		SNOP		5
		SLTU		R44, R47, R46
		SMOVIL		-300, R48
		SMOVIL		-1, R49
		SADDA.M1		R49:R48,AR14,AR10
		SNOP		1
		SLDW		*AR10, R47
		SNOP		5
		SADD.M1		R43,R47,R45
		SADD.M1		R45,R46,R42
		SMOV.M1		R42, R45
		SMOV.M1		R44, R42
		SMOV.M1		R45, R43
		SSHFLR		28, R42, R44
		SSHFLL		4, R43, R45
		SMOVIL		-324, R46
		SMOVIL		-1, R47
		SADDA.M1		R47:R46,AR14,AR10
		SNOP		1
		SSTW		R45, *AR10
		SMOVIL		-324, R46
		SMOVIL		-1, R47
		SADDA.M1		R47:R46,AR14,AR10
		SNOP		1
		SLDW		*AR10, R45
		SNOP		5
		SOR		R45, R44, R45
		SMOVIL		-324, R46
		SMOVIL		-1, R47
		SADDA.M1		R47:R46,AR14,AR10
		SNOP		1
		SSTW		R45, *AR10
		SSHFLL		4, R42, R46
		SMOVIL		-328, R44
		SMOVIL		-1, R45
		SADDA.M1		R45:R44,AR14,AR10
		SNOP		1
		SSTW		R46, *AR10
		SMOVIL		-128, R42
		SMOVIL		-1, R43
		SMOVIL		-64, R48
		SMOVIL		-1, R49
		SADDA.M1		R49:R48,AR14,OR11
		SNOP		1
		SADDA.M1		R43:R42,OR11,OR11
		SNOP		1
		SMVAAGL.M1		OR11, R43:R42
		SNOP		1
		SMVAAGH.M1		OR11, R43:R42
		SNOP		1
		SMOVIL		-328, R46
		SMOVIL		-1, R47
		SADDA.M1		R47:R46,AR14,AR10
		SNOP		1
		SLDDW		*AR10, R45:R44
		SNOP		5
	;no-op trunc di R45:R44 to pdi R45:R44
		SMVAGA36.M1		R43:R42, AR10
		SNOP		1
		SLDDW		*AR10, R43:R42
		SNOP		5
		SMVAGA36.M1		R43:R42, OR11
		SNOP		1
		SADDA.M1		R45:R44,OR11,OR11
		SNOP		1
		SMVAAGL.M1		OR11, R43:R42
		SNOP		1
		SMVAAGH.M1		OR11, R43:R42
		SNOP		1
		SMVAGA36.M1		R43:R42, AR10
		SNOP		1
		SLDDW		*AR10, R43:R42
		SNOP		5
		SSTDW		R43:R42, *-AR14[15]
	.loc 1 242 0 discriminator 2
		SMOVIL		-76, R42
		SMOVIL		-1, R43
		SADDA.M1		R43:R42,AR14,AR10
		SNOP		1
		SLDW		*AR10, R44
		SNOP		5
		SMOVIL		-336, R42
		SMOVIL		-1, R43
		SADDA.M1		R43:R42,AR14,AR10
		SNOP		1
		SSTW		R44, *AR10
		SMOVIL		-76, R44
		SMOVIL		-1, R45
		SADDA.M1		R45:R44,AR14,AR10
		SNOP		1
		SLDW		*AR10, R42
		SNOP		5
		SSHFAR		31, R42, R42
		SMOVIL		-332, R44
		SMOVIL		-1, R45
		SADDA.M1		R45:R44,AR14,AR10
		SNOP		1
		SSTW		R42, *AR10
		SMOVIL		-72, R42
		SMOVIL		-1, R43
		SADDA.M1		R43:R42,AR14,AR10
		SNOP		1
		SLDW		*AR10, R44
		SNOP		5
		SMOVIL		-344, R42
		SMOVIL		-1, R43
		SADDA.M1		R43:R42,AR14,AR10
		SNOP		1
		SSTW		R44, *AR10
		SMOVIL		-72, R44
		SMOVIL		-1, R45
		SADDA.M1		R45:R44,AR14,AR10
		SNOP		1
		SLDW		*AR10, R42
		SNOP		5
		SSHFAR		31, R42, R42
		SMOVIL		-340, R44
		SMOVIL		-1, R45
		SADDA.M1		R45:R44,AR14,AR10
		SNOP		1
		SSTW		R42, *AR10
		SMOVIL		-104, R42
		SMOVIL		-1, R43
		SMOVIL		-64, R44
		SMOVIL		-1, R45
		SADDA.M1		R45:R44,AR14,OR11
		SNOP		1
		SADDA.M1		R43:R42,OR11,OR11
		SNOP		1
		SMVAAGL.M1		OR11, R43:R42
		SNOP		1
		SMVAAGH.M1		OR11, R43:R42
		SNOP		1
		SMVAGA36.M1		R43:R42, AR10
		SNOP		1
		SLDW		*AR10, R46
		SNOP		5
		SMOVIL		-352, R44
		SMOVIL		-1, R45
		SADDA.M1		R45:R44,AR14,AR10
		SNOP		1
		SSTW		R46, *AR10
		SMVAGA36.M1		R43:R42, AR10
		SNOP		1
		SLDW		*AR10, R42
		SNOP		5
		SSHFAR		31, R42, R42
		SMOVIL		-348, R44
		SMOVIL		-1, R45
		SADDA.M1		R45:R44,AR14,AR10
		SNOP		1
		SSTW		R42, *AR10
		SMOVIL		-340, R44
		SMOVIL		-1, R45
		SADDA.M1		R45:R44,AR14,AR10
		SNOP		1
		SLDW		*AR10, R42
		SNOP		5
		SMOVIL		-352, R44
		SMOVIL		-1, R45
		SADDA.M1		R45:R44,AR14,AR10
		SNOP		1
		SLDW		*AR10, R44
		SNOP		5
		SMULIS.M1		R44,R42,R43
		SNOP		2
		SMOVIL		-348, R44
		SMOVIL		-1, R45
		SADDA.M1		R45:R44,AR14,AR10
		SNOP		1
		SLDW		*AR10, R46
		SNOP		5
		SMOVIL		-344, R44
		SMOVIL		-1, R45
		SADDA.M1		R45:R44,AR14,AR10
		SNOP		1
		SLDW		*AR10, R44
		SNOP		5
		SMULIS.M1		R44,R46,R42
		SNOP		2
		SADD.M1		R42,R43,R44
		SMOVIL		-344, R46
		SMOVIL		-1, R47
		SADDA.M1		R47:R46,AR14,AR10
		SNOP		1
		SLDW		*AR10, R45
		SNOP		5
		SMOVIL		-352, R46
		SMOVIL		-1, R47
		SADDA.M1		R47:R46,AR14,AR10
		SNOP		1
		SLDW		*AR10, R46
		SNOP		5
		SMULU.M1		R46,R45,R43:R42
		SNOP		3
		SADD.M1		R43,R44,R44
		SMOV.M1		R44, R43
		SMOVIL		-336, R46
		SMOVIL		-1, R47
		SADDA.M1		R47:R46,AR14,AR10
		SNOP		1
		SLDW		*AR10, R46
		SNOP		5
		SADD.M1		R42,R46,R44
		SMOVIL		-336, R48
		SMOVIL		-1, R49
		SADDA.M1		R49:R48,AR14,AR10
		SNOP		1
		SLDW		*AR10, R47
		SNOP		5
		SLTU		R44, R47, R46
		SMOVIL		-332, R48
		SMOVIL		-1, R49
		SADDA.M1		R49:R48,AR14,AR10
		SNOP		1
		SLDW		*AR10, R47
		SNOP		5
		SADD.M1		R43,R47,R45
		SADD.M1		R45,R46,R42
		SMOV.M1		R42, R45
		SMOV.M1		R44, R42
		SMOV.M1		R45, R43
		SSHFLR		28, R42, R44
		SSHFLL		4, R43, R45
		SMOVIL		-356, R46
		SMOVIL		-1, R47
		SADDA.M1		R47:R46,AR14,AR10
		SNOP		1
		SSTW		R45, *AR10
		SMOVIL		-356, R46
		SMOVIL		-1, R47
		SADDA.M1		R47:R46,AR14,AR10
		SNOP		1
		SLDW		*AR10, R45
		SNOP		5
		SOR		R45, R44, R45
		SMOVIL		-356, R46
		SMOVIL		-1, R47
		SADDA.M1		R47:R46,AR14,AR10
		SNOP		1
		SSTW		R45, *AR10
		SSHFLL		4, R42, R46
		SMOVIL		-360, R44
		SMOVIL		-1, R45
		SADDA.M1		R45:R44,AR14,AR10
		SNOP		1
		SSTW		R46, *AR10
		SMOVIL		8, R42
		SMOVIL		0, R43
		SMOVIL		-360, R46
		SMOVIL		-1, R47
		SADDA.M1		R47:R46,AR14,AR10
		SNOP		1
		SLDW		*AR10, R46
		SNOP		5
		SADD.M1		R42,R46,R44
		SMOVIL		-360, R48
		SMOVIL		-1, R49
		SADDA.M1		R49:R48,AR14,AR10
		SNOP		1
		SLDW		*AR10, R47
		SNOP		5
		SLTU		R44, R47, R46
		SMOVIL		-356, R48
		SMOVIL		-1, R49
		SADDA.M1		R49:R48,AR14,AR10
		SNOP		1
		SLDW		*AR10, R47
		SNOP		5
		SADD.M1		R43,R47,R45
		SADD.M1		R45,R46,R42
		SMOV.M1		R42, R45
		SMOVIL		-128, R42
		SMOVIL		-1, R43
		SMOVIL		-64, R48
		SMOVIL		-1, R49
		SADDA.M1		R49:R48,AR14,OR11
		SNOP		1
		SADDA.M1		R43:R42,OR11,OR11
		SNOP		1
		SMVAAGL.M1		OR11, R43:R42
		SNOP		1
		SMVAAGH.M1		OR11, R43:R42
		SNOP		1
	;no-op trunc di R45:R44 to pdi R45:R44
		SMVAGA36.M1		R43:R42, AR10
		SNOP		1
		SLDDW		*AR10, R43:R42
		SNOP		5
		SMVAGA36.M1		R43:R42, OR11
		SNOP		1
		SADDA.M1		R45:R44,OR11,OR11
		SNOP		1
		SMVAAGL.M1		OR11, R43:R42
		SNOP		1
		SMVAAGH.M1		OR11, R43:R42
		SNOP		1
		SMVAGA36.M1		R43:R42, AR10
		SNOP		1
		SLDDW		*AR10, R43:R42
		SNOP		5
		SMOVIL		-128, R44
		SMOVIL		-1, R45
		SADDA.M1		R45:R44,AR14,AR10
		SNOP		1
		SSTDW		R43:R42, *AR10
	.loc 1 243 0 discriminator 2
		SMOVIL		-76, R42
		SMOVIL		-1, R43
		SADDA.M1		R43:R42,AR14,AR10
		SNOP		1
		SLDW		*AR10, R44
		SNOP		5
		SMOVIL		-368, R42
		SMOVIL		-1, R43
		SADDA.M1		R43:R42,AR14,AR10
		SNOP		1
		SSTW		R44, *AR10
		SMOVIL		-76, R44
		SMOVIL		-1, R45
		SADDA.M1		R45:R44,AR14,AR10
		SNOP		1
		SLDW		*AR10, R42
		SNOP		5
		SSHFAR		31, R42, R42
		SMOVIL		-364, R44
		SMOVIL		-1, R45
		SADDA.M1		R45:R44,AR14,AR10
		SNOP		1
		SSTW		R42, *AR10
		SMOVIL		-68, R42
		SMOVIL		-1, R43
		SADDA.M1		R43:R42,AR14,AR10
		SNOP		1
		SLDW		*AR10, R44
		SNOP		5
		SMOVIL		-376, R42
		SMOVIL		-1, R43
		SADDA.M1		R43:R42,AR14,AR10
		SNOP		1
		SSTW		R44, *AR10
		SMOVIL		-68, R44
		SMOVIL		-1, R45
		SADDA.M1		R45:R44,AR14,AR10
		SNOP		1
		SLDW		*AR10, R42
		SNOP		5
		SSHFAR		31, R42, R42
		SMOVIL		-372, R44
		SMOVIL		-1, R45
		SADDA.M1		R45:R44,AR14,AR10
		SNOP		1
		SSTW		R42, *AR10
		SMOVIL		-104, R42
		SMOVIL		-1, R43
		SMOVIL		-64, R44
		SMOVIL		-1, R45
		SADDA.M1		R45:R44,AR14,OR11
		SNOP		1
		SADDA.M1		R43:R42,OR11,OR11
		SNOP		1
		SMVAAGL.M1		OR11, R43:R42
		SNOP		1
		SMVAAGH.M1		OR11, R43:R42
		SNOP		1
		SMVAGA36.M1		R43:R42, AR10
		SNOP		1
		SLDW		*AR10, R46
		SNOP		5
		SMOVIL		-384, R44
		SMOVIL		-1, R45
		SADDA.M1		R45:R44,AR14,AR10
		SNOP		1
		SSTW		R46, *AR10
		SMVAGA36.M1		R43:R42, AR10
		SNOP		1
		SLDW		*AR10, R42
		SNOP		5
		SSHFAR		31, R42, R42
		SMOVIL		-380, R44
		SMOVIL		-1, R45
		SADDA.M1		R45:R44,AR14,AR10
		SNOP		1
		SSTW		R42, *AR10
		SMOVIL		-372, R44
		SMOVIL		-1, R45
		SADDA.M1		R45:R44,AR14,AR10
		SNOP		1
		SLDW		*AR10, R42
		SNOP		5
		SMOVIL		-384, R44
		SMOVIL		-1, R45
		SADDA.M1		R45:R44,AR14,AR10
		SNOP		1
		SLDW		*AR10, R44
		SNOP		5
		SMULIS.M1		R44,R42,R43
		SNOP		2
		SMOVIL		-380, R44
		SMOVIL		-1, R45
		SADDA.M1		R45:R44,AR14,AR10
		SNOP		1
		SLDW		*AR10, R46
		SNOP		5
		SMOVIL		-376, R44
		SMOVIL		-1, R45
		SADDA.M1		R45:R44,AR14,AR10
		SNOP		1
		SLDW		*AR10, R44
		SNOP		5
		SMULIS.M1		R44,R46,R42
		SNOP		2
		SADD.M1		R42,R43,R44
		SMOVIL		-376, R46
		SMOVIL		-1, R47
		SADDA.M1		R47:R46,AR14,AR10
		SNOP		1
		SLDW		*AR10, R45
		SNOP		5
		SMOVIL		-384, R46
		SMOVIL		-1, R47
		SADDA.M1		R47:R46,AR14,AR10
		SNOP		1
		SLDW		*AR10, R46
		SNOP		5
		SMULU.M1		R46,R45,R43:R42
		SNOP		3
		SADD.M1		R43,R44,R44
		SMOV.M1		R44, R43
		SMOVIL		-368, R46
		SMOVIL		-1, R47
		SADDA.M1		R47:R46,AR14,AR10
		SNOP		1
		SLDW		*AR10, R46
		SNOP		5
		SADD.M1		R42,R46,R44
		SMOVIL		-368, R48
		SMOVIL		-1, R49
		SADDA.M1		R49:R48,AR14,AR10
		SNOP		1
		SLDW		*AR10, R47
		SNOP		5
		SLTU		R44, R47, R46
		SMOVIL		-364, R48
		SMOVIL		-1, R49
		SADDA.M1		R49:R48,AR14,AR10
		SNOP		1
		SLDW		*AR10, R47
		SNOP		5
		SADD.M1		R43,R47,R45
		SADD.M1		R45,R46,R42
		SMOV.M1		R42, R45
		SMOV.M1		R44, R42
		SMOV.M1		R45, R43
		SSHFLR		28, R42, R44
		SSHFLL		4, R43, R45
		SMOVIL		-388, R46
		SMOVIL		-1, R47
		SADDA.M1		R47:R46,AR14,AR10
		SNOP		1
		SSTW		R45, *AR10
		SMOVIL		-388, R46
		SMOVIL		-1, R47
		SADDA.M1		R47:R46,AR14,AR10
		SNOP		1
		SLDW		*AR10, R45
		SNOP		5
		SOR		R45, R44, R45
		SMOVIL		-388, R46
		SMOVIL		-1, R47
		SADDA.M1		R47:R46,AR14,AR10
		SNOP		1
		SSTW		R45, *AR10
		SSHFLL		4, R42, R46
		SMOVIL		-392, R44
		SMOVIL		-1, R45
		SADDA.M1		R45:R44,AR14,AR10
		SNOP		1
		SSTW		R46, *AR10
		SMOVIL		-128, R42
		SMOVIL		-1, R43
		SMOVIL		-64, R48
		SMOVIL		-1, R49
		SADDA.M1		R49:R48,AR14,OR11
		SNOP		1
		SADDA.M1		R43:R42,OR11,OR11
		SNOP		1
		SMVAAGL.M1		OR11, R43:R42
		SNOP		1
		SMVAAGH.M1		OR11, R43:R42
		SNOP		1
		SMOVIL		-392, R46
		SMOVIL		-1, R47
		SADDA.M1		R47:R46,AR14,AR10
		SNOP		1
		SLDDW		*AR10, R45:R44
		SNOP		5
	;no-op trunc di R45:R44 to pdi R45:R44
		SMVAGA36.M1		R43:R42, AR10
		SNOP		1
		SLDDW		*AR10, R43:R42
		SNOP		5
		SMVAGA36.M1		R43:R42, OR11
		SNOP		1
		SADDA.M1		R45:R44,OR11,OR11
		SNOP		1
		SMVAAGL.M1		OR11, R51:R50
		SNOP		1
		SMVAAGH.M1		OR11, R51:R50
		SNOP		1
		SMOVIL		-76, R42
		SMOVIL		-1, R43
		SADDA.M1		R43:R42,AR14,AR10
		SNOP		1
		SLDW		*AR10, R44
		SNOP		5
		SMOVIL		-400, R42
		SMOVIL		-1, R43
		SADDA.M1		R43:R42,AR14,AR10
		SNOP		1
		SSTW		R44, *AR10
		SMOVIL		-76, R44
		SMOVIL		-1, R45
		SADDA.M1		R45:R44,AR14,AR10
		SNOP		1
		SLDW		*AR10, R42
		SNOP		5
		SSHFAR		31, R42, R42
		SMOVIL		-396, R44
		SMOVIL		-1, R45
		SADDA.M1		R45:R44,AR14,AR10
		SNOP		1
		SSTW		R42, *AR10
		SMOVIL		-68, R42
		SMOVIL		-1, R43
		SADDA.M1		R43:R42,AR14,AR10
		SNOP		1
		SLDW		*AR10, R44
		SNOP		5
		SMOVIL		-408, R42
		SMOVIL		-1, R43
		SADDA.M1		R43:R42,AR14,AR10
		SNOP		1
		SSTW		R44, *AR10
		SMOVIL		-68, R44
		SMOVIL		-1, R45
		SADDA.M1		R45:R44,AR14,AR10
		SNOP		1
		SLDW		*AR10, R42
		SNOP		5
		SSHFAR		31, R42, R42
		SMOVIL		-404, R44
		SMOVIL		-1, R45
		SADDA.M1		R45:R44,AR14,AR10
		SNOP		1
		SSTW		R42, *AR10
		SMOVIL		-104, R42
		SMOVIL		-1, R43
		SMOVIL		-64, R44
		SMOVIL		-1, R45
		SADDA.M1		R45:R44,AR14,OR11
		SNOP		1
		SADDA.M1		R43:R42,OR11,OR11
		SNOP		1
		SMVAAGL.M1		OR11, R43:R42
		SNOP		1
		SMVAAGH.M1		OR11, R43:R42
		SNOP		1
		SMVAGA36.M1		R43:R42, AR10
		SNOP		1
		SLDW		*AR10, R46
		SNOP		5
		SMOVIL		-416, R44
		SMOVIL		-1, R45
		SADDA.M1		R45:R44,AR14,AR10
		SNOP		1
		SSTW		R46, *AR10
		SMVAGA36.M1		R43:R42, AR10
		SNOP		1
		SLDW		*AR10, R42
		SNOP		5
		SSHFAR		31, R42, R42
		SMOVIL		-412, R44
		SMOVIL		-1, R45
		SADDA.M1		R45:R44,AR14,AR10
		SNOP		1
		SSTW		R42, *AR10
		SMOVIL		-404, R44
		SMOVIL		-1, R45
		SADDA.M1		R45:R44,AR14,AR10
		SNOP		1
		SLDW		*AR10, R42
		SNOP		5
		SMOVIL		-416, R44
		SMOVIL		-1, R45
		SADDA.M1		R45:R44,AR14,AR10
		SNOP		1
		SLDW		*AR10, R44
		SNOP		5
		SMULIS.M1		R44,R42,R43
		SNOP		2
		SMOVIL		-412, R44
		SMOVIL		-1, R45
		SADDA.M1		R45:R44,AR14,AR10
		SNOP		1
		SLDW		*AR10, R46
		SNOP		5
		SMOVIL		-408, R44
		SMOVIL		-1, R45
		SADDA.M1		R45:R44,AR14,AR10
		SNOP		1
		SLDW		*AR10, R44
		SNOP		5
		SMULIS.M1		R44,R46,R42
		SNOP		2
		SADD.M1		R42,R43,R44
		SMOVIL		-408, R46
		SMOVIL		-1, R47
		SADDA.M1		R47:R46,AR14,AR10
		SNOP		1
		SLDW		*AR10, R45
		SNOP		5
		SMOVIL		-416, R46
		SMOVIL		-1, R47
		SADDA.M1		R47:R46,AR14,AR10
		SNOP		1
		SLDW		*AR10, R46
		SNOP		5
		SMULU.M1		R46,R45,R43:R42
		SNOP		3
		SADD.M1		R43,R44,R44
		SMOV.M1		R44, R43
		SMOVIL		-400, R46
		SMOVIL		-1, R47
		SADDA.M1		R47:R46,AR14,AR10
		SNOP		1
		SLDW		*AR10, R46
		SNOP		5
		SADD.M1		R42,R46,R44
		SMOVIL		-400, R48
		SMOVIL		-1, R49
		SADDA.M1		R49:R48,AR14,AR10
		SNOP		1
		SLDW		*AR10, R47
		SNOP		5
		SLTU		R44, R47, R46
		SMOVIL		-396, R48
		SMOVIL		-1, R49
		SADDA.M1		R49:R48,AR14,AR10
		SNOP		1
		SLDW		*AR10, R47
		SNOP		5
		SADD.M1		R43,R47,R45
		SADD.M1		R45,R46,R42
		SMOV.M1		R42, R45
		SMOV.M1		R44, R42
		SMOV.M1		R45, R43
		SSHFLR		28, R42, R44
		SSHFLL		4, R43, R45
		SMOVIL		-420, R46
		SMOVIL		-1, R47
		SADDA.M1		R47:R46,AR14,AR10
		SNOP		1
		SSTW		R45, *AR10
		SMOVIL		-420, R46
		SMOVIL		-1, R47
		SADDA.M1		R47:R46,AR14,AR10
		SNOP		1
		SLDW		*AR10, R45
		SNOP		5
		SOR		R45, R44, R45
		SMOVIL		-420, R46
		SMOVIL		-1, R47
		SADDA.M1		R47:R46,AR14,AR10
		SNOP		1
		SSTW		R45, *AR10
		SSHFLL		4, R42, R46
		SMOVIL		-424, R44
		SMOVIL		-1, R45
		SADDA.M1		R45:R44,AR14,AR10
		SNOP		1
		SSTW		R46, *AR10
		SMOVIL		-128, R42
		SMOVIL		-1, R43
		SMOVIL		-64, R48
		SMOVIL		-1, R49
		SADDA.M1		R49:R48,AR14,OR11
		SNOP		1
		SADDA.M1		R43:R42,OR11,OR11
		SNOP		1
		SMVAAGL.M1		OR11, R43:R42
		SNOP		1
		SMVAAGH.M1		OR11, R43:R42
		SNOP		1
		SMOVIL		-424, R46
		SMOVIL		-1, R47
		SADDA.M1		R47:R46,AR14,AR10
		SNOP		1
		SLDDW		*AR10, R45:R44
		SNOP		5
	;no-op trunc di R45:R44 to pdi R45:R44
		SMVAGA36.M1		R43:R42, AR10
		SNOP		1
		SLDDW		*AR10, R43:R42
		SNOP		5
		SMVAGA36.M1		R43:R42, OR11
		SNOP		1
		SADDA.M1		R45:R44,OR11,OR11
		SNOP		1
		SMVAAGL.M1		OR11, R43:R42
		SNOP		1
		SMVAAGH.M1		OR11, R43:R42
		SNOP		1
		SMVAGA36.M1		R43:R42, AR10
		SNOP		1
		SLDDW		*AR10, R49:R48
		SNOP		5
		SLDDW		*-AR14[13], R45:R44
		SNOP		5
		SLDDW		*-AR14[15], R43:R42
		SNOP		5
		SFMULD.M1		R45:R44, R43:R42, R47:R46
		SNOP		5
		SLDDW		*-AR14[14], R45:R44
		SNOP		5
		SMOVIL		-128, R52
		SMOVIL		-1, R53
		SADDA.M1		R53:R52,AR14,AR10
		SNOP		1
		SLDDW		*AR10, R43:R42
		SNOP		5
		SFMULD.M1		R45:R44, R43:R42, R43:R42
		SNOP		5
		SFSUBD.M1	R43:R42, R47:R46, R43:R42
		SNOP		4
		SFSUBD.M1	R43:R42, R49:R48, R43:R42
		SNOP		4
		SMVAGA36.M1		R51:R50, AR10
		SNOP		1
		SSTDW		R43:R42, *AR10
	.loc 1 244 0 discriminator 2
		SMOVIL		-76, R42
		SMOVIL		-1, R43
		SADDA.M1		R43:R42,AR14,AR10
		SNOP		1
		SLDW		*AR10, R44
		SNOP		5
		SMOVIL		-432, R42
		SMOVIL		-1, R43
		SADDA.M1		R43:R42,AR14,AR10
		SNOP		1
		SSTW		R44, *AR10
		SMOVIL		-76, R44
		SMOVIL		-1, R45
		SADDA.M1		R45:R44,AR14,AR10
		SNOP		1
		SLDW		*AR10, R42
		SNOP		5
		SSHFAR		31, R42, R42
		SMOVIL		-428, R44
		SMOVIL		-1, R45
		SADDA.M1		R45:R44,AR14,AR10
		SNOP		1
		SSTW		R42, *AR10
		SMOVIL		-68, R42
		SMOVIL		-1, R43
		SADDA.M1		R43:R42,AR14,AR10
		SNOP		1
		SLDW		*AR10, R44
		SNOP		5
		SMOVIL		-440, R42
		SMOVIL		-1, R43
		SADDA.M1		R43:R42,AR14,AR10
		SNOP		1
		SSTW		R44, *AR10
		SMOVIL		-68, R44
		SMOVIL		-1, R45
		SADDA.M1		R45:R44,AR14,AR10
		SNOP		1
		SLDW		*AR10, R42
		SNOP		5
		SSHFAR		31, R42, R42
		SMOVIL		-436, R44
		SMOVIL		-1, R45
		SADDA.M1		R45:R44,AR14,AR10
		SNOP		1
		SSTW		R42, *AR10
		SMOVIL		-104, R42
		SMOVIL		-1, R43
		SMOVIL		-64, R44
		SMOVIL		-1, R45
		SADDA.M1		R45:R44,AR14,OR11
		SNOP		1
		SADDA.M1		R43:R42,OR11,OR11
		SNOP		1
		SMVAAGL.M1		OR11, R43:R42
		SNOP		1
		SMVAAGH.M1		OR11, R43:R42
		SNOP		1
		SMVAGA36.M1		R43:R42, AR10
		SNOP		1
		SLDW		*AR10, R46
		SNOP		5
		SMOVIL		-448, R44
		SMOVIL		-1, R45
		SADDA.M1		R45:R44,AR14,AR10
		SNOP		1
		SSTW		R46, *AR10
		SMVAGA36.M1		R43:R42, AR10
		SNOP		1
		SLDW		*AR10, R42
		SNOP		5
		SSHFAR		31, R42, R42
		SMOVIL		-444, R44
		SMOVIL		-1, R45
		SADDA.M1		R45:R44,AR14,AR10
		SNOP		1
		SSTW		R42, *AR10
		SMOVIL		-436, R44
		SMOVIL		-1, R45
		SADDA.M1		R45:R44,AR14,AR10
		SNOP		1
		SLDW		*AR10, R42
		SNOP		5
		SMOVIL		-448, R44
		SMOVIL		-1, R45
		SADDA.M1		R45:R44,AR14,AR10
		SNOP		1
		SLDW		*AR10, R44
		SNOP		5
		SMULIS.M1		R44,R42,R43
		SNOP		2
		SMOVIL		-444, R44
		SMOVIL		-1, R45
		SADDA.M1		R45:R44,AR14,AR10
		SNOP		1
		SLDW		*AR10, R46
		SNOP		5
		SMOVIL		-440, R44
		SMOVIL		-1, R45
		SADDA.M1		R45:R44,AR14,AR10
		SNOP		1
		SLDW		*AR10, R44
		SNOP		5
		SMULIS.M1		R44,R46,R42
		SNOP		2
		SADD.M1		R42,R43,R44
		SMOVIL		-440, R46
		SMOVIL		-1, R47
		SADDA.M1		R47:R46,AR14,AR10
		SNOP		1
		SLDW		*AR10, R45
		SNOP		5
		SMOVIL		-448, R46
		SMOVIL		-1, R47
		SADDA.M1		R47:R46,AR14,AR10
		SNOP		1
		SLDW		*AR10, R46
		SNOP		5
		SMULU.M1		R46,R45,R43:R42
		SNOP		3
		SADD.M1		R43,R44,R44
		SMOV.M1		R44, R43
		SMOVIL		-432, R46
		SMOVIL		-1, R47
		SADDA.M1		R47:R46,AR14,AR10
		SNOP		1
		SLDW		*AR10, R46
		SNOP		5
		SADD.M1		R42,R46,R44
		SMOVIL		-432, R48
		SMOVIL		-1, R49
		SADDA.M1		R49:R48,AR14,AR10
		SNOP		1
		SLDW		*AR10, R47
		SNOP		5
		SLTU		R44, R47, R46
		SMOVIL		-428, R48
		SMOVIL		-1, R49
		SADDA.M1		R49:R48,AR14,AR10
		SNOP		1
		SLDW		*AR10, R47
		SNOP		5
		SADD.M1		R43,R47,R45
		SADD.M1		R45,R46,R42
		SMOV.M1		R42, R45
		SMOV.M1		R44, R42
		SMOV.M1		R45, R43
		SSHFLR		28, R42, R44
		SSHFLL		4, R43, R45
		SMOVIL		-452, R46
		SMOVIL		-1, R47
		SADDA.M1		R47:R46,AR14,AR10
		SNOP		1
		SSTW		R45, *AR10
		SMOVIL		-452, R46
		SMOVIL		-1, R47
		SADDA.M1		R47:R46,AR14,AR10
		SNOP		1
		SLDW		*AR10, R45
		SNOP		5
		SOR		R45, R44, R45
		SMOVIL		-452, R46
		SMOVIL		-1, R47
		SADDA.M1		R47:R46,AR14,AR10
		SNOP		1
		SSTW		R45, *AR10
		SSHFLL		4, R42, R46
		SMOVIL		-456, R44
		SMOVIL		-1, R45
		SADDA.M1		R45:R44,AR14,AR10
		SNOP		1
		SSTW		R46, *AR10
		SMOVIL		8, R42
		SMOVIL		0, R43
		SMOVIL		-456, R46
		SMOVIL		-1, R47
		SADDA.M1		R47:R46,AR14,AR10
		SNOP		1
		SLDW		*AR10, R46
		SNOP		5
		SADD.M1		R42,R46,R44
		SMOVIL		-456, R48
		SMOVIL		-1, R49
		SADDA.M1		R49:R48,AR14,AR10
		SNOP		1
		SLDW		*AR10, R47
		SNOP		5
		SLTU		R44, R47, R46
		SMOVIL		-452, R48
		SMOVIL		-1, R49
		SADDA.M1		R49:R48,AR14,AR10
		SNOP		1
		SLDW		*AR10, R47
		SNOP		5
		SADD.M1		R43,R47,R45
		SADD.M1		R45,R46,R42
		SMOV.M1		R42, R45
		SMOVIL		-128, R42
		SMOVIL		-1, R43
		SMOVIL		-64, R48
		SMOVIL		-1, R49
		SADDA.M1		R49:R48,AR14,OR11
		SNOP		1
		SADDA.M1		R43:R42,OR11,OR11
		SNOP		1
		SMVAAGL.M1		OR11, R43:R42
		SNOP		1
		SMVAAGH.M1		OR11, R43:R42
		SNOP		1
	;no-op trunc di R45:R44 to pdi R45:R44
		SMVAGA36.M1		R43:R42, AR10
		SNOP		1
		SLDDW		*AR10, R43:R42
		SNOP		5
		SMVAGA36.M1		R43:R42, OR11
		SNOP		1
		SADDA.M1		R45:R44,OR11,OR11
		SNOP		1
		SMVAAGL.M1		OR11, R51:R50
		SNOP		1
		SMVAAGH.M1		OR11, R51:R50
		SNOP		1
		SMOVIL		-76, R42
		SMOVIL		-1, R43
		SADDA.M1		R43:R42,AR14,AR10
		SNOP		1
		SLDW		*AR10, R44
		SNOP		5
		SMOVIL		-464, R42
		SMOVIL		-1, R43
		SADDA.M1		R43:R42,AR14,AR10
		SNOP		1
		SSTW		R44, *AR10
		SMOVIL		-76, R44
		SMOVIL		-1, R45
		SADDA.M1		R45:R44,AR14,AR10
		SNOP		1
		SLDW		*AR10, R42
		SNOP		5
		SSHFAR		31, R42, R42
		SMOVIL		-460, R44
		SMOVIL		-1, R45
		SADDA.M1		R45:R44,AR14,AR10
		SNOP		1
		SSTW		R42, *AR10
		SMOVIL		-68, R42
		SMOVIL		-1, R43
		SADDA.M1		R43:R42,AR14,AR10
		SNOP		1
		SLDW		*AR10, R44
		SNOP		5
		SMOVIL		-472, R42
		SMOVIL		-1, R43
		SADDA.M1		R43:R42,AR14,AR10
		SNOP		1
		SSTW		R44, *AR10
		SMOVIL		-68, R44
		SMOVIL		-1, R45
		SADDA.M1		R45:R44,AR14,AR10
		SNOP		1
		SLDW		*AR10, R42
		SNOP		5
		SSHFAR		31, R42, R42
		SMOVIL		-468, R44
		SMOVIL		-1, R45
		SADDA.M1		R45:R44,AR14,AR10
		SNOP		1
		SSTW		R42, *AR10
		SMOVIL		-104, R42
		SMOVIL		-1, R43
		SMOVIL		-64, R44
		SMOVIL		-1, R45
		SADDA.M1		R45:R44,AR14,OR11
		SNOP		1
		SADDA.M1		R43:R42,OR11,OR11
		SNOP		1
		SMVAAGL.M1		OR11, R43:R42
		SNOP		1
		SMVAAGH.M1		OR11, R43:R42
		SNOP		1
		SMVAGA36.M1		R43:R42, AR10
		SNOP		1
		SLDW		*AR10, R46
		SNOP		5
		SMOVIL		-480, R44
		SMOVIL		-1, R45
		SADDA.M1		R45:R44,AR14,AR10
		SNOP		1
		SSTW		R46, *AR10
		SMVAGA36.M1		R43:R42, AR10
		SNOP		1
		SLDW		*AR10, R42
		SNOP		5
		SSHFAR		31, R42, R42
		SMOVIL		-476, R44
		SMOVIL		-1, R45
		SADDA.M1		R45:R44,AR14,AR10
		SNOP		1
		SSTW		R42, *AR10
		SMOVIL		-468, R44
		SMOVIL		-1, R45
		SADDA.M1		R45:R44,AR14,AR10
		SNOP		1
		SLDW		*AR10, R42
		SNOP		5
		SMOVIL		-480, R44
		SMOVIL		-1, R45
		SADDA.M1		R45:R44,AR14,AR10
		SNOP		1
		SLDW		*AR10, R44
		SNOP		5
		SMULIS.M1		R44,R42,R43
		SNOP		2
		SMOVIL		-476, R44
		SMOVIL		-1, R45
		SADDA.M1		R45:R44,AR14,AR10
		SNOP		1
		SLDW		*AR10, R46
		SNOP		5
		SMOVIL		-472, R44
		SMOVIL		-1, R45
		SADDA.M1		R45:R44,AR14,AR10
		SNOP		1
		SLDW		*AR10, R44
		SNOP		5
		SMULIS.M1		R44,R46,R42
		SNOP		2
		SADD.M1		R42,R43,R44
		SMOVIL		-472, R46
		SMOVIL		-1, R47
		SADDA.M1		R47:R46,AR14,AR10
		SNOP		1
		SLDW		*AR10, R45
		SNOP		5
		SMOVIL		-480, R46
		SMOVIL		-1, R47
		SADDA.M1		R47:R46,AR14,AR10
		SNOP		1
		SLDW		*AR10, R46
		SNOP		5
		SMULU.M1		R46,R45,R43:R42
		SNOP		3
		SADD.M1		R43,R44,R44
		SMOV.M1		R44, R43
		SMOVIL		-464, R46
		SMOVIL		-1, R47
		SADDA.M1		R47:R46,AR14,AR10
		SNOP		1
		SLDW		*AR10, R46
		SNOP		5
		SADD.M1		R42,R46,R44
		SMOVIL		-464, R48
		SMOVIL		-1, R49
		SADDA.M1		R49:R48,AR14,AR10
		SNOP		1
		SLDW		*AR10, R47
		SNOP		5
		SLTU		R44, R47, R46
		SMOVIL		-460, R48
		SMOVIL		-1, R49
		SADDA.M1		R49:R48,AR14,AR10
		SNOP		1
		SLDW		*AR10, R47
		SNOP		5
		SADD.M1		R43,R47,R45
		SADD.M1		R45,R46,R42
		SMOV.M1		R42, R45
		SMOV.M1		R44, R42
		SMOV.M1		R45, R43
		SSHFLR		28, R42, R44
		SSHFLL		4, R43, R45
		SMOVIL		-484, R46
		SMOVIL		-1, R47
		SADDA.M1		R47:R46,AR14,AR10
		SNOP		1
		SSTW		R45, *AR10
		SMOVIL		-484, R46
		SMOVIL		-1, R47
		SADDA.M1		R47:R46,AR14,AR10
		SNOP		1
		SLDW		*AR10, R45
		SNOP		5
		SOR		R45, R44, R45
		SMOVIL		-484, R46
		SMOVIL		-1, R47
		SADDA.M1		R47:R46,AR14,AR10
		SNOP		1
		SSTW		R45, *AR10
		SSHFLL		4, R42, R46
		SMOVIL		-488, R44
		SMOVIL		-1, R45
		SADDA.M1		R45:R44,AR14,AR10
		SNOP		1
		SSTW		R46, *AR10
		SMOVIL		8, R42
		SMOVIL		0, R43
		SMOVIL		-488, R46
		SMOVIL		-1, R47
		SADDA.M1		R47:R46,AR14,AR10
		SNOP		1
		SLDW		*AR10, R46
		SNOP		5
		SADD.M1		R42,R46,R44
		SMOVIL		-488, R48
		SMOVIL		-1, R49
		SADDA.M1		R49:R48,AR14,AR10
		SNOP		1
		SLDW		*AR10, R47
		SNOP		5
		SLTU		R44, R47, R46
		SMOVIL		-484, R48
		SMOVIL		-1, R49
		SADDA.M1		R49:R48,AR14,AR10
		SNOP		1
		SLDW		*AR10, R47
		SNOP		5
		SADD.M1		R43,R47,R45
		SADD.M1		R45,R46,R42
		SMOV.M1		R42, R45
		SMOVIL		-128, R42
		SMOVIL		-1, R43
		SMOVIL		-64, R48
		SMOVIL		-1, R49
		SADDA.M1		R49:R48,AR14,OR11
		SNOP		1
		SADDA.M1		R43:R42,OR11,OR11
		SNOP		1
		SMVAAGL.M1		OR11, R43:R42
		SNOP		1
		SMVAAGH.M1		OR11, R43:R42
		SNOP		1
	;no-op trunc di R45:R44 to pdi R45:R44
		SMVAGA36.M1		R43:R42, AR10
		SNOP		1
		SLDDW		*AR10, R43:R42
		SNOP		5
		SMVAGA36.M1		R43:R42, OR11
		SNOP		1
		SADDA.M1		R45:R44,OR11,OR11
		SNOP		1
		SMVAAGL.M1		OR11, R43:R42
		SNOP		1
		SMVAAGH.M1		OR11, R43:R42
		SNOP		1
		SMVAGA36.M1		R43:R42, AR10
		SNOP		1
		SLDDW		*AR10, R49:R48
		SNOP		5
		SLDDW		*-AR14[13], R45:R44
		SNOP		5
		SMOVIL		-128, R46
		SMOVIL		-1, R47
		SADDA.M1		R47:R46,AR14,AR10
		SNOP		1
		SLDDW		*AR10, R43:R42
		SNOP		5
		SFMULD.M1		R45:R44, R43:R42, R47:R46
		SNOP		5
		SLDDW		*-AR14[14], R45:R44
		SNOP		5
		SLDDW		*-AR14[15], R43:R42
		SNOP		5
		SFMULD.M1		R45:R44, R43:R42, R43:R42
		SNOP		5
		SFADDD.M1		R47:R46, R43:R42, R43:R42
		SNOP		4
		SFSUBD.M1	R43:R42, R49:R48, R43:R42
		SNOP		4
		SMVAGA36.M1		R51:R50, AR10
		SNOP		1
		SSTDW		R43:R42, *AR10
	.loc 1 245 0 discriminator 2
		SMOVIL		-76, R42
		SMOVIL		-1, R43
		SADDA.M1		R43:R42,AR14,AR10
		SNOP		1
		SLDW		*AR10, R44
		SNOP		5
		SMOVIL		-496, R42
		SMOVIL		-1, R43
		SADDA.M1		R43:R42,AR14,AR10
		SNOP		1
		SSTW		R44, *AR10
		SMOVIL		-76, R44
		SMOVIL		-1, R45
		SADDA.M1		R45:R44,AR14,AR10
		SNOP		1
		SLDW		*AR10, R42
		SNOP		5
		SSHFAR		31, R42, R42
		SMOVIL		-492, R44
		SMOVIL		-1, R45
		SADDA.M1		R45:R44,AR14,AR10
		SNOP		1
		SSTW		R42, *AR10
		SMOVIL		-72, R42
		SMOVIL		-1, R43
		SADDA.M1		R43:R42,AR14,AR10
		SNOP		1
		SLDW		*AR10, R44
		SNOP		5
		SMOVIL		-504, R42
		SMOVIL		-1, R43
		SADDA.M1		R43:R42,AR14,AR10
		SNOP		1
		SSTW		R44, *AR10
		SMOVIL		-72, R44
		SMOVIL		-1, R45
		SADDA.M1		R45:R44,AR14,AR10
		SNOP		1
		SLDW		*AR10, R42
		SNOP		5
		SSHFAR		31, R42, R42
		SMOVIL		-500, R44
		SMOVIL		-1, R45
		SADDA.M1		R45:R44,AR14,AR10
		SNOP		1
		SSTW		R42, *AR10
		SMOVIL		-104, R42
		SMOVIL		-1, R43
		SMOVIL		-64, R44
		SMOVIL		-1, R45
		SADDA.M1		R45:R44,AR14,OR11
		SNOP		1
		SADDA.M1		R43:R42,OR11,OR11
		SNOP		1
		SMVAAGL.M1		OR11, R43:R42
		SNOP		1
		SMVAAGH.M1		OR11, R43:R42
		SNOP		1
		SMVAGA36.M1		R43:R42, AR10
		SNOP		1
		SLDW		*AR10, R46
		SNOP		5
		SMOVIL		-512, R44
		SMOVIL		-1, R45
		SADDA.M1		R45:R44,AR14,AR10
		SNOP		1
		SSTW		R46, *AR10
		SMVAGA36.M1		R43:R42, AR10
		SNOP		1
		SLDW		*AR10, R42
		SNOP		5
		SSHFAR		31, R42, R42
		SMOVIL		-508, R44
		SMOVIL		-1, R45
		SADDA.M1		R45:R44,AR14,AR10
		SNOP		1
		SSTW		R42, *AR10
		SMOVIL		-500, R44
		SMOVIL		-1, R45
		SADDA.M1		R45:R44,AR14,AR10
		SNOP		1
		SLDW		*AR10, R42
		SNOP		5
		SMOVIL		-512, R44
		SMOVIL		-1, R45
		SADDA.M1		R45:R44,AR14,AR10
		SNOP		1
		SLDW		*AR10, R44
		SNOP		5
		SMULIS.M1		R44,R42,R43
		SNOP		2
		SMOVIL		-508, R44
		SMOVIL		-1, R45
		SADDA.M1		R45:R44,AR14,AR10
		SNOP		1
		SLDW		*AR10, R46
		SNOP		5
		SMOVIL		-504, R44
		SMOVIL		-1, R45
		SADDA.M1		R45:R44,AR14,AR10
		SNOP		1
		SLDW		*AR10, R44
		SNOP		5
		SMULIS.M1		R44,R46,R42
		SNOP		2
		SADD.M1		R42,R43,R44
		SMOVIL		-504, R46
		SMOVIL		-1, R47
		SADDA.M1		R47:R46,AR14,AR10
		SNOP		1
		SLDW		*AR10, R45
		SNOP		5
		SMOVIL		-512, R46
		SMOVIL		-1, R47
		SADDA.M1		R47:R46,AR14,AR10
		SNOP		1
		SLDW		*AR10, R46
		SNOP		5
		SMULU.M1		R46,R45,R43:R42
		SNOP		3
		SADD.M1		R43,R44,R44
		SMOV.M1		R44, R43
		SMOVIL		-496, R46
		SMOVIL		-1, R47
		SADDA.M1		R47:R46,AR14,AR10
		SNOP		1
		SLDW		*AR10, R46
		SNOP		5
		SADD.M1		R42,R46,R44
		SMOVIL		-496, R48
		SMOVIL		-1, R49
		SADDA.M1		R49:R48,AR14,AR10
		SNOP		1
		SLDW		*AR10, R47
		SNOP		5
		SLTU		R44, R47, R46
		SMOVIL		-492, R48
		SMOVIL		-1, R49
		SADDA.M1		R49:R48,AR14,AR10
		SNOP		1
		SLDW		*AR10, R47
		SNOP		5
		SADD.M1		R43,R47,R45
		SADD.M1		R45,R46,R42
		SMOV.M1		R42, R45
		SMOV.M1		R44, R42
		SMOV.M1		R45, R43
		SSHFLR		28, R42, R44
		SSHFLL		4, R43, R45
		SMOVIL		-516, R46
		SMOVIL		-1, R47
		SADDA.M1		R47:R46,AR14,AR10
		SNOP		1
		SSTW		R45, *AR10
		SMOVIL		-516, R46
		SMOVIL		-1, R47
		SADDA.M1		R47:R46,AR14,AR10
		SNOP		1
		SLDW		*AR10, R45
		SNOP		5
		SOR		R45, R44, R45
		SMOVIL		-516, R46
		SMOVIL		-1, R47
		SADDA.M1		R47:R46,AR14,AR10
		SNOP		1
		SSTW		R45, *AR10
		SSHFLL		4, R42, R46
		SMOVIL		-520, R44
		SMOVIL		-1, R45
		SADDA.M1		R45:R44,AR14,AR10
		SNOP		1
		SSTW		R46, *AR10
		SMOVIL		-520, R42
		SMOVIL		-1, R43
		SADDA.M1		R43:R42,AR14,AR10
		SNOP		1
		SLDDW		*AR10, R45:R44
		SNOP		5
	;no-op trunc di R45:R44 to pdi R45:R44
		SMOVIL		-184, R46
		SMOVIL		-1, R47
		SADDA.M1		R47:R46,AR14,AR10
		SNOP		1
		SLDDW		*AR10, R43:R42
		SNOP		5
		SMVAGA36.M1		R43:R42, OR11
		SNOP		1
		SADDA.M1		R45:R44,OR11,OR11
		SNOP		1
		SMVAAGL.M1		OR11, R43:R42
		SNOP		1
		SMVAAGH.M1		OR11, R43:R42
		SNOP		1
		SMVAGA36.M1		R43:R42, AR10
		SNOP		1
		SLDDW		*AR10, R43:R42
		SNOP		5
		SSTDW		R43:R42, *-AR14[15]
	.loc 1 246 0 discriminator 2
		SMOVIL		-76, R42
		SMOVIL		-1, R43
		SADDA.M1		R43:R42,AR14,AR10
		SNOP		1
		SLDW		*AR10, R44
		SNOP		5
		SMOVIL		-528, R42
		SMOVIL		-1, R43
		SADDA.M1		R43:R42,AR14,AR10
		SNOP		1
		SSTW		R44, *AR10
		SMOVIL		-76, R44
		SMOVIL		-1, R45
		SADDA.M1		R45:R44,AR14,AR10
		SNOP		1
		SLDW		*AR10, R42
		SNOP		5
		SSHFAR		31, R42, R42
		SMOVIL		-524, R44
		SMOVIL		-1, R45
		SADDA.M1		R45:R44,AR14,AR10
		SNOP		1
		SSTW		R42, *AR10
		SMOVIL		-72, R42
		SMOVIL		-1, R43
		SADDA.M1		R43:R42,AR14,AR10
		SNOP		1
		SLDW		*AR10, R44
		SNOP		5
		SMOVIL		-536, R42
		SMOVIL		-1, R43
		SADDA.M1		R43:R42,AR14,AR10
		SNOP		1
		SSTW		R44, *AR10
		SMOVIL		-72, R44
		SMOVIL		-1, R45
		SADDA.M1		R45:R44,AR14,AR10
		SNOP		1
		SLDW		*AR10, R42
		SNOP		5
		SSHFAR		31, R42, R42
		SMOVIL		-532, R44
		SMOVIL		-1, R45
		SADDA.M1		R45:R44,AR14,AR10
		SNOP		1
		SSTW		R42, *AR10
		SMOVIL		-104, R42
		SMOVIL		-1, R43
		SMOVIL		-64, R44
		SMOVIL		-1, R45
		SADDA.M1		R45:R44,AR14,OR11
		SNOP		1
		SADDA.M1		R43:R42,OR11,OR11
		SNOP		1
		SMVAAGL.M1		OR11, R43:R42
		SNOP		1
		SMVAAGH.M1		OR11, R43:R42
		SNOP		1
		SMVAGA36.M1		R43:R42, AR10
		SNOP		1
		SLDW		*AR10, R46
		SNOP		5
		SMOVIL		-544, R44
		SMOVIL		-1, R45
		SADDA.M1		R45:R44,AR14,AR10
		SNOP		1
		SSTW		R46, *AR10
		SMVAGA36.M1		R43:R42, AR10
		SNOP		1
		SLDW		*AR10, R42
		SNOP		5
		SSHFAR		31, R42, R42
		SMOVIL		-540, R44
		SMOVIL		-1, R45
		SADDA.M1		R45:R44,AR14,AR10
		SNOP		1
		SSTW		R42, *AR10
		SMOVIL		-532, R44
		SMOVIL		-1, R45
		SADDA.M1		R45:R44,AR14,AR10
		SNOP		1
		SLDW		*AR10, R42
		SNOP		5
		SMOVIL		-544, R44
		SMOVIL		-1, R45
		SADDA.M1		R45:R44,AR14,AR10
		SNOP		1
		SLDW		*AR10, R44
		SNOP		5
		SMULIS.M1		R44,R42,R43
		SNOP		2
		SMOVIL		-540, R44
		SMOVIL		-1, R45
		SADDA.M1		R45:R44,AR14,AR10
		SNOP		1
		SLDW		*AR10, R46
		SNOP		5
		SMOVIL		-536, R44
		SMOVIL		-1, R45
		SADDA.M1		R45:R44,AR14,AR10
		SNOP		1
		SLDW		*AR10, R44
		SNOP		5
		SMULIS.M1		R44,R46,R42
		SNOP		2
		SADD.M1		R42,R43,R44
		SMOVIL		-536, R46
		SMOVIL		-1, R47
		SADDA.M1		R47:R46,AR14,AR10
		SNOP		1
		SLDW		*AR10, R45
		SNOP		5
		SMOVIL		-544, R46
		SMOVIL		-1, R47
		SADDA.M1		R47:R46,AR14,AR10
		SNOP		1
		SLDW		*AR10, R46
		SNOP		5
		SMULU.M1		R46,R45,R43:R42
		SNOP		3
		SADD.M1		R43,R44,R44
		SMOV.M1		R44, R43
		SMOVIL		-528, R46
		SMOVIL		-1, R47
		SADDA.M1		R47:R46,AR14,AR10
		SNOP		1
		SLDW		*AR10, R46
		SNOP		5
		SADD.M1		R42,R46,R44
		SMOVIL		-528, R48
		SMOVIL		-1, R49
		SADDA.M1		R49:R48,AR14,AR10
		SNOP		1
		SLDW		*AR10, R47
		SNOP		5
		SLTU		R44, R47, R46
		SMOVIL		-524, R48
		SMOVIL		-1, R49
		SADDA.M1		R49:R48,AR14,AR10
		SNOP		1
		SLDW		*AR10, R47
		SNOP		5
		SADD.M1		R43,R47,R45
		SADD.M1		R45,R46,R42
		SMOV.M1		R42, R45
		SMOV.M1		R44, R42
		SMOV.M1		R45, R43
		SSHFLR		28, R42, R44
		SSHFLL		4, R43, R45
		SMOVIL		-548, R46
		SMOVIL		-1, R47
		SADDA.M1		R47:R46,AR14,AR10
		SNOP		1
		SSTW		R45, *AR10
		SMOVIL		-548, R46
		SMOVIL		-1, R47
		SADDA.M1		R47:R46,AR14,AR10
		SNOP		1
		SLDW		*AR10, R45
		SNOP		5
		SOR		R45, R44, R45
		SMOVIL		-548, R46
		SMOVIL		-1, R47
		SADDA.M1		R47:R46,AR14,AR10
		SNOP		1
		SSTW		R45, *AR10
		SSHFLL		4, R42, R46
		SMOVIL		-552, R44
		SMOVIL		-1, R45
		SADDA.M1		R45:R44,AR14,AR10
		SNOP		1
		SSTW		R46, *AR10
		SMOVIL		8, R42
		SMOVIL		0, R43
		SMOVIL		-552, R46
		SMOVIL		-1, R47
		SADDA.M1		R47:R46,AR14,AR10
		SNOP		1
		SLDW		*AR10, R46
		SNOP		5
		SADD.M1		R42,R46,R44
		SMOVIL		-552, R48
		SMOVIL		-1, R49
		SADDA.M1		R49:R48,AR14,AR10
		SNOP		1
		SLDW		*AR10, R47
		SNOP		5
		SLTU		R44, R47, R46
		SMOVIL		-548, R48
		SMOVIL		-1, R49
		SADDA.M1		R49:R48,AR14,AR10
		SNOP		1
		SLDW		*AR10, R47
		SNOP		5
		SADD.M1		R43,R47,R45
		SADD.M1		R45,R46,R42
		SMOV.M1		R42, R45
		SMOV.M1		R44, R42
		SMOV.M1		R45, R43
		SMOV.M1		R42, R44
		SMOV.M1		R43, R45
	;no-op trunc di R45:R44 to pdi R45:R44
		SMOVIL		-184, R46
		SMOVIL		-1, R47
		SADDA.M1		R47:R46,AR14,AR10
		SNOP		1
		SLDDW		*AR10, R43:R42
		SNOP		5
		SMVAGA36.M1		R43:R42, OR11
		SNOP		1
		SADDA.M1		R45:R44,OR11,OR11
		SNOP		1
		SMVAAGL.M1		OR11, R43:R42
		SNOP		1
		SMVAAGH.M1		OR11, R43:R42
		SNOP		1
		SMVAGA36.M1		R43:R42, AR10
		SNOP		1
		SLDDW		*AR10, R43:R42
		SNOP		5
		SMOVIL		-128, R44
		SMOVIL		-1, R45
		SADDA.M1		R45:R44,AR14,AR10
		SNOP		1
		SSTDW		R43:R42, *AR10
	.loc 1 247 0 discriminator 2
		SMOVIL		-76, R42
		SMOVIL		-1, R43
		SADDA.M1		R43:R42,AR14,AR10
		SNOP		1
		SLDW		*AR10, R44
		SNOP		5
		SMOVIL		-560, R42
		SMOVIL		-1, R43
		SADDA.M1		R43:R42,AR14,AR10
		SNOP		1
		SSTW		R44, *AR10
		SMOVIL		-76, R44
		SMOVIL		-1, R45
		SADDA.M1		R45:R44,AR14,AR10
		SNOP		1
		SLDW		*AR10, R42
		SNOP		5
		SSHFAR		31, R42, R42
		SMOVIL		-556, R44
		SMOVIL		-1, R45
		SADDA.M1		R45:R44,AR14,AR10
		SNOP		1
		SSTW		R42, *AR10
		SMOVIL		-68, R42
		SMOVIL		-1, R43
		SADDA.M1		R43:R42,AR14,AR10
		SNOP		1
		SLDW		*AR10, R44
		SNOP		5
		SMOVIL		-568, R42
		SMOVIL		-1, R43
		SADDA.M1		R43:R42,AR14,AR10
		SNOP		1
		SSTW		R44, *AR10
		SMOVIL		-68, R44
		SMOVIL		-1, R45
		SADDA.M1		R45:R44,AR14,AR10
		SNOP		1
		SLDW		*AR10, R42
		SNOP		5
		SSHFAR		31, R42, R42
		SMOVIL		-564, R44
		SMOVIL		-1, R45
		SADDA.M1		R45:R44,AR14,AR10
		SNOP		1
		SSTW		R42, *AR10
		SMOVIL		-104, R42
		SMOVIL		-1, R43
		SMOVIL		-64, R44
		SMOVIL		-1, R45
		SADDA.M1		R45:R44,AR14,OR11
		SNOP		1
		SADDA.M1		R43:R42,OR11,OR11
		SNOP		1
		SMVAAGL.M1		OR11, R43:R42
		SNOP		1
		SMVAAGH.M1		OR11, R43:R42
		SNOP		1
		SMVAGA36.M1		R43:R42, AR10
		SNOP		1
		SLDW		*AR10, R46
		SNOP		5
		SMOVIL		-576, R44
		SMOVIL		-1, R45
		SADDA.M1		R45:R44,AR14,AR10
		SNOP		1
		SSTW		R46, *AR10
		SMVAGA36.M1		R43:R42, AR10
		SNOP		1
		SLDW		*AR10, R42
		SNOP		5
		SSHFAR		31, R42, R42
		SMOVIL		-572, R44
		SMOVIL		-1, R45
		SADDA.M1		R45:R44,AR14,AR10
		SNOP		1
		SSTW		R42, *AR10
		SMOVIL		-564, R44
		SMOVIL		-1, R45
		SADDA.M1		R45:R44,AR14,AR10
		SNOP		1
		SLDW		*AR10, R42
		SNOP		5
		SMOVIL		-576, R44
		SMOVIL		-1, R45
		SADDA.M1		R45:R44,AR14,AR10
		SNOP		1
		SLDW		*AR10, R44
		SNOP		5
		SMULIS.M1		R44,R42,R43
		SNOP		2
		SMOVIL		-572, R44
		SMOVIL		-1, R45
		SADDA.M1		R45:R44,AR14,AR10
		SNOP		1
		SLDW		*AR10, R46
		SNOP		5
		SMOVIL		-568, R44
		SMOVIL		-1, R45
		SADDA.M1		R45:R44,AR14,AR10
		SNOP		1
		SLDW		*AR10, R44
		SNOP		5
		SMULIS.M1		R44,R46,R42
		SNOP		2
		SADD.M1		R42,R43,R44
		SMOVIL		-568, R46
		SMOVIL		-1, R47
		SADDA.M1		R47:R46,AR14,AR10
		SNOP		1
		SLDW		*AR10, R45
		SNOP		5
		SMOVIL		-576, R46
		SMOVIL		-1, R47
		SADDA.M1		R47:R46,AR14,AR10
		SNOP		1
		SLDW		*AR10, R46
		SNOP		5
		SMULU.M1		R46,R45,R43:R42
		SNOP		3
		SADD.M1		R43,R44,R44
		SMOV.M1		R44, R43
		SMOVIL		-560, R46
		SMOVIL		-1, R47
		SADDA.M1		R47:R46,AR14,AR10
		SNOP		1
		SLDW		*AR10, R46
		SNOP		5
		SADD.M1		R42,R46,R44
		SMOVIL		-560, R48
		SMOVIL		-1, R49
		SADDA.M1		R49:R48,AR14,AR10
		SNOP		1
		SLDW		*AR10, R47
		SNOP		5
		SLTU		R44, R47, R46
		SMOVIL		-556, R48
		SMOVIL		-1, R49
		SADDA.M1		R49:R48,AR14,AR10
		SNOP		1
		SLDW		*AR10, R47
		SNOP		5
		SADD.M1		R43,R47,R45
		SADD.M1		R45,R46,R42
		SMOV.M1		R42, R45
		SMOV.M1		R44, R42
		SMOV.M1		R45, R43
		SSHFLR		28, R42, R44
		SSHFLL		4, R43, R45
		SMOVIL		-580, R46
		SMOVIL		-1, R47
		SADDA.M1		R47:R46,AR14,AR10
		SNOP		1
		SSTW		R45, *AR10
		SMOVIL		-580, R46
		SMOVIL		-1, R47
		SADDA.M1		R47:R46,AR14,AR10
		SNOP		1
		SLDW		*AR10, R45
		SNOP		5
		SOR		R45, R44, R45
		SMOVIL		-580, R46
		SMOVIL		-1, R47
		SADDA.M1		R47:R46,AR14,AR10
		SNOP		1
		SSTW		R45, *AR10
		SSHFLL		4, R42, R46
		SMOVIL		-584, R44
		SMOVIL		-1, R45
		SADDA.M1		R45:R44,AR14,AR10
		SNOP		1
		SSTW		R46, *AR10
		SMOVIL		-584, R42
		SMOVIL		-1, R43
		SADDA.M1		R43:R42,AR14,AR10
		SNOP		1
		SLDDW		*AR10, R45:R44
		SNOP		5
	;no-op trunc di R45:R44 to pdi R45:R44
		SMOVIL		-184, R46
		SMOVIL		-1, R47
		SADDA.M1		R47:R46,AR14,AR10
		SNOP		1
		SLDDW		*AR10, R43:R42
		SNOP		5
		SMVAGA36.M1		R43:R42, OR11
		SNOP		1
		SADDA.M1		R45:R44,OR11,OR11
		SNOP		1
		SMVAAGL.M1		OR11, R51:R50
		SNOP		1
		SMVAAGH.M1		OR11, R51:R50
		SNOP		1
		SMOVIL		-76, R42
		SMOVIL		-1, R43
		SADDA.M1		R43:R42,AR14,AR10
		SNOP		1
		SLDW		*AR10, R44
		SNOP		5
		SMOVIL		-592, R42
		SMOVIL		-1, R43
		SADDA.M1		R43:R42,AR14,AR10
		SNOP		1
		SSTW		R44, *AR10
		SMOVIL		-76, R44
		SMOVIL		-1, R45
		SADDA.M1		R45:R44,AR14,AR10
		SNOP		1
		SLDW		*AR10, R42
		SNOP		5
		SSHFAR		31, R42, R42
		SMOVIL		-588, R44
		SMOVIL		-1, R45
		SADDA.M1		R45:R44,AR14,AR10
		SNOP		1
		SSTW		R42, *AR10
		SMOVIL		-68, R42
		SMOVIL		-1, R43
		SADDA.M1		R43:R42,AR14,AR10
		SNOP		1
		SLDW		*AR10, R44
		SNOP		5
		SMOVIL		-600, R42
		SMOVIL		-1, R43
		SADDA.M1		R43:R42,AR14,AR10
		SNOP		1
		SSTW		R44, *AR10
		SMOVIL		-68, R44
		SMOVIL		-1, R45
		SADDA.M1		R45:R44,AR14,AR10
		SNOP		1
		SLDW		*AR10, R42
		SNOP		5
		SSHFAR		31, R42, R42
		SMOVIL		-596, R44
		SMOVIL		-1, R45
		SADDA.M1		R45:R44,AR14,AR10
		SNOP		1
		SSTW		R42, *AR10
		SMOVIL		-104, R42
		SMOVIL		-1, R43
		SMOVIL		-64, R44
		SMOVIL		-1, R45
		SADDA.M1		R45:R44,AR14,OR11
		SNOP		1
		SADDA.M1		R43:R42,OR11,OR11
		SNOP		1
		SMVAAGL.M1		OR11, R43:R42
		SNOP		1
		SMVAAGH.M1		OR11, R43:R42
		SNOP		1
		SMVAGA36.M1		R43:R42, AR10
		SNOP		1
		SLDW		*AR10, R46
		SNOP		5
		SMOVIL		-608, R44
		SMOVIL		-1, R45
		SADDA.M1		R45:R44,AR14,AR10
		SNOP		1
		SSTW		R46, *AR10
		SMVAGA36.M1		R43:R42, AR10
		SNOP		1
		SLDW		*AR10, R42
		SNOP		5
		SSHFAR		31, R42, R42
		SMOVIL		-604, R44
		SMOVIL		-1, R45
		SADDA.M1		R45:R44,AR14,AR10
		SNOP		1
		SSTW		R42, *AR10
		SMOVIL		-596, R44
		SMOVIL		-1, R45
		SADDA.M1		R45:R44,AR14,AR10
		SNOP		1
		SLDW		*AR10, R42
		SNOP		5
		SMOVIL		-608, R44
		SMOVIL		-1, R45
		SADDA.M1		R45:R44,AR14,AR10
		SNOP		1
		SLDW		*AR10, R44
		SNOP		5
		SMULIS.M1		R44,R42,R43
		SNOP		2
		SMOVIL		-604, R44
		SMOVIL		-1, R45
		SADDA.M1		R45:R44,AR14,AR10
		SNOP		1
		SLDW		*AR10, R46
		SNOP		5
		SMOVIL		-600, R44
		SMOVIL		-1, R45
		SADDA.M1		R45:R44,AR14,AR10
		SNOP		1
		SLDW		*AR10, R44
		SNOP		5
		SMULIS.M1		R44,R46,R42
		SNOP		2
		SADD.M1		R42,R43,R44
		SMOVIL		-600, R46
		SMOVIL		-1, R47
		SADDA.M1		R47:R46,AR14,AR10
		SNOP		1
		SLDW		*AR10, R45
		SNOP		5
		SMOVIL		-608, R46
		SMOVIL		-1, R47
		SADDA.M1		R47:R46,AR14,AR10
		SNOP		1
		SLDW		*AR10, R46
		SNOP		5
		SMULU.M1		R46,R45,R43:R42
		SNOP		3
		SADD.M1		R43,R44,R44
		SMOV.M1		R44, R43
		SMOVIL		-592, R46
		SMOVIL		-1, R47
		SADDA.M1		R47:R46,AR14,AR10
		SNOP		1
		SLDW		*AR10, R46
		SNOP		5
		SADD.M1		R42,R46,R44
		SMOVIL		-592, R48
		SMOVIL		-1, R49
		SADDA.M1		R49:R48,AR14,AR10
		SNOP		1
		SLDW		*AR10, R47
		SNOP		5
		SLTU		R44, R47, R46
		SMOVIL		-588, R48
		SMOVIL		-1, R49
		SADDA.M1		R49:R48,AR14,AR10
		SNOP		1
		SLDW		*AR10, R47
		SNOP		5
		SADD.M1		R43,R47,R45
		SADD.M1		R45,R46,R42
		SMOV.M1		R42, R45
		SMOV.M1		R44, R42
		SMOV.M1		R45, R43
		SSHFLR		28, R42, R44
		SSHFLL		4, R43, R45
		SMOVIL		-612, R46
		SMOVIL		-1, R47
		SADDA.M1		R47:R46,AR14,AR10
		SNOP		1
		SSTW		R45, *AR10
		SMOVIL		-612, R46
		SMOVIL		-1, R47
		SADDA.M1		R47:R46,AR14,AR10
		SNOP		1
		SLDW		*AR10, R45
		SNOP		5
		SOR		R45, R44, R45
		SMOVIL		-612, R46
		SMOVIL		-1, R47
		SADDA.M1		R47:R46,AR14,AR10
		SNOP		1
		SSTW		R45, *AR10
		SSHFLL		4, R42, R46
		SMOVIL		-616, R44
		SMOVIL		-1, R45
		SADDA.M1		R45:R44,AR14,AR10
		SNOP		1
		SSTW		R46, *AR10
		SMOVIL		-616, R42
		SMOVIL		-1, R43
		SADDA.M1		R43:R42,AR14,AR10
		SNOP		1
		SLDDW		*AR10, R45:R44
		SNOP		5
	;no-op trunc di R45:R44 to pdi R45:R44
		SMOVIL		-184, R46
		SMOVIL		-1, R47
		SADDA.M1		R47:R46,AR14,AR10
		SNOP		1
		SLDDW		*AR10, R43:R42
		SNOP		5
		SMVAGA36.M1		R43:R42, OR11
		SNOP		1
		SADDA.M1		R45:R44,OR11,OR11
		SNOP		1
		SMVAAGL.M1		OR11, R43:R42
		SNOP		1
		SMVAAGH.M1		OR11, R43:R42
		SNOP		1
		SMVAGA36.M1		R43:R42, AR10
		SNOP		1
		SLDDW		*AR10, R49:R48
		SNOP		5
		SLDDW		*-AR14[13], R45:R44
		SNOP		5
		SLDDW		*-AR14[15], R43:R42
		SNOP		5
		SFMULD.M1		R45:R44, R43:R42, R47:R46
		SNOP		5
		SLDDW		*-AR14[14], R45:R44
		SNOP		5
		SMOVIL		-128, R52
		SMOVIL		-1, R53
		SADDA.M1		R53:R52,AR14,AR10
		SNOP		1
		SLDDW		*AR10, R43:R42
		SNOP		5
		SFMULD.M1		R45:R44, R43:R42, R43:R42
		SNOP		5
		SFSUBD.M1	R43:R42, R47:R46, R43:R42
		SNOP		4
		SFSUBD.M1	R43:R42, R49:R48, R43:R42
		SNOP		4
		SMVAGA36.M1		R51:R50, AR10
		SNOP		1
		SSTDW		R43:R42, *AR10
	.loc 1 248 0 discriminator 2
		SMOVIL		-76, R42
		SMOVIL		-1, R43
		SADDA.M1		R43:R42,AR14,AR10
		SNOP		1
		SLDW		*AR10, R44
		SNOP		5
		SMOVIL		-624, R42
		SMOVIL		-1, R43
		SADDA.M1		R43:R42,AR14,AR10
		SNOP		1
		SSTW		R44, *AR10
		SMOVIL		-76, R44
		SMOVIL		-1, R45
		SADDA.M1		R45:R44,AR14,AR10
		SNOP		1
		SLDW		*AR10, R42
		SNOP		5
		SSHFAR		31, R42, R42
		SMOVIL		-620, R44
		SMOVIL		-1, R45
		SADDA.M1		R45:R44,AR14,AR10
		SNOP		1
		SSTW		R42, *AR10
		SMOVIL		-68, R42
		SMOVIL		-1, R43
		SADDA.M1		R43:R42,AR14,AR10
		SNOP		1
		SLDW		*AR10, R44
		SNOP		5
		SMOVIL		-632, R42
		SMOVIL		-1, R43
		SADDA.M1		R43:R42,AR14,AR10
		SNOP		1
		SSTW		R44, *AR10
		SMOVIL		-68, R44
		SMOVIL		-1, R45
		SADDA.M1		R45:R44,AR14,AR10
		SNOP		1
		SLDW		*AR10, R42
		SNOP		5
		SSHFAR		31, R42, R42
		SMOVIL		-628, R44
		SMOVIL		-1, R45
		SADDA.M1		R45:R44,AR14,AR10
		SNOP		1
		SSTW		R42, *AR10
		SMOVIL		-104, R42
		SMOVIL		-1, R43
		SMOVIL		-64, R44
		SMOVIL		-1, R45
		SADDA.M1		R45:R44,AR14,OR11
		SNOP		1
		SADDA.M1		R43:R42,OR11,OR11
		SNOP		1
		SMVAAGL.M1		OR11, R43:R42
		SNOP		1
		SMVAAGH.M1		OR11, R43:R42
		SNOP		1
		SMVAGA36.M1		R43:R42, AR10
		SNOP		1
		SLDW		*AR10, R46
		SNOP		5
		SMOVIL		-640, R44
		SMOVIL		-1, R45
		SADDA.M1		R45:R44,AR14,AR10
		SNOP		1
		SSTW		R46, *AR10
		SMVAGA36.M1		R43:R42, AR10
		SNOP		1
		SLDW		*AR10, R42
		SNOP		5
		SSHFAR		31, R42, R42
		SMOVIL		-636, R44
		SMOVIL		-1, R45
		SADDA.M1		R45:R44,AR14,AR10
		SNOP		1
		SSTW		R42, *AR10
		SMOVIL		-628, R44
		SMOVIL		-1, R45
		SADDA.M1		R45:R44,AR14,AR10
		SNOP		1
		SLDW		*AR10, R42
		SNOP		5
		SMOVIL		-640, R44
		SMOVIL		-1, R45
		SADDA.M1		R45:R44,AR14,AR10
		SNOP		1
		SLDW		*AR10, R44
		SNOP		5
		SMULIS.M1		R44,R42,R43
		SNOP		2
		SMOVIL		-636, R44
		SMOVIL		-1, R45
		SADDA.M1		R45:R44,AR14,AR10
		SNOP		1
		SLDW		*AR10, R46
		SNOP		5
		SMOVIL		-632, R44
		SMOVIL		-1, R45
		SADDA.M1		R45:R44,AR14,AR10
		SNOP		1
		SLDW		*AR10, R44
		SNOP		5
		SMULIS.M1		R44,R46,R42
		SNOP		2
		SADD.M1		R42,R43,R44
		SMOVIL		-632, R46
		SMOVIL		-1, R47
		SADDA.M1		R47:R46,AR14,AR10
		SNOP		1
		SLDW		*AR10, R45
		SNOP		5
		SMOVIL		-640, R46
		SMOVIL		-1, R47
		SADDA.M1		R47:R46,AR14,AR10
		SNOP		1
		SLDW		*AR10, R46
		SNOP		5
		SMULU.M1		R46,R45,R43:R42
		SNOP		3
		SADD.M1		R43,R44,R44
		SMOV.M1		R44, R43
		SMOVIL		-624, R46
		SMOVIL		-1, R47
		SADDA.M1		R47:R46,AR14,AR10
		SNOP		1
		SLDW		*AR10, R46
		SNOP		5
		SADD.M1		R42,R46,R44
		SMOVIL		-624, R48
		SMOVIL		-1, R49
		SADDA.M1		R49:R48,AR14,AR10
		SNOP		1
		SLDW		*AR10, R47
		SNOP		5
		SLTU		R44, R47, R46
		SMOVIL		-620, R48
		SMOVIL		-1, R49
		SADDA.M1		R49:R48,AR14,AR10
		SNOP		1
		SLDW		*AR10, R47
		SNOP		5
		SADD.M1		R43,R47,R45
		SADD.M1		R45,R46,R42
		SMOV.M1		R42, R45
		SMOV.M1		R44, R42
		SMOV.M1		R45, R43
		SSHFLR		28, R42, R44
		SSHFLL		4, R43, R41
		SOR		R41, R44, R41
		SSHFLL		4, R42, R40
		SMOVIL		8, R42
		SMOVIL		0, R43
		SADD.M1		R42,R40,R44
		SLTU		R44, R40, R46
		SADD.M1		R43,R41,R45
		SADD.M1		R45,R46,R42
		SMOV.M1		R42, R45
		SMOV.M1		R44, R42
		SMOV.M1		R45, R43
		SMOV.M1		R42, R44
		SMOV.M1		R43, R45
	;no-op trunc di R45:R44 to pdi R45:R44
		SMOVIL		-184, R46
		SMOVIL		-1, R47
		SADDA.M1		R47:R46,AR14,AR10
		SNOP		1
		SLDDW		*AR10, R43:R42
		SNOP		5
		SMVAGA36.M1		R43:R42, OR11
		SNOP		1
		SADDA.M1		R45:R44,OR11,OR11
		SNOP		1
