	.file	"main.c"
.text;
.Ltext0:
	.cfi_sections	.debug_frame
	.section	.const.str1.1,"aMS",@progbits,1
.LC0:
	.string	"%s = ["
.LC1:
	.string	"%f, "
.LC2:
	.string	"]"
	.section	.text.printMatrix,"ax",@progbits
	.align	2
	.global	printMatrix
	.type	printMatrix, @function
printMatrix:
.LFB3:
	.file 1 "../main.c"
	.loc 1 12 0
	.cfi_startproc
.LVL0:
		SMOVIL		-96, R6
		SMOVIL		-1, R7
		SADDA.M2		R7:R6,AR15,AR15
.LCFI0:
	.cfi_def_cfa_offset 96
		SMVAGA36.M1		R11:R10, OR11
	|	SMOVIL.L		.LC0, R42
		SSTDW		R63:R62, *+AR15[11]
		SSTDW		R31:R30, *+AR15[5]
	.cfi_offset 78, -8
	.cfi_offset 79, -4
	.cfi_offset 46, -56
	.cfi_offset 47, -52
	.loc 1 14 0
		SMOVIH.L		.LC0, R42
	|	SMVAAGL.M2		OR11, R31:R30
		SMOVIH4.L		.LC0, R43
		SSTDW		R13:R12, *+AR15[2]
	|	SMVAAGH.M2		OR11, R31:R30
		SSTDW		R43:R42, *+AR15[1]
		SNOP		2
	.loc 1 12 0
		SSTDW		R41:R40, *+AR15[10]
		SSTDW		R39:R38, *+AR15[9]
	.cfi_offset 56, -16
	.cfi_offset 57, -12
	.cfi_offset 54, -24
	.cfi_offset 55, -20
		SMOV.M2		R16, R39
	|	SMOV.M1		R30, R40
	.loc 1 14 0
		SBR		printf
	|	SSHFLL		2, R39, R38
	|	SMOV.M2		R31, R41
	.loc 1 12 0
		SSTDW		R37:R36, *+AR15[8]
	|	SMOVIL		.L14, R62
	.cfi_offset 52, -32
	.cfi_offset 53, -28
		SSTDW		R33:R32, *+AR15[6]
	|	SMOVIH		.L14, R62
		SMOVIH4.L		.L14, R63
	.loc 1 15 0
		SMOVIL		0, R36
	.loc 1 12 0
		SSTDW		R35:R34, *+AR15[7]
	.cfi_offset 48, -48
	.cfi_offset 49, -44
	.cfi_offset 50, -40
	.cfi_offset 51, -36
	.loc 1 14 0
	;; call to printf occurs, with return value
		SSTW		R14, *+AR15[7]
	|	SMOVIL.L		.LC1, R32
.LVL1:
.L14:
	.loc 1 15 0
		SMOVIL		0, R43
	|	SADD.M2		-1,R39,R1
	.loc 1 12 0
		SSHFLL		1, R39, R44
	.loc 1 15 0
		SLDW		*+AR15[7], R42
	|	SSHFLL		1, R1, R45
	.loc 1 12 0
		SSHFAR		31, R39, R46
		SSHFLL		2, R1, R2
		SLTU		R44, R39, R47
	|	SADD.M2		4,R2,R37
		SSHFLL		1, R46, R3
		SLTU		R45, R1, R8
	|	SADD.M2		R3,R47,R9
	.loc 1 15 0
		SLT		R43, R42, R0
	[!R0]	SBR		.L2
	|	SLTU		R2, R45, R10
	.loc 1 12 0
		SLTU		R38, R44, R12
		SSHFLL		1, R9, R14
		SLTU		R37, R2, R15
	|	SADD.M2		R14,R12,R16
		SLT		R36, R39, R39
.LVL2:
		SMOVIH.L		.LC1, R32
		SMOVIH4.L		.LC1, R33
	;; condjump to .L2 occurs
		SSHFLL		1, R8, R11
	|	SSTW		R16, *+AR15[8]
		SADD.M2		R11,R10,R13
		SADD.M2		R13,R15,R17
		SSTW		R17, *+AR15[9]
.LVL3:
.L3:
	.loc 1 12 0 is_stmt 0 discriminator 1
		SLDW		*+AR15[9], R18
	|	SMOV.M2		R39, R0
	|	SADD.M1		R40,R37,R34
	.loc 1 17 0 is_stmt 1 discriminator 1
	[!R0]	SBR		.L5
	|	SLTU		R34, R37, R35
	|	SMOV.M2		R40, R30
	|	SMOV.M1		R41, R31
	.loc 1 12 0 discriminator 1
		SNOP		4
		SADD.M2		R41,R18,R19
		SADD.M2		R19,R35,R35
	;; condjump to .L5 occurs
.LVL4:
.L4:
	.loc 1 12 0 is_stmt 0 discriminator 2
		SMVAGA36.M2		R31:R30, AR10
	|	SADD.M1		4,R30,R20
		SLTU		R20, R30, R21
	|	SMOV.M1		R20, R30
	.loc 1 19 0 is_stmt 1 discriminator 2
		SLDW		*AR10, R23
	|	SADD.M2		R31,R21,R31
		SSTDW		R33:R32, *+AR15[1]
		SNOP		2
		SBR		printf
		SMOVIL		.L15, R62
		SFSPDP32T.M2		R23, R25:R24
	|	SMOVIH		.L15, R62
		SMOVIH4.L		.L15, R63
		SSTDW		R25:R24, *+AR15[2]
	;; call to printf occurs, with return value
		SNOP		2
.LVL5:
.L15:
	.loc 1 17 0 discriminator 2
		SEQ		R30, R34, R1
	[R1]	SEQ		R31, R35, R1
	[!R1]	SBR		.L4
		SNOP		6
	;; condjump to .L4 occurs
.L5:
	.loc 1 21 0
		SBR		putchar
	|	SMOVIL		10, R10
	|	SADD.M2		1,R36,R36
	.loc 1 15 0
		SMOVIL		.L16, R62
		SMOVIH		.L16, R62
		SMOVIH4.L		.L16, R63
	.loc 1 21 0
	;; call to putchar occurs, with return value
		SNOP		3
.LVL6:
.L16:
	.loc 1 15 0
		SLDW		*+AR15[7], R28
	|	SADD.M2		R40,R38,R25
		SLDW		*+AR15[8], R26
	|	SLTU		R25, R40, R29
	|	SMOV.M2		R25, R40
		SNOP		4
		SEQ		R28, R36, R2
	[!R2]	SBR		.L3
	|	SADD.M2		R41,R26,R27
		SADD.M2		R27,R29,R41
		SNOP		5
	;; condjump to .L3 occurs
.LVL7:
.L2:
	.loc 1 24 0
		SMOVIL		96, R6
	|	SLDDW		*+AR15[5], R31:R30
		SMOVIL		0, R7
	|	SLDDW		*+AR15[6], R33:R32
		SLDDW		*+AR15[7], R35:R34
	|	SMOVIL.L		.LC2, R10
		SLDDW		*+AR15[8], R37:R36
	|	SMOVIH.L		.LC2, R10
		SLDDW		*+AR15[9], R39:R38
	|	SMOVIH4.L		.LC2, R11
	.loc 1 23 0
		SNOP		5
		SBR		puts
	|	SLDDW		*+AR15[10], R41:R40
	.loc 1 24 0
		SLDDW		*+AR15[11], R63:R62
	|	SADDA.M2		R7:R6,AR15,AR15
	.loc 1 23 0
	;; sibcall to puts occurs
		SNOP		5
.LVL8:
	.cfi_endproc
.LFE3:
	.size	printMatrix, .-printMatrix
	.section	.text.DSPF_sp_qrd_cmplx_wrapper,"ax",@progbits
	.align	2
	.global	DSPF_sp_qrd_cmplx_wrapper
	.type	DSPF_sp_qrd_cmplx_wrapper, @function
DSPF_sp_qrd_cmplx_wrapper:
.LFB4:
	.loc 1 38 0
	.cfi_startproc
.LVL9:
		SMOVIL		-72, R6
		SMOVIL		-1, R7
		SADDA.M2		R7:R6,AR15,AR15
.LCFI1:
	.cfi_def_cfa_offset 72
		SMVAAGL.M1		AR14, R7:R6
	|	SMVAGA36.M2		R25:R24, OR11
		SSTDW		R63:R62, *+AR15[7]
	.cfi_offset 78, -16
	.cfi_offset 79, -12
	.cfi_offset 50, -48
	.cfi_offset 51, -44
		SMVAAGH.M1		AR14, R7:R6
	|	SMVAGA36.M2		R19:R18, OR12
	|	SSTDW		R35:R34, *+AR15[3]
		SMVAGA36.M1		R21:R20, OR13
	|	SMVAGA36.M2		R11:R10, AR14
	|	SMOVIL		0, R10
	.loc 1 39 0
		SNOP		1
.LVL10:
	.loc 1 38 0
		SSTDW		R7:R6, *+AR15[8]
	.cfi_offset 14, -8
	.cfi_offset 48, -56
	.cfi_offset 49, -52
		SMVAAGL.M1		OR8, R7:R6
	|	SMVAAGL.M2		OR13, R35:R34
	|	SSTDW		R33:R32, *+AR15[2]
		SMVAAGL.M1		OR12, R33:R32
		SMVAAGH.M1		OR8, R7:R6
	|	SMVAAGH.M2		OR13, R35:R34
		SSTDW		R31:R30, *+AR15[1]
		SSTDW		R7:R6, *+AR15[6]
	.cfi_offset 46, -64
	.cfi_offset 47, -60
	.cfi_offset 88, -24
	.loc 1 39 0
		SBR		GetTimerCount
	|	SMVAAGL.M1		OR11, R31:R30
	|	SMVAGA36.M2		R23:R22, OR8
	.loc 1 38 0
		SMVAAGH.M1		OR12, R33:R32
	|	SMVAAGL.M2		AR8, R7:R6
	|	SMOVIL		.L18, R62
	.cfi_offset 52, -40
	.cfi_offset 53, -36
		SMVAAGH.M1		OR11, R31:R30
	|	SSTDW		R37:R36, *+AR15[4]
	|	SMOVIH		.L18, R62
		SMVAAGH.M1		AR8, R7:R6
	|	SMVAGA36.M2		R13:R12, AR8
	|	SMOVIH4.L		.L18, R63
		SNOP		1
		SSTDW		R7:R6, *+AR15[5]
	.cfi_offset 8, -32
	.loc 1 39 0
	;; call to GetTimerCount occurs, with return value
		SMOV.M2		R14, R36
	|	SMOV.M1		R16, R37
.LVL11:
.L18:
	.loc 1 40 0
		SMVAAGL.M1		OR8, R19:R18
	|	SMVAGA36.M2		R33:R32, OR14
		SMVAGA36.M1		R35:R34, OR11
	|	SSTW		R10, *AR14
		SMVAAGH.M1		OR8, R19:R18
	|	SMVAGA36.M2		R31:R30, OR8
.LVL12:
		SBR		DSPF_sp_qrd_cmplx_cn
	|	SMVAAGL.M1		OR14, R15:R14
	|	SMVAAGL.M2		OR11, R17:R16
		SMVAAGL.M1		OR8, R21:R20
	|	SMOVIL		.L19, R62
		SMVAAGH.M1		OR14, R15:R14
	|	SMVAAGH.M2		OR11, R17:R16
	|	SMOVIH		.L19, R62
		SMVAAGH.M1		OR8, R21:R20
	|	SMOVIH4.L		.L19, R63
		SMOV.M2		R37, R12
		SMOV.M2		R36, R10
	;; call to DSPF_sp_qrd_cmplx_cn occurs, with return value
		SNOP		1
.LVL13:
.L19:
	.loc 1 41 0
		SBR		GetTimerCount
	|	SMOV.M2		R10, R31
	|	SMOVIL		0, R10
.LVL14:
		SMOVIL		.L20, R62
		SMOVIH		.L20, R62
		SMOVIH4.L		.L20, R63
	;; call to GetTimerCount occurs, with return value
		SNOP		3
.LVL15:
	.loc 1 43 0
.L20:
		SLDDW		*+AR15[5], R7:R6
	.loc 1 41 0
		SSTW		R10, *AR8
	|	SMOV.M2		R31, R10
	.loc 1 43 0
		SLDDW		*+AR15[7], R63:R62
		SNOP		1
		SLDDW		*+AR15[1], R31:R30
		SNOP		1
		SMVAGA36.M2		R7:R6, AR8
	|	SLDDW		*+AR15[6], R7:R6
.LVL16:
		SNOP		1
		SLDDW		*+AR15[2], R33:R32
	|	SMVCGC.L		R63, BRReg
		SNOP		1
		SLDDW		*+AR15[3], R35:R34
		SNOP		1
		SMVAGA36.M2		R7:R6, OR8
	|	SLDDW		*+AR15[8], R7:R6
		SNOP		1
		SLDDW		*+AR15[4], R37:R36
.LVL17:
		SBR		R62
		SNOP		2
		SMVAGA36.M2		R7:R6, AR14
	|	SMOVIL		72, R6
.LVL18:
		SMOVIL		0, R7
		SADDA.M2		R7:R6,AR15,AR15
		SNOP		1
	;; return occurs
	.cfi_endproc
.LFE4:
	.size	DSPF_sp_qrd_cmplx_wrapper, .-DSPF_sp_qrd_cmplx_wrapper
	.section	.const.str1.1
.LC3:
	.string	"x"
.LC4:
	.string	"y"
	.section	.text.DSPF_sp_qrd_solver_cmplx_wrapper,"ax",@progbits
	.align	2
	.global	DSPF_sp_qrd_solver_cmplx_wrapper
	.type	DSPF_sp_qrd_solver_cmplx_wrapper, @function
DSPF_sp_qrd_solver_cmplx_wrapper:
.LFB5:
	.loc 1 46 0
	.cfi_startproc
.LVL19:
		SMOVIL		-128, R6
		SMOVIL		-1, R7
		SADDA.M2		R7:R6,AR15,AR15
.LCFI2:
	.cfi_def_cfa_offset 128
		SMVAAGL.M1		AR14, R7:R6
	|	SMVAGA36.M2		R19:R18, OR11
	|	SMOVIL.L		v_Q, R44
		SSTDW		R63:R62, *+AR15[14]
	.cfi_offset 78, -16
	.cfi_offset 79, -12
	.cfi_offset 56, -56
	.cfi_offset 57, -52
		SMVAAGH.M1		AR14, R7:R6
	|	SMVAGA36.M2		R23:R22, OR12
	|	SMOVIH.L		v_Q, R44
	|	SSTDW		R41:R40, *+AR15[9]
		SMVAAGL.M1		OR11, R43:R42
	|	SMOVIH4.L		v_Q, R45
	|	SMVAGA36.M2		R13:R12, AR14
	.loc 1 54 0
		SSHFLL		3, R14, R40
	|	SMVAGA36.M1		R45:R44, AR10
	.loc 1 46 0
		SSTDW		R7:R6, *+AR15[15]
	.cfi_offset 14, -8
	.cfi_offset 52, -72
	.cfi_offset 53, -68
		SMVAAGL.M1		OR9, R7:R6
	|	SMULIS.M2		R16,R40,R41
	|	SSTDW		R37:R36, *+AR15[7]
	.loc 1 56 0
		SMOVIL.L		v_b, R46
	|	SMVAAGH.M1		OR11, R43:R42
	.loc 1 46 0
		SMVAAGH.M1		OR9, R7:R6
	|	SMVAGA36.M2		R21:R20, OR9
	|	SMOVIH.L		v_b, R46
		SSTDW		R35:R34, *+AR15[6]
		SSTDW		R7:R6, *+AR15[13]
	.cfi_offset 50, -80
	.cfi_offset 51, -76
	.cfi_offset 89, -24
		SMVAAGL.M1		OR8, R7:R6
	|	SMVAAGL.M2		OR12, R35:R34
	|	SMOVIH4.L		v_b, R47
		SMVAAGL.M1		OR9, R37:R36
		SMVAAGH.M1		OR8, R7:R6
	|	SMVAAGH.M2		OR12, R35:R34
	|	SLDDW		*AR10, R13:R12
.LVL20:
		SMVAGA36.M1		R25:R24, OR8
	|	SMVAAGH.M2		OR9, R37:R36
	|	SSTW		R42, *+AR15[4]
		SSTDW		R7:R6, *+AR15[12]
	.cfi_offset 88, -32
		SMVAAGL.M1		AR9, R7:R6
	|	SMVAGA36.M2		R47:R46, OR9
	.loc 1 56 0
		SNOP		1
	.loc 1 46 0
		SMVAAGH.M1		AR9, R7:R6
	|	SMVAGA36.M2		R11:R10, AR9
	.loc 1 54 0
		SMVAAGL.M1		OR11, R11:R10
	|	SSTW		R43, *+AR15[3]
.LVL21:
	.loc 1 46 0
		SSTDW		R7:R6, *+AR15[11]
	.cfi_offset 9, -40
		SMVAAGL.M1		AR8, R7:R6
	|	SMVAAGH.M2		OR11, R11:R10
	.loc 1 54 0
		SNOP		1
	.loc 1 46 0
		SMVAAGH.M1		AR8, R7:R6
	|	SMVAGA36.M2		R27:R26, AR8
	|	SSTW		R44, *+AR15[7]
	.loc 1 54 0
		SSTW		R45, *+AR15[6]
		SNOP		2
	.loc 1 46 0
		SSTDW		R7:R6, *+AR15[10]
	.loc 1 54 0
		SSTW		R16, *+AR15[5]
		SBR		M7002_datatrans
		SMOVIL		.L22, R62
	.cfi_offset 8, -48
	.loc 1 46 0
		SSTDW		R39:R38, *+AR15[8]
	|	SMOVIH		.L22, R62
	.cfi_offset 54, -64
	.cfi_offset 55, -60
		SSTDW		R33:R32, *+AR15[5]
	|	SMOVIH4.L		.L22, R63
	.cfi_offset 48, -88
	.cfi_offset 49, -84
		SMOV.M2		R14, R39
	|	SMOV.M1		R41, R14
	|	SMOVIL.L		.LC3, R32
.LVL22:
	.loc 1 63 0
		SMOVIH.L		.LC3, R32
	.cfi_offset 46, -96
	.cfi_offset 47, -92
	.loc 1 54 0
	;; call to M7002_datatrans occurs
		SSTDW		R31:R30, *+AR15[4]
.LVL23:
.L22:
	.loc 1 55 0
		SMOVIH4.L		v_R, R47
	|	SMVAGA36.M2		R37:R36, OR13
	|	SMOV.M1		R41, R14
		SMOVIL.L		v_R, R46
		SMOVIH.L		v_R, R46
	|	SMVAAGL.M2		OR13, R11:R10
		SMVAGA36.M1		R47:R46, AR10
	|	SMOVIH4.L		.LC3, R33
		SBR		M7002_datatrans
	|	SMVAAGH.M1		OR13, R11:R10
	|	SMOVIL.L		.LC4, R30
		SLDDW		*AR10, R13:R12
	|	SMOVIL		.L23, R62
		SMOVIH		.L23, R62
		SMOVIH4.L		.L23, R63
	.loc 1 64 0
		SMOVIH.L		.LC4, R30
		SMOVIH4.L		.LC4, R31
	.loc 1 55 0
	;; call to M7002_datatrans occurs
		SSHFLL		1, R39, R38
.LVL24:
.L23:
	.loc 1 56 0
		SMVAAA.M1		OR9, AR10
	|	SMVAGA36.M2		R35:R34, OR14
		SBR		M7002_datatrans
		SLDDW		*AR10, R13:R12
	|	SMVAAGL.M2		OR14, R11:R10
	|	SMOV.M1		R40, R14
	|	SMOVIL		.L24, R62
		SMOVIH		.L24, R62
		SMVAAGH.M2		OR14, R11:R10
	|	SMOVIH4.L		.L24, R63
	;; call to M7002_datatrans occurs
		SNOP		3
.LVL25:
.L24:
	.loc 1 58 0
		SBR		GetTimerCount
	|	SMOVIL		0, R10
		SMOVIL		.L25, R62
		SMOVIH		.L25, R62
		SMOVIH4.L		.L25, R63
	;; call to GetTimerCount occurs, with return value
		SNOP		3
.LVL26:
.L25:
	.loc 1 59 0
		SLDW		*+AR15[7], R44
		SLDW		*+AR15[6], R45
		SLDW		*+AR15[5], R0
		SNOP		4
		SMVAGA36.M2		R45:R44, AR10
	|	SMOVIL.L		v_R, R44
		SMOVIH.L		v_R, R44
	|	SMOV.M1		R0, R12
		SMOVIH4.L		v_R, R45
	|	SLDDW		*AR10, R15:R14
		SMVAGA36.M2		R45:R44, AR10
	|	SMOVIL.L		v_y, R44
	|	SSTW		R10, *AR9
	|	SMOV.M1		R39, R10
		SMOVIH.L		v_y, R44
		SMOVIH4.L		v_y, R45
		SLDDW		*AR10, R17:R16
	|	SMVAAA.M1		OR9, AR10
	|	SMVAGA36.M2		R31:R30, OR9
	.loc 1 64 0
		SNOP		1
	.loc 1 59 0
		SLDDW		*AR10, R19:R18
	|	SMVAGA36.M2		R45:R44, AR10
	|	SMOVIL.L		v_x, R44
		SMOVIH.L		v_x, R44
		SMOVIH4.L		v_x, R45
	|	SLDDW		*AR10, R21:R20
		SMVAGA36.M2		R45:R44, AR10
		SNOP		1
		SBR		DSPF_sp_qrd_solver_cmplx_v1
		SLDDW		*AR10, R23:R22
	|	SMOVIL		.L26, R62
		SMOVIH		.L26, R62
		SMOVIH4.L		.L26, R63
	;; call to DSPF_sp_qrd_solver_cmplx_v1 occurs, with return value
		SNOP		3
.LVL27:
.L26:
	.loc 1 60 0
		SBR		GetTimerCount
	|	SMOVIL		0, R10
		SMOVIL		.L27, R62
		SMOVIH		.L27, R62
		SMOVIH4.L		.L27, R63
	;; call to GetTimerCount occurs, with return value
		SNOP		3
.LVL28:
.L27:
	.loc 1 61 0
		SMOVIL.L		v_x, R44
	|	SMVAAGL.M2		AR8, R13:R12
	|	SSTW		R10, *AR14
	|	SMOV.M1		R40, R14
		SMOVIH.L		v_x, R44
		SMOVIH4.L		v_x, R45
	|	SMVAAGH.M2		AR8, R13:R12
		SMVAGA36.M1		R45:R44, AR10
		SBR		M7002_datatrans
		SLDDW		*AR10, R11:R10
	|	SMOVIL		.L28, R62
		SMOVIH		.L28, R62
		SMOVIH4.L		.L28, R63
	;; call to M7002_datatrans occurs
		SNOP		3
.LVL29:
.L28:
	.loc 1 62 0
		SMOVIH4.L		v_y, R45
	|	SMVAAGL.M2		OR8, R13:R12
	|	SMOV.M1		R40, R14
		SMOVIL.L		v_y, R44
		SMOVIH.L		v_y, R44
	|	SMVAAGH.M2		OR8, R13:R12
		SMVAGA36.M1		R45:R44, AR10
		SBR		M7002_datatrans
		SLDDW		*AR10, R11:R10
	|	SMOVIL		.L29, R62
		SMOVIH		.L29, R62
		SMOVIH4.L		.L29, R63
	;; call to M7002_datatrans occurs
		SNOP		3
.LVL30:
.L29:
	.loc 1 63 0
		SBR		printMatrix
	|	SMVAGA36.M2		R33:R32, OR11
	|	SMOV.M1		R38, R16
	|	SMOVIL		1, R14
		SMVAAGL.M1		AR8, R11:R10
	|	SMOVIL		.L30, R62
		SMVAAGL.M1		OR11, R13:R12
	|	SMOVIH		.L30, R62
		SMVAAGH.M1		AR8, R11:R10
	|	SMOVIH4.L		.L30, R63
		SMVAAGH.M1		OR11, R13:R12
	;; call to printMatrix occurs
		SNOP		2
.LVL31:
.L30:
	.loc 1 64 0
		SBR		printMatrix
	|	SMOV.M1		R38, R16
	|	SMOVIL		1, R14
	|	SMVAAGL.M2		OR8, R11:R10
		SMVAAGL.M1		OR9, R13:R12
	|	SMOVIL		.L31, R62
		SMVAAGH.M1		OR8, R11:R10
	|	SMOVIH		.L31, R62
		SMVAAGH.M1		OR9, R13:R12
	|	SMOVIH4.L		.L31, R63
	;; call to printMatrix occurs
		SNOP		3
.LVL32:
.L31:
	.loc 1 68 0
		SBR		GetTimerCount
	|	SMOVIL		0, R10
		SMOVIL		.L32, R62
		SMOVIH		.L32, R62
		SMOVIH4.L		.L32, R63
	;; call to GetTimerCount occurs, with return value
		SNOP		3
.LVL33:
.L32:
	.loc 1 69 0
		SLDW		*+AR15[4], R42
	|	SMVAGA36.M1		R35:R34, OR14
	|	SMVAGA36.M2		R37:R36, OR13
		SLDW		*+AR15[3], R43
	|	SMVAAGL.M1		OR8, R21:R20
	|	SMVAAGL.M2		AR8, R23:R22
		SLDW		*+AR15[5], R1
	|	SMVAAGL.M1		OR13, R17:R16
	|	SMVAAGL.M2		OR14, R19:R18
		SMVAAGH.M1		OR8, R21:R20
	|	SMVAAGH.M2		AR8, R23:R22
		SMVAAGH.M1		OR13, R17:R16
	|	SMVAAGH.M2		OR14, R19:R18
		SNOP		1
		SBR		DSPF_sp_qrd_solver_cmplx_cn
		SMVAGA36.M2		R43:R42, OR12
	|	SMOVIL		.L33, R62
		SMOV.M1		R1, R12
	|	SSTW		R10, *AR9
	|	SMOVIH		.L33, R62
		SMVAAGL.M2		OR12, R15:R14
	|	SMOV.M1		R39, R10
	|	SMOVIH4.L		.L33, R63
		SNOP		1
		SMVAAGH.M2		OR12, R15:R14
	;; call to DSPF_sp_qrd_solver_cmplx_cn occurs, with return value
		SNOP		1
.LVL34:
.L33:
	.loc 1 70 0
		SBR		GetTimerCount
	|	SMOV.M2		R10, R35
	|	SMOVIL		0, R10
.LVL35:
		SMOVIL		.L34, R62
		SMOVIH		.L34, R62
		SMOVIH4.L		.L34, R63
	;; call to GetTimerCount occurs, with return value
		SNOP		3
.LVL36:
.L34:
	.loc 1 71 0
		SBR		printMatrix
	|	SMVAGA36.M2		R33:R32, OR11
	|	SSTW		R10, *AR14
	|	SMOV.M1		R38, R16
	|	SMOVIL		1, R14
		SMVAAGL.M1		AR8, R11:R10
	|	SMOVIL		.L35, R62
		SMVAAGL.M1		OR11, R13:R12
	|	SMOVIH		.L35, R62
		SMVAAGH.M1		AR8, R11:R10
	|	SMOVIH4.L		.L35, R63
		SMVAAGH.M1		OR11, R13:R12
	;; call to printMatrix occurs
		SNOP		2
.LVL37:
.L35:
	.loc 1 72 0
		SMVAAGL.M2		OR8, R11:R10
	|	SMOV.M1		R38, R16
	|	SMOVIL		1, R14
		SBR		printMatrix
		SMVAAGH.M1		OR8, R11:R10
	|	SMVAGA36.M2		R31:R30, OR8
	|	SMOVIL		.L36, R62
.LVL38:
		SMOVIH		.L36, R62
		SMVAAGL.M2		OR8, R13:R12
	|	SMOVIH4.L		.L36, R63
		SNOP		1
		SMVAAGH.M2		OR8, R13:R12
	;; call to printMatrix occurs
		SNOP		1
.LVL39:
	.loc 1 76 0
.L36:
		SLDDW		*+AR15[10], R7:R6
	|	SMOV.M2		R35, R10
		SLDDW		*+AR15[14], R63:R62
		SLDDW		*+AR15[4], R31:R30
		SLDDW		*+AR15[5], R33:R32
		SLDDW		*+AR15[6], R35:R34
		SNOP		1
		SMVAGA36.M2		R7:R6, AR8
.LVL40:
		SMVCGC.L		R63, BRReg
		SNOP		2
		SLDDW		*+AR15[11], R7:R6
		SLDDW		*+AR15[7], R37:R36
		SLDDW		*+AR15[8], R39:R38
		SLDDW		*+AR15[9], R41:R40
		SNOP		2
		SMVAGA36.M2		R7:R6, AR9
		SNOP		2
.LVL41:
		SLDDW		*+AR15[12], R7:R6
		SNOP		5
		SMVAGA36.M2		R7:R6, OR8
	|	SLDDW		*+AR15[13], R7:R6
		SNOP		5
		SMVAGA36.M2		R7:R6, OR9
	|	SLDDW		*+AR15[15], R7:R6
		SNOP		2
		SBR		R62
		SNOP		2
		SMVAGA36.M2		R7:R6, AR14
	|	SMOVIL		128, R6
.LVL42:
		SMOVIL		0, R7
		SADDA.M2		R7:R6,AR15,AR15
		SNOP		1
	;; return occurs
	.cfi_endproc
.LFE5:
	.size	DSPF_sp_qrd_solver_cmplx_wrapper, .-DSPF_sp_qrd_solver_cmplx_wrapper
	.section	.text.DSPF_sp_qrd_inverse_cmplx_wrapper,"ax",@progbits
	.align	2
	.global	DSPF_sp_qrd_inverse_cmplx_wrapper
	.type	DSPF_sp_qrd_inverse_cmplx_wrapper, @function
DSPF_sp_qrd_inverse_cmplx_wrapper:
.LFB6:
	.loc 1 78 0
	.cfi_startproc
.LVL43:
		SMOVIL		-64, R6
		SMOVIL		-1, R7
		SADDA.M2		R7:R6,AR15,AR15
.LCFI3:
	.cfi_def_cfa_offset 64
		SMVAAGL.M1		AR14, R7:R6
	|	SMVAGA36.M2		R19:R18, OR12
		SSTDW		R63:R62, *+AR15[6]
	.cfi_offset 78, -16
	.cfi_offset 79, -12
	.cfi_offset 48, -48
	.cfi_offset 49, -44
		SMVAAGH.M1		AR14, R7:R6
	|	SMVAGA36.M2		R23:R22, OR11
	|	SSTDW		R33:R32, *+AR15[2]
		SMVAAGL.M1		OR12, R33:R32
	|	SMVAGA36.M2		R11:R10, AR14
	|	SMOVIL		0, R10
	.loc 1 79 0
		SNOP		1
.LVL44:
	.loc 1 78 0
		SSTDW		R7:R6, *+AR15[7]
	.cfi_offset 14, -8
	.cfi_offset 46, -56
	.cfi_offset 47, -52
		SMVAAGL.M2		OR8, R7:R6
	|	SSTDW		R31:R30, *+AR15[1]
		SMVAAGL.M1		OR11, R31:R30
	|	SMVAAGH.M2		OR12, R33:R32
		SMVAAGH.M1		OR8, R7:R6
	|	SMVAGA36.M2		R21:R20, OR8
	.cfi_offset 50, -40
	.cfi_offset 51, -36
		SMVAAGH.M1		OR11, R31:R30
	|	SSTDW		R35:R34, *+AR15[3]
	.cfi_offset 88, -24
	.loc 1 79 0
		SBR		GetTimerCount
	|	SSTDW		R7:R6, *+AR15[5]
	.loc 1 78 0
		SMOV.M2		R14, R34
	|	SMOV.M1		R16, R35
	|	SMOVIL		.L38, R62
		SMVAAGL.M2		AR8, R7:R6
	|	SMOVIH		.L38, R62
		SMOVIH4.L		.L38, R63
		SMVAAGH.M1		AR8, R7:R6
	|	SMVAGA36.M2		R13:R12, AR8
		SNOP		1
	.cfi_offset 8, -32
	.loc 1 79 0
	;; call to GetTimerCount occurs, with return value
		SSTDW		R7:R6, *+AR15[4]
.LVL45:
.L38:
	.loc 1 80 0
		SBR		DSPF_sp_qrd_inverse_cmplx_cn
	|	SMVAGA36.M1		R31:R30, OR14
	|	SMVAGA36.M2		R33:R32, OR13
	|	SSTW		R10, *AR14
		SMVAAGL.M1		OR8, R17:R16
	|	SMOVIL		.L39, R62
		SMVAAGL.M1		OR13, R15:R14
	|	SMVAAGL.M2		OR14, R19:R18
	|	SMOVIH		.L39, R62
		SMVAAGH.M1		OR8, R17:R16
	|	SMOVIH4.L		.L39, R63
		SMVAAGH.M1		OR13, R15:R14
	|	SMVAAGH.M2		OR14, R19:R18
		SNOP		1
	;; call to DSPF_sp_qrd_inverse_cmplx_cn occurs, with return value
		SMOV.M2		R35, R12
	|	SMOV.M1		R34, R10
.LVL46:
.L39:
	.loc 1 81 0
		SBR		GetTimerCount
	|	SMOV.M2		R10, R31
	|	SMOVIL		0, R10
.LVL47:
		SMOVIL		.L40, R62
		SMOVIH		.L40, R62
		SMOVIH4.L		.L40, R63
	;; call to GetTimerCount occurs, with return value
		SNOP		3
.LVL48:
	.loc 1 83 0
.L40:
		SLDDW		*+AR15[4], R7:R6
	.loc 1 81 0
		SSTW		R10, *AR8
	|	SMOV.M2		R31, R10
	.loc 1 83 0
		SLDDW		*+AR15[6], R63:R62
		SNOP		1
		SLDDW		*+AR15[1], R31:R30
		SNOP		1
		SMVAGA36.M2		R7:R6, AR8
	|	SLDDW		*+AR15[5], R7:R6
.LVL49:
		SNOP		1
		SLDDW		*+AR15[2], R33:R32
	|	SMVCGC.L		R63, BRReg
		SNOP		1
		SLDDW		*+AR15[3], R35:R34
		SNOP		1
.LVL50:
		SMVAGA36.M2		R7:R6, OR8
	|	SLDDW		*+AR15[7], R7:R6
.LVL51:
		SNOP		2
		SBR		R62
		SNOP		2
		SMVAGA36.M2		R7:R6, AR14
	|	SMOVIL		64, R6
.LVL52:
		SMOVIL		0, R7
		SADDA.M2		R7:R6,AR15,AR15
		SNOP		1
	;; return occurs
	.cfi_endproc
.LFE6:
	.size	DSPF_sp_qrd_inverse_cmplx_wrapper, .-DSPF_sp_qrd_inverse_cmplx_wrapper
	.section	.const.str1.1
.LC5:
	.string	"DSPF_sp_qrd_cmplx\tIter#: %d\t"
.LC6:
	.string	"QRD decomposition failed!"
.LC7:
	.string	"nat C decomp error real=%e\n"
.LC8:
	.string	"nat C decomp error imag=%e\n"
.LC9:
	.string	"nat C transformation error = %e %e\n"
.LC10:
	.string	"solver failed!"
.LC11:
	.string	"nat C solver error real=%e at row,col = %d %d\n"
.LC12:
	.string	"nat C solver error imag=%e at row,col = %d %d\n"
.LC13:
	.string	"nat C inverse error real=%e\n"
.LC14:
	.string	"nat C inverse error imag=%e\n"
.LC15:
	.string	"Result Successful"
.LC16:
	.string	"\torder=%2dx%2d  qrd: %d  solver: %d  inverse: %d\n"
.LC17:
	.string	"Result Failure\torder=%2d\n"
	.section	.text.test_qr_solver_complx,"ax",@progbits
	.align	2
	.global	test_qr_solver_complx
	.type	test_qr_solver_complx, @function
test_qr_solver_complx:
.LFB8:
	.loc 1 131 0
	.cfi_startproc
.LVL53:
		SMOVIL		-304, R6
		SMOVIL		-1, R7
		SADDA.M2		R7:R6,AR15,AR15
.LCFI4:
	.cfi_def_cfa_offset 304
		SMVAAGL.M1		AR14, R7:R6
	|	SMOVIL		1, R0
		SSTDW		R11:R10, *+AR15[12]
	|	SMOVIL		0, R10
.LVL54:
	.cfi_offset 78, -16
	.cfi_offset 79, -12
		SMVAAGH.M2		AR14, R7:R6
	|	SSTDW		R63:R62, *+AR15[36]
		SMVAGA36.M1		R25:R24, AR14
		SNOP		1
		SSTDW		R7:R6, *+AR15[37]
	.cfi_offset 14, -8
		SMVAAGL.M2		OR9, R7:R6
	|	SLDDW		*+AR15[12], R43:R42
		SNOP		1
		SMVAAGH.M1		OR9, R7:R6
	|	SMVAGA36.M2		R13:R12, OR9
	|	SSTDW		R21:R20, *+AR15[18]
		SNOP		3
		SSTDW		R7:R6, *+AR15[35]
	.cfi_offset 89, -24
		SMVAAGL.M2		OR8, R7:R6
	|	SSTDW		R43:R42, *+AR15[8]
	|	SMOVIL		1, R43
	.loc 1 166 0
		SNOP		1
	.loc 1 131 0
		SMVAAGH.M1		OR8, R7:R6
	|	SMVAGA36.M2		R15:R14, OR8
		SSTDW		R19:R18, *+AR15[19]
		SSTDW		R7:R6, *+AR15[34]
		SMVAAGL.M2		AR9, R7:R6
		SNOP		1
	.cfi_offset 88, -32
	.cfi_offset 54, -64
	.cfi_offset 55, -60
		SMVAAGH.M2		AR9, R7:R6
	|	SSTDW		R39:R38, *+AR15[30]
		SSTDW		R23:R22, *+AR15[20]
		SNOP		2
		SSTDW		R7:R6, *+AR15[33]
	.cfi_offset 9, -40
	.cfi_offset 50, -80
	.cfi_offset 51, -76
		SMVAAGL.M2		AR8, R7:R6
	|	SSTDW		R35:R34, *+AR15[28]
		SMVAAGL.M1		OR8, R35:R34
		SMVAAGH.M1		AR8, R7:R6
	.loc 1 159 0
		SSTW		R0, *+AR15[22]
	|	SMVAAGH.M1		OR8, R35:R34
	.loc 1 131 0
		SSTDW		R7:R6, *+AR15[32]
		SNOP		2
		SSTDW		R17:R16, *+AR15[17]
	.loc 1 166 0
		SSTH		R43, *+AR15[28]
		SNOP		1
	.loc 1 155 0
		SBR		GetTimerCount
	.cfi_offset 8, -48
	.loc 1 131 0
		SSTDW		R41:R40, *+AR15[31]
	|	SMOVIL		.L156, R62
	.cfi_offset 56, -56
	.cfi_offset 57, -52
		SSTDW		R37:R36, *+AR15[29]
	|	SMOVIH		.L156, R62
		SMOVIH4.L		.L156, R63
		SNOP		1
		SSTDW		R33:R32, *+AR15[27]
	.cfi_offset 52, -72
	.cfi_offset 53, -68
	.cfi_offset 48, -88
	.cfi_offset 49, -84
	.cfi_offset 46, -96
	.cfi_offset 47, -92
	.loc 1 155 0
	;; call to GetTimerCount occurs, with return value
		SSTDW		R31:R30, *+AR15[26]
.LVL55:
.L156:
	.loc 1 159 0
		SMOVIL		208, R44
		SMOVIL		0, R45
		SLDDW		*+AR15[18], R47:R46
	|	SADDA.M2		R45:R44,AR15,OR15
		SLDDW		*+AR15[12], R9:R8
	.loc 1 128 0
		SLDW		*+AR15[17], R1
	|	SMVAAGL.M2		OR15, R45:R44
	.loc 1 159 0
		SNOP		1
		SMVAAGH.M2		OR15, R45:R44
		SNOP		1
		SMVAGA36.M1		R47:R46, OR11
	|	SMVAGA36.M2		R45:R44, AR9
		SMVAGA36.M1		R9:R8, OR13
		SADDA.M1		4,OR11,OR12
	|	SADDA.M2		4,OR9,OR11
	|	SSTW		R10, *+AR15[50]
	|	SMOVIL		0, R10
.LVL56:
		SADDA.M1		-4,OR13,OR14
	|	SSTW		R1, *+AR15[23]
		SMVAAGL.M1		OR12, R3:R2
	|	SMVAAGL.M2		OR11, R15:R14
		SMVAAGL.M1		OR14, R13:R12
		SMVAAGH.M1		OR12, R3:R2
	|	SADDA.M2		4,OR8,OR12
	.loc 1 157 0
		SBR		GetTimerCount
	|	SMVAAGH.M1		OR14, R13:R12
	|	SMVAAGH.M2		OR11, R15:R14
		SMVAAGL.M1		OR12, R17:R16
	|	SSTDW		R3:R2, *+AR15[10]
	|	SMOVIL		.L157, R62
		SSTDW		R13:R12, *+AR15[13]
	|	SMOVIH		.L157, R62
		SMVAAGH.M2		OR12, R17:R16
	|	SMOVIH4.L		.L157, R63
		SNOP		1
		SSTDW		R15:R14, *+AR15[21]
	;; call to GetTimerCount occurs, with return value
		SSTDW		R17:R16, *+AR15[22]
.LVL57:
.L157:
	.loc 1 128 0
		SMOVIL		18428, R9
		SMOVIL		4, R13
		SLDW		*+AR15[16], R15
	|	SMOVIL		4, R21
		SLDW		*+AR15[16], R45
		SLDW		*+AR15[17], R48
	.loc 1 159 0
		SLDW		*--AR9[2], R3
	.loc 1 128 0
		SLDW		*+AR15[23], R19
		SNOP		1
		SSUB.M2		R15, R13, R39
	|	SMOV.M1		R15, R47
		SADD.M2		R9,R45,R11
	|	SLTU		R21, R39, R22
		SLTU		R11, R15, R17
		SNEG		R48, R18
.LVL58:
	.loc 1 157 0
		SSTW		R10, *+AR15[51]
	|	SADD.M2		R19,R17,R20
	|	SSUB.M1		R3, R10, R10
.LVL59:
	.loc 1 128 0
		SSUB.M2		R22, R18, R38
	|	SSTW		R11, *+AR15[46]
		SNOP		2
	.loc 1 159 0
		SSTW		R10, *+AR15[30]
.LVL60:
	.loc 1 128 0
		SSTW		R20, *+AR15[47]
		SNOP		2
		SSTW		R39, *+AR15[48]
		SSTW		R38, *+AR15[49]
.LVL61:
.L95:
	.loc 1 170 0
		SMOVIL.L		.LC5, R46
		SMOVIH.L		.LC5, R46
		SMOVIH4.L		.LC5, R47
		SSTDW		R47:R46, *+AR15[1]
	|	SMOVIL		973082626, R36
		SLDW		*+AR15[22], R47
	|	SMOVIH		973082626, R36
	.loc 1 183 0
		SMOV.M2		R36, R40
	.loc 1 170 0
		SBR		printf
		SMOVIL		.L158, R62
		SMOVIH		.L158, R62
		SMOVIH4.L		.L158, R63
		SSTW		R47, *+AR15[4]
	;; call to printf occurs, with return value
		SNOP		2
.LVL62:
.L158:
	.loc 1 172 0
		SLDW		*+AR15[22], R23
	|	SMOVIL		2, R26
		SMOVIL		3, R27
	|	SLDDW		*+AR15[10], R33:R32
		SLDDW		*+AR15[13], R31:R30
	|	SMOVIL		1, R10
	.loc 1 210 0
		SNOP		3
	.loc 1 172 0
		SSHFLL		16, R23, R24
		SSHFLR		16, R24, R25
		SEQ		R26, R25, R0
		SEQ		R27, R25, R2
	|[R0]	SBR		.L43
		SNOP		6
	;; condjump to .L43 occurs
	[R2]	SBR		.L44
		SNOP		6
	;; condjump to .L44 occurs
	.loc 1 178 0
		SBR		srand
		SMOVIL		.L159, R62
		SMOVIH		.L159, R62
		SMOVIH4.L		.L159, R63
	;; call to srand occurs
		SNOP		3
.LVL63:
.L159:
	.loc 1 128 0
		SLDW		*+AR15[16], R29
	|	SMOVIL		2044, R28
		SLDW		*+AR15[23], R50
		SNOP		4
		SADD.M2		R28,R29,R37
		SLTU		R37, R29, R49
	|	SMOV.M2		R37, R41
		SADD.M2		R50,R49,R51
		SMOV.M2		R51, R39
.LVL64:
.L45:
	.loc 1 128 0 is_stmt 0 discriminator 1
		SMOVIL		128, R52
		SADD.M2		R52,R30,R37
		SLTU		R37, R30, R54
		SADD.M2		R31,R54,R38
.LVL65:
.L46:
	.loc 1 183 0 is_stmt 1 discriminator 2
		SBR		rand
		SMOVIL		.L160, R62
		SMOVIH		.L160, R62
		SMOVIH4.L		.L160, R63
	;; call to rand occurs, with return value
		SNOP		3
.LVL66:
.L160:
		SADD.M1		4,R30,R56
	|	SFINTS32.M2		R10,R55
		SLTU		R56, R30, R57
	|	SMOV.M2		R56, R30
		SADD.M1		R31,R57,R31
	|	SEQ		R56, R37, R1
	.loc 1 181 0 discriminator 2
	[R1]	SEQ		R31, R38, R1
	|	SFMULS32.M2		R55, R36, R59
	|	SMVAGA36.M1		R31:R30, AR10
	[!R1]	SBR		.L46
		SNOP		2
	.loc 1 183 0 discriminator 2
		SSTW		R59, *AR10
		SNOP		3
	.loc 1 181 0 discriminator 2
	;; condjump to .L46 occurs
	.loc 1 185 0
		SBR		rand
	|	SMVAGA36.M2		R33:R32, AR8
	.loc 1 128 0
		SMOVIL		.L161, R62
		SMOVIH		.L161, R62
		SMOVIH4.L		.L161, R63
	.loc 1 185 0
	;; call to rand occurs, with return value
		SNOP		3
.LVL67:
.L161:
		SFINTS32.M2		R10,R60
	.loc 1 186 0
		SBR		rand
		SMOVIL		.L162, R62
	.loc 1 185 0
		SFMULS32.M2		R60, R40, R61
	|	SMOVIH		.L162, R62
		SMOVIH4.L		.L162, R63
		SNOP		2
	.loc 1 186 0
	;; call to rand occurs, with return value
		SSTW		R61, *-AR8[1]
.LVL68:
.L162:
	.loc 1 179 0
		SEQ		R41, R37, R0
	|	SFINTS32.M2		R10,R46
	|	SADD.M1		8,R32,R42
	[R0]	SEQ		R39, R38, R0
	[!R0]	SBR		.L45
	|	SLTU		R42, R32, R44
	|	SMOV.M1		R42, R32
		SADD.M1		R33,R44,R33
	|	SFMULS32.M2		R46, R40, R43
	.loc 1 186 0
		SNOP		3
		SSTW		R43, *AR8
		SNOP		1
	.loc 1 179 0
	;; condjump to .L45 occurs
.LVL69:
	.loc 1 227 0
		SMOVIL		204, R42
	|	SMVAAGL.M1		AR9, R11:R10
	|	SMVAAGL.M2		OR9, R21:R20
	|	SLDDW		*+AR15[12], R19:R18
		SMOVIL		0, R43
	|	SBR		DSPF_sp_qrd_cmplx_wrapper
	|	SLDDW		*+AR15[19], R25:R24
	|	SMVAAGL.M1		OR8, R23:R22
		SADDA.M1		R43:R42,AR15,OR13
	|	SMVAAGH.M2		AR9, R11:R10
	|	SMOVIL		.L163, R62
		SMVAAGH.M1		OR9, R21:R20
	|	SMVAAGH.M2		OR8, R23:R22
	|	SMOVIH		.L163, R62
		SMVAAGL.M1		OR13, R13:R12
	|	SMOVIH4.L		.L163, R63
	.loc 1 179 0
		SMOVIL		16, R30
	.loc 1 227 0
		SMVAAGH.M2		OR13, R13:R12
	|	SMOV.M1		R30, R14
	|	SMOVIL		-1, R31
	;; call to DSPF_sp_qrd_cmplx_wrapper occurs, with return value
		SMOV.M1		R30, R16
	|	SSTW		R30, *+AR15[11]
.LVL70:
.L163:
	.loc 1 228 0
		SLDW		*+AR15[50], R59
	|	SEQ		R31, R10, R32
	.loc 1 229 0
		SMOV.M2		R32, R1
	.loc 1 228 0
		SLDW		*+AR15[51], R60
		SLDW		*+AR15[30], R46
	.loc 1 229 0
	[R1]	SBR		.L141
	|	SLDW		*+AR15[11], R8
		SNOP		3
	.loc 1 228 0
		SSUB.M2		R59, R60, R61
		SSUB.M2		R46, R61, R42
		SSTW		R42, *+AR15[33]
	;; condjump to .L141 occurs
.LVL71:
.L52:
	.loc 1 128 0 discriminator 1
		SSHFLL		1, R8, R44
	|	SLDDW		*+AR15[21], R37:R36
	|	SMOV.M2		R34, R13
	|	SMOV.M1		R35, R18
		SSTW		R44, *+AR15[18]
	|	SSHFLL		2, R8, R33
		SSHFLL		3, R8, R9
		SLTU		R9, R33, R11
		SLDW		*+AR15[18], R3
	|	SMOVIL		0, R17
		SMOVIL		-2147483648, R38
	.loc 1 265 0 discriminator 1
		SMOVIL		1092616192, R40
	|	SSTDW		R37:R36, *+AR15[14]
	|	SMOV.M2		R36, R41
	|	SMOV.M1		R37, R36
	.loc 1 128 0 discriminator 1
		SMOVIH		-2147483648, R38
	|	SMOV.M2		R9, R37
	.loc 1 265 0 discriminator 1
		SMOVIH		1092616192, R40
		SNOP		1
	.loc 1 128 0 discriminator 1
		SLTU		R33, R3, R43
	|	SLDDW		*+AR15[8], R33:R32
		SSHFAR		31, R3, R45
		SSHFLL		1, R43, R10
	|	SSTW		R45, *+AR15[19]
.LVL72:
		SADD.M2		R10,R11,R15
		SMOV.M2		R15, R39
		SNOP		1
		SMOV.M2		R32, R48
	|	SMOV.M1		R33, R19
		SMOV.M2		R8, R32
	|	SMOV.M1		R17, R33
		SMOV.M2		R48, R30
	|	SMOV.M1		R19, R31
.LVL73:
.L53:
		SMVAGA36.M1		R31:R30, AR0
	|	SMOV.M2		R13, R22
	|	SMOVIL		4, R23
	.loc 1 195 0 discriminator 1
		SMOV.M2		R18, R20
	|	SMOVIL		0, R24
		SMOVIL		0, R21
.LVL74:
.L61:
		SMVAAGL.M2		AR0, R1:R0
	|	SSUB.M1		R22, R34, R25
	|	SMOVIL		0, R26
		SMOVIH		0, R26
	|	SSUB.M1		R20, R35, R47
		SMVAAGH.M2		AR0, R1:R0
	|	SLTU		R34, R25, R27
	|	SMOV.M1		R23, R48
		SMOV.M1		R24, R49
	|	SMOVIL		0, R28
		SMVAGA36.M1		R1:R0, OR0
	|	SMOV.M2		R22, R42
	;no-op trunc di R49:R48 to pdi R49:R48
		SMOV.M2		R41, R44
		SMOV.M2		R20, R43
	|	SMOV.M1		R36, R45
		SMOV.M2		R26, R29
	|	SSUB.M1		R27, R47, R50
.LVL75:
.L54:
	.loc 1 128 0 discriminator 2
		SADD.M2		R42,R25,R46
	|	SADD.M1		R43,R50,R52
		SLTU		R46, R25, R51
	|	SMVAGA36.M1		R43:R42, AR12
	|	SMVAGA36.M2		R45:R44, AR10
		SNOP		1
		SADD.M2		R52,R51,R47
	|	SLDW		*AR12, R54
	|	SADD.M1		1,R28,R28
		SMVAGA36.M1		R47:R46, AR2
	|	SLDW		*AR10, R53
	|	SLT		R28, R32, R0
	|	SADD.M2		8,R44,R58
	.loc 1 248 0 discriminator 2
		SLDW		*-AR10[1], R55
	|	SADD.M2		R42,R37,R59
	|	SLTU		R58, R44, R60
.LVL76:
	.loc 1 128 0 discriminator 2
		SMVAAA.M2		AR2, OR14
	|	SLTU		R59, R42, R61
	|	SADD.M1		R43,R39,R1
		SMOV.M1		R58, R44
		SADDA.M2		R49:R48,OR14,AR12
	|	SMOV.M1		R59, R42
		SADD.M1		R45,R60,R45
	.loc 1 253 0 discriminator 2
		SFMULS32.M2		R53, R54, R2
	|	SADD.M1		R1,R61,R43
	.loc 1 251 0 discriminator 2
		SLDW		*AR12, R56
		SNOP		5
.LVL77:
	.loc 1 252 0 discriminator 2
		SFMULS32.M1		R53, R56, R57
	|	SFMULAS32.M2	R55, R56, R2, R2
	.loc 1 253 0 discriminator 2
		SNOP		3
	.loc 1 128 0 discriminator 2
		SXOR		R38, R57, R8
	.loc 1 252 0 discriminator 2
		SFMULAS32.M1	R55, R54, R8, R8
	.loc 1 253 0 discriminator 2
		SFADDS32.M1		R26, R2, R26
	.loc 1 246 0 discriminator 2
	[R0]	SBR		.L54
		SNOP		3
	.loc 1 252 0 discriminator 2
		SFADDS32.M2		R29, R8, R29
		SNOP		2
.LVL78:
	.loc 1 246 0 discriminator 2
	;; condjump to .L54 occurs
		SMVAAGL.M2		OR0, R43:R42
	|	SADD.M1		1,R21,R21
	.loc 1 242 0
		SLT		R21, R32, R0
	|	SADD.M1		8,R23,R9
		SMVAAGH.M2		OR0, R43:R42
		SNOP		1
	.loc 1 128 0
		SMVAGA36.M2		R43:R42, OR11
	|	SMVAGA36.M1		R43:R42, AR0
		SNOP		1
		SADDA.M2		R49:R48,OR11,AR10
		SNOP		1
	.loc 1 260 0
		SLDW		*-AR10[1], R49
	.loc 1 255 0
		SLDW		*AR10, R12
		SNOP		4
	.loc 1 260 0
		SFSUBS32.M2		R29, R49, R44
	.loc 1 255 0
		SFSUBS32.M1		R26, R12, R14
		SNOP		1
	.loc 1 260 0
		SFSPDP32T.M2		R44, R17:R16
	.loc 1 255 0
		SFSPDP32T.M1		R14, R11:R10
	.loc 1 260 0
		SFABSD.M2		R17:R16, R45:R44
	.loc 1 255 0
		SFABSD.M1		R11:R10, R43:R42
	.loc 1 260 0
		SFDPSP32.M2		R45:R44, R3
	.loc 1 255 0
		SFDPSP32.M1		R43:R42, R43
		SNOP		1
.LVL79:
	.loc 1 265 0
		SFCMPGS32.M2		R3, R40, R2
	[R2]	SBR		.L142
	|	SADD.M2		8,R22,R11
		SLTU		R11, R22, R17
	|	SMOV.M2		R11, R22
		SADD.M2		R20,R17,R20
		SNOP		4
	;; condjump to .L142 occurs
	.loc 1 271 0
		SFCMPGS32.M2		R43, R40, R1
	[R1]	SBR		.L143
		SNOP		6
	;; condjump to .L143 occurs
	.loc 1 242 0
	[R0]	SBR		.L61
	|	SLTU		R9, R23, R45
	|	SMOV.M2		R9, R23
		SADD.M2		R24,R45,R24
		SNOP		5
	;; condjump to .L61 occurs
	.loc 1 240 0
		SADD.M2		1,R33,R33
	|	SADD.M1		R30,R37,R20
.LVL80:
		SLT		R33, R32, R2
	|	SADD.M2		R37,R41,R23
	|	SADD.M1		R31,R39,R31
	[R2]	SBR		.L53
	|	SLTU		R20, R30, R24
	|	SMOV.M2		R20, R30
	|	SADD.M1		R39,R36,R36
		SADD.M2		R31,R24,R31
	|	SLTU		R23, R41, R21
	|	SMOV.M1		R23, R41
.LVL81:
		SADD.M2		R36,R21,R36
		SNOP		4
	;; condjump to .L53 occurs
.LVL82:
.L151:
	.loc 1 128 0
		SLDW		*+AR15[18], R30
	|	SMOVIL		0, R28
	|	SMOV.M2		R32, R25
	|	SMOV.M1		R39, R26
		SLDW		*+AR15[19], R50
	|	SMOV.M2		R37, R27
	|	SMOVIL		0, R54
	|	SMOV.M1		R26, R41
		SLDDW		*+AR15[14], R37:R36
	|	SMOVIL		0, R31
		SNOP		3
		SNEG		R30, R47
		SLTU		R28, R47, R29
		SNEG		R50, R13
	|	SSTDW		R35:R34, *+AR15[14]
	|	SMOV.M2		R54, R34
	|	SMOV.M1		R27, R35
		SSHFLL		1, R47, R18
	|	SSUB.M2		R29, R13, R32
		SLTU		R18, R47, R38
		SSHFLL		1, R32, R39
		SADD.M2		R39,R38,R40
	|	SSHFLL		2, R47, R51
	|	SMOV.M1		R25, R39
		SSHFLL		1, R40, R53
	|	SSTW		R51, *+AR15[18]
		SLTU		R51, R18, R52
		SADD.M2		R53,R52,R43
	|	SMOVIL		-2147483648, R40
		SSTW		R43, *+AR15[19]
	|	SMOVIL		1092616192, R38
		SMOVIL		0, R30
	.loc 1 298 0
		SMOVIH		-2147483648, R40
	.loc 1 315 0
		SMOVIH		1092616192, R38
.LVL83:
.L60:
	.loc 1 318 0 discriminator 1
		SMOVIL.L		.LC9, R42
		SMOVIH.L		.LC9, R42
		SMOVIH4.L		.LC9, R43
		SMVAGA36.M2		R43:R42, AR8
	|	SMOVIL		0, R32
	.loc 1 317 0 discriminator 1
		SMOVIL		0, R33
		SMOVIL		0, R59
.LVL84:
.L70:
	.loc 1 128 0 discriminator 1
		SMOVIL		0, R56
	|	SMOV.M2		R32, R46
	|	SMOV.M1		R33, R47
		SMOVIH		0, R56
	|	SMOV.M2		R36, R42
	|	SMOV.M1		R37, R43
	;no-op trunc di R47:R46 to pdi R47:R46
		SMOV.M2		R56, R57
	|	SMOVIL		0, R60
.LVL85:
.L62:
	.loc 1 128 0 is_stmt 0 discriminator 2
		SADD.M2		R42,R30,R44
	|	SADD.M1		R43,R31,R58
		SLTU		R44, R30, R55
	|	SMVAGA36.M2		R43:R42, AR10
	|	SADD.M1		1,R60,R60
		SADD.M1		R58,R55,R45
	|	SLT		R60, R39, R1
		SMVAGA36.M1		R45:R44, AR0
	|	SLDW		*AR10, R61
	|	SADD.M2		8,R42,R8
	.loc 1 295 0 is_stmt 1 discriminator 2
		SLDW		*-AR10[1], R12
	|	SLTU		R8, R42, R49
	|	SMOV.M2		R8, R42
.LVL86:
	.loc 1 128 0 discriminator 2
		SMVAAA.M2		AR0, OR12
	|	SADD.M1		R43,R49,R43
		SNOP		1
		SADDA.M2		R47:R46,OR12,AR10
		SNOP		2
	.loc 1 298 0 discriminator 2
		SLDW		*AR10, R14
	.loc 1 297 0 discriminator 2
		SLDW		*-AR10[1], R16
		SNOP		4
.LVL87:
	.loc 1 298 0 discriminator 2
		SXOR		R40, R14, R10
.LVL88:
	.loc 1 299 0 discriminator 2
		SFMULS32.M1		R61, R10, R3
	|	SFMULS32.M2		R61, R16, R9
	.loc 1 300 0 discriminator 2
		SNOP		3
	.loc 1 128 0 discriminator 2
		SXOR		R40, R3, R11
	|	SFMULAS32.M2	R12, R10, R9, R9
	.loc 1 299 0 discriminator 2
		SFMULAS32.M1	R12, R16, R11, R11
		SNOP		1
	.loc 1 293 0 discriminator 2
	[R1]	SBR		.L62
		SNOP		2
	.loc 1 300 0 discriminator 2
		SFADDS32.M1		R56, R9, R56
	.loc 1 299 0 discriminator 2
		SFADDS32.M1		R57, R11, R57
		SNOP		2
.LVL89:
	.loc 1 293 0 discriminator 2
	;; condjump to .L62 occurs
	.loc 1 302 0
		SEQ		R59, R34, R0
	[R0]	SBR		.L144
		SNOP		6
	;; condjump to .L144 occurs
	.loc 1 308 0
		SFSPDP32T.M2		R57, R47:R46
		SNOP		1
		SFABSD.M2		R47:R46, R45:R44
		SNOP		1
		SFDPSP32.M2		R45:R44, R45
		SNOP		2
.LVL90:
.L64:
	.loc 1 310 0
		SFSPDP32T.M2		R56, R23:R22
	|	SFCMPGS32.M1		R45, R38, R2
	.loc 1 315 0
	[R2]	SBR		.L65
	.loc 1 310 0
		SFABSD.M2		R23:R22, R43:R42
		SNOP		1
		SFDPSP32.M2		R43:R42, R15
		SNOP		3
.LVL91:
	.loc 1 315 0
	;; condjump to .L65 occurs
	.loc 1 315 0 is_stmt 0 discriminator 1
		SFCMPGS32.M2		R15, R38, R1
	[!R1]	SBR		.L66
		SNOP		6
	;; condjump to .L66 occurs
.L65:
.LVL92:
	.loc 1 318 0 is_stmt 1
		SMVAAGL.M1		AR8, R27:R26
	|	SFSPDP32T.M2		R45, R21:R20
	|	SMOVIL		0, R17
	|	SSTW		R59, *+AR15[13]
	.loc 1 317 0
		SSTH		R17, *+AR15[28]
	.loc 1 318 0
		SFSPDP32T.M2		R15, R25:R24
	|	SMVAAGH.M1		AR8, R27:R26
		SNOP		1
		SBR		printf
	|	SSTDW		R27:R26, *+AR15[1]
		SSTDW		R21:R20, *+AR15[2]
	|	SMOVIL		.L164, R62
		SMOVIH		.L164, R62
		SMOVIH4.L		.L164, R63
		SSTDW		R25:R24, *+AR15[3]
	;; call to printf occurs, with return value
		SNOP		2
.LVL93:
.L164:
		SLDW		*+AR15[13], R59
		SNOP		5
.LVL94:
.L66:
	.loc 1 289 0
		SADD.M2		1,R59,R59
	|	SADD.M1		R32,R35,R19
.LVL95:
		SLT		R59, R39, R0
	|	SADD.M2		R33,R41,R21
	[R0]	SBR		.L70
	|	SLTU		R19, R32, R23
	|	SMOV.M2		R19, R32
		SADD.M2		R21,R23,R33
		SNOP		5
	;; condjump to .L70 occurs
		SADD.M2		R36,R35,R43
	|	SADD.M1		1,R34,R34
	|	SLDW		*+AR15[18], R25
.LVL96:
		SLTU		R43, R36, R47
	|	SLDW		*+AR15[19], R36
	|	SADD.M2		R37,R41,R37
	.loc 1 287 0
		SLT		R34, R39, R2
	|	SADD.M2		R37,R47,R37
	[R2]	SBR		.L60
		SNOP		2
		SADD.M2		R30,R25,R27
		SLTU		R27, R30, R28
	|	SMOV.M2		R27, R30
	|	SADD.M1		R31,R36,R31
		SADD.M2		R31,R28,R31
	|	SMOV.M1		R43, R36
		SNOP		1
	;; condjump to .L60 occurs
		SMOV.M2		R35, R52
	|	SLDDW		*+AR15[22], R43:R42
	|	SADD.M1		1,R39,R50
	|	SMOVIL		1092616192, R56
		SLDDW		*+AR15[14], R35:R34
	|	SSHFLL		2, R50, R13
	|	SMOV.M2		R39, R37
	|	SMOV.M1		R41, R29
.LVL97:
	.loc 1 128 0
		SSHFLL		1, R50, R18
		SLTU		R13, R18, R51
		SSHFLL		3, R50, R53
		SLTU		R53, R13, R32
		SSHFLL		1, R51, R33
		SMOVIL		1, R0
	|	SADD.M2		R33,R32,R59
.LVL98:
		SMOVIL		0, R60
	.loc 1 332 0
		SMOVIH		1092616192, R56
.L73:
	.loc 1 128 0
		SMVAGA36.M2		R43:R42, AR10
	|	SADD.M1		R42,R53,R57
	.loc 1 330 0
		SADD.M1		1,R60,R60
	|	SLTU		R57, R42, R38
	.loc 1 332 0
		SLDW		*-AR10[1], R39
	|	SADD.M2		R43,R59,R40
	|	SLT		R60, R37, R1
	|	SMOV.M1		R57, R42
		SADD.M2		R40,R38,R43
		SNOP		4
		SFSPDP32T.M2		R39, R9:R8
		SNOP		1
		SFABSD.M2		R9:R8, R45:R44
		SNOP		1
		SFDPSP32.M2		R45:R44, R41
		SNOP		2
		SFCMPLS32.M2		R41, R56, R2
	[!R2]	SBR		.L71
		SNOP		6
	;; condjump to .L71 occurs
	.loc 1 332 0 is_stmt 0 discriminator 1
		SLDW		*AR10, R55
		SNOP		5
		SFSPDP32T.M2		R55, R13:R12
		SNOP		1
		SFABSD.M2		R13:R12, R45:R44
		SNOP		1
		SFDPSP32.M2		R45:R44, R58
		SNOP		2
		SFCMPLS32.M2		R58, R56, R2
	[!R2]	SBR		.L71
		SNOP		6
	;; condjump to .L71 occurs
	.loc 1 334 0 is_stmt 1
		SMOVIL		0, R0
.L71:
.LVL99:
	.loc 1 330 0
	[R1]	SBR		.L73
		SNOP		6
	;; condjump to .L73 occurs
	.loc 1 346 0
	[!R0]	SBR		.L74
	|	SMOVIL		204, R44
	|	SMVAAGL.M1		AR9, R11:R10
	|	SMVAAGL.M2		OR9, R19:R18
	|	SLDDW		*+AR15[20], R25:R24
	.loc 1 348 0
		SMOVIL		0, R45
	|	SMVAAGL.M1		OR8, R21:R20
	|	SMVAAGL.M2		AR14, R27:R26
	|	SLDDW		*+AR15[18], R23:R22
		SADDA.M1		R45:R44,AR15,OR13
	|	SMVAAGH.M2		AR9, R11:R10
		SMVAAGH.M1		AR14, R27:R26
	|	SMVAAGH.M2		OR8, R21:R20
		SMVAAGL.M1		OR13, R13:R12
	|	SMVAAGH.M2		OR9, R19:R18
		SNOP		1
	[R0]	SMVAAGH.M2		OR13, R13:R12
	|	SMOV.M1		R37, R14
	;; condjump to .L74 occurs
		SBR		DSPF_sp_qrd_solver_cmplx_wrapper
	|	SMOV.M1		R37, R16
	|	SSTW		R52, *+AR15[12]
		SSTW		R29, *+AR15[13]
	|	SMOVIL		.L165, R62
		SMOVIH		.L165, R62
		SMOVIH4.L		.L165, R63
		SSTW		R37, *+AR15[11]
	;; call to DSPF_sp_qrd_solver_cmplx_wrapper occurs, with return value
		SNOP		2
.LVL100:
.L165:
	.loc 1 349 0
		SLDW		*+AR15[50], R49
	|	SMOVIL		-1, R54
		SLDW		*+AR15[51], R44
	|	SEQ		R54, R10, R61
		SLDW		*+AR15[30], R16
	|	SMOV.M2		R61, R1
	|	SMOVIL		-2147483648, R20
	.loc 1 350 0
		SLDW		*+AR15[11], R27
	|	SMOVIL		1, R3
	[R1]	SBR		.L145
	|	SLDW		*+AR15[12], R17
	|	SMOVIL		1092616192, R24
	.loc 1 128 0
		SMOVIH		-2147483648, R20
	.loc 1 384 0
		SMOVIH		1092616192, R24
	.loc 1 349 0
		SSUB.M2		R49, R44, R14
		SSUB.M2		R16, R14, R10
.LVL101:
		SMAX		R27, R3, R26
		SSTW		R10, *+AR15[31]
	;; condjump to .L145 occurs
.LVL102:
	.loc 1 350 0
		SLDW		*+AR15[13], R25
	|	SMOVIL		0, R11
	.loc 1 361 0
		SNOP		1
		SLDDW		*+AR15[10], R49:R48
	.loc 1 128 0
		SLDDW		*+AR15[8], R47:R46
		SNOP		5
.LVL103:
.L76:
	.loc 1 334 0 discriminator 1
		SMOVIL		0, R9
	|	SMVAGA36.M1		R47:R46, AR0
		SMOVIH		0, R9
		SMOVIL		0, R42
	|	SMOV.M2		R9, R22
		SMOVIL		0, R43
		SMOVIL		0, R15
.LVL104:
.L77:
	.loc 1 128 0 discriminator 2
		SMVAAA.M2		AR0, OR14
	|	SMOV.M1		R42, R44
		SMOV.M1		R43, R45
	;no-op trunc di R45:R44 to pdi R45:R44
		SADDA.M1		R45:R44,OR14,AR10
	|	SADDA.M2		R45:R44,AR14,AR12
		SNOP		1
	.loc 1 368 0 discriminator 2
		SLDW		*+AR10[1], R21
	|	SADD.M2		1,R15,R15
	|	SADD.M1		8,R42,R19
	.loc 1 370 0 discriminator 2
		SLDW		*+AR12[1], R45
	|	SLT		R15, R27, R2
	.loc 1 369 0 discriminator 2
		SLDW		*AR12, R37
	|	SLTU		R19, R42, R23
	|	SMOV.M2		R19, R42
	.loc 1 367 0 discriminator 2
		SLDW		*AR10, R30
	|	SADD.M2		R43,R23,R43
		SNOP		3
	.loc 1 371 0 discriminator 2
		SFMULS32.M2		R21, R45, R28
.LVL105:
	.loc 1 372 0 discriminator 2
		SFMULS32.M1		R21, R37, R36
		SNOP		2
	.loc 1 128 0 discriminator 2
		SXOR		R20, R28, R29
	.loc 1 371 0 discriminator 2
		SFMULAS32.M1	R30, R37, R29, R29
	|	SFMULAS32.M2	R30, R45, R36, R36
	.loc 1 372 0 discriminator 2
		SNOP		1
	.loc 1 365 0 discriminator 2
	[R2]	SBR		.L77
		SNOP		3
	.loc 1 371 0 discriminator 2
		SFADDS32.M1		R22, R29, R22
	|	SFADDS32.M2		R9, R36, R9
.LVL106:
	.loc 1 372 0 discriminator 2
		SNOP		2
.LVL107:
	.loc 1 365 0 discriminator 2
	;; condjump to .L77 occurs
	.loc 1 128 0
		SMVAGA36.M2		R49:R48, AR10
	|	SADD.M1		8,R48,R59
		SLTU		R59, R48, R60
	|	SADD.M1		R47,R25,R47
	.loc 1 374 0
		SLDW		*-AR10[1], R50
	|	SMOV.M2		R59, R48
	|	SADD.M1		R49,R60,R49
	.loc 1 379 0
		SLDW		*AR10, R13
		SNOP		4
	.loc 1 374 0
		SFSUBS32.M2		R22, R50, R18
	.loc 1 379 0
		SFSUBS32.M1		R9, R13, R51
		SNOP		1
	.loc 1 374 0
		SFSPDP32T.M2		R18, R33:R32
	.loc 1 379 0
		SFSPDP32T.M1		R51, R57:R56
	.loc 1 374 0
		SFABSD.M2		R33:R32, R45:R44
	.loc 1 379 0
		SFABSD.M1		R57:R56, R43:R42
	.loc 1 374 0
		SFDPSP32.M2		R45:R44, R53
.LVL108:
	.loc 1 379 0
		SFDPSP32.M1		R43:R42, R33
		SNOP		1
.LVL109:
	.loc 1 384 0
		SFCMPGS32.M2		R53, R24, R0
	[R0]	SBR		.L146
	|	SADD.M2		R46,R17,R57
		SLTU		R57, R46, R39
	|	SMOV.M2		R57, R46
		SADD.M2		R47,R39,R47
		SNOP		4
	;; condjump to .L146 occurs
	.loc 1 390 0
		SFCMPGS32.M2		R33, R24, R1
	[R1]	SBR		.L147
		SNOP		6
	;; condjump to .L147 occurs
	.loc 1 361 0
		SADD.M2		1,R11,R11
.LVL110:
		SLT		R11, R27, R2
	[R2]	SBR		.L76
		SNOP		6
	;; condjump to .L76 occurs
	.loc 1 403 0
		SMOVIL		204, R46
	|	SMVAAGL.M1		AR9, R11:R10
	|	SMVAAGL.M2		OR9, R19:R18
	|	SLDDW		*+AR15[17], R23:R22
.LVL111:
		SMOVIL		0, R47
	|	SBR		DSPF_sp_qrd_inverse_cmplx_wrapper
	|	SSTW		R17, *+AR15[12]
	|	SMVAAGL.M1		OR8, R21:R20
		SADDA.M1		R47:R46,AR15,OR11
	|	SMVAAGH.M2		AR9, R11:R10
	|	SSTW		R25, *+AR15[13]
	|	SMOVIL		.L166, R62
		SMVAAGH.M1		OR9, R19:R18
	|	SMVAAGH.M2		OR8, R21:R20
	|	SMOVIH		.L166, R62
		SMVAAGL.M1		OR11, R13:R12
	|	SMOVIH4.L		.L166, R63
		SMOV.M2		R27, R14
	|	SMOVIL		0, R32
		SMVAAGH.M2		OR11, R13:R12
	|	SMOV.M1		R27, R16
	|	SSTW		R27, *+AR15[11]
	;; call to DSPF_sp_qrd_inverse_cmplx_wrapper occurs, with return value
		SNOP		2
.LVL112:
.L166:
	.loc 1 128 0
		SLDDW		*+AR15[17], R9:R8
	.loc 1 404 0
		SLDW		*+AR15[50], R41
		SLDW		*+AR15[51], R55
		SLDW		*+AR15[30], R58
		SLDW		*+AR15[11], R61
		SNOP		1
	.loc 1 128 0
		SMVAGA36.M1		R9:R8, OR1
		SNOP		1
		SADDA.M2		4,OR1,OR2
	|	SSUB.M1		R41, R55, R12
	.loc 1 404 0
		SSUB.M1		R58, R12, R54
		SLDW		*+AR15[13], R49
	|	SMOV.M1		R61, R33
.LVL113:
		SLDW		*+AR15[12], R44
	|	SMVAAGL.M2		OR2, R31:R30
.LVL114:
		SLDDW		*+AR15[8], R37:R36
		SLDW		*+AR15[48], R39
	|	SMVAAGH.M2		OR2, R31:R30
		SLDW		*+AR15[49], R41
		SNOP		1
		SMOV.M2		R49, R38
		SMOV.M2		R44, R40
		SNOP		2
		SSTW		R54, *+AR15[32]
.LVL115:
.L83:
	.loc 1 392 0 discriminator 1
		SLDW		*+AR15[23], R3
	|	SMOVIL		-2147483648, R22
	|	SMOV.M2		R36, R16
	.loc 1 429 0 discriminator 1
		SMOVIL		1065353216, R14
	.loc 1 444 0 discriminator 1
		SMOVIL		1092616192, R15
	.loc 1 392 0 discriminator 1
		SMOVIL		0, R9
	.loc 1 128 0 discriminator 1
		SMOVIH		-2147483648, R22
	.loc 1 429 0 discriminator 1
		SMOVIH		1065353216, R14
	.loc 1 444 0 discriminator 1
		SMOVIH		1092616192, R15
.LVL116:
.L92:
		SSUB.M2		R16, R36, R20
	|	SMOVIL		0, R24
	|	SSUB.M1		R3, R37, R10
	.loc 1 392 0 discriminator 1
		SMOVIH		0, R24
	|	SMOV.M2		R16, R42
	|	SMOV.M1		R3, R43
	.loc 1 128 0 discriminator 1
		SLTU		R36, R20, R26
	|	SMOV.M2		R30, R44
	|	SMOV.M1		R31, R45
	.loc 1 392 0 discriminator 1
		SMOV.M2		R24, R17
	|	SSUB.M1		R26, R10, R25
	|	SMOVIL		0, R27
.LVL117:
.L84:
	.loc 1 128 0 discriminator 2
		SADD.M2		R42,R20,R48
	|	SADD.M1		R43,R25,R23
		SLTU		R48, R20, R19
	|	SADD.M1		R16,R39,R46
	|	SMVAGA36.M2		R43:R42, AR12
		SADD.M1		R23,R19,R49
	|	SLTU		R46, R39, R21
	|	SMVAGA36.M2		R45:R44, AR10
		SMVAGA36.M1		R49:R48, AR0
	|	SLDW		*AR12, R52
		SADD.M2		R3,R41,R28
	|	SLDW		*AR10, R29
		SMVAAA.M2		AR0, OR12
	|	SADD.M1		R28,R21,R47
	|	SLDW		*-AR10[1], R13
.LVL118:
	;no-op trunc di R47:R46 to pdi R47:R46
	.loc 1 418 0 discriminator 2
		SADD.M1		1,R27,R27
	.loc 1 128 0 discriminator 2
		SADDA.M2		R47:R46,OR12,AR12
	|	SLT		R27, R33, R0
	|	SADD.M1		8,R44,R51
		SADD.M1		R42,R40,R53
	|	SLTU		R51, R44, R1
		SLTU		R53, R42, R59
	|	SADD.M2		R43,R38,R43
	|	SMOV.M1		R51, R44
	.loc 1 425 0 discriminator 2
		SFMULS32.M2		R29, R52, R50
	|	SMOV.M1		R53, R42
	.loc 1 423 0 discriminator 2
		SLDW		*AR12, R18
	|	SADD.M2		R45,R1,R45
	|	SADD.M1		R43,R59,R43
.LVL119:
		SNOP		5
	.loc 1 424 0 discriminator 2
		SFMULS32.M1		R29, R18, R56
	|	SFMULAS32.M2	R13, R18, R50, R50
	.loc 1 425 0 discriminator 2
		SNOP		3
	.loc 1 128 0 discriminator 2
		SXOR		R22, R56, R57
	.loc 1 424 0 discriminator 2
		SFMULAS32.M1	R13, R52, R57, R57
	.loc 1 425 0 discriminator 2
		SFADDS32.M1		R24, R50, R24
	.loc 1 418 0 discriminator 2
	[R0]	SBR		.L84
		SNOP		3
	.loc 1 424 0 discriminator 2
		SFADDS32.M2		R17, R57, R17
		SNOP		2
.LVL120:
	.loc 1 418 0 discriminator 2
	;; condjump to .L84 occurs
	.loc 1 427 0
		SEQ		R9, R32, R2
	[R2]	SBR		.L148
		SNOP		6
	;; condjump to .L148 occurs
	.loc 1 433 0
		SFSPDP32T.M1		R17, R43:R42
	|	SFSPDP32T.M2		R24, R49:R48
	.loc 1 439 0
		SNOP		1
	.loc 1 433 0
		SFABSD.M2		R43:R42, R45:R44
		SNOP		1
		SFDPSP32.M2		R45:R44, R11
	|	SFABSD.M1		R49:R48, R43:R42
.LVL121:
	.loc 1 439 0
		SNOP		1
		SFDPSP32.M1		R43:R42, R47
.LVL122:
	.loc 1 444 0
		SFCMPGS32.M2		R11, R15, R1
	[R1]	SBR		.L149
		SNOP		6
	;; condjump to .L149 occurs
.L133:
	.loc 1 414 0
		SADD.M2		1,R9,R9
	|	SFCMPGS32.M1		R47, R15, R0
.LVL123:
		SLT		R9, R33, R2
	|[R0]	SBR		.L150
	|	SADD.M2		8,R16,R8
		SLTU		R8, R16, R55
	|	SMOV.M2		R8, R16
		SADD.M2		R3,R55,R3
		SNOP		4
	.loc 1 450 0
	;; condjump to .L150 occurs
	.loc 1 414 0
	[R2]	SBR		.L92
		SNOP		6
	;; condjump to .L92 occurs
	.loc 1 412 0
		SADD.M2		1,R32,R32
	|	SADD.M1		R30,R40,R49
.LVL124:
		SLT		R32, R33, R1
	|	SADD.M2		R31,R38,R43
	[R1]	SBR		.L83
	|	SLTU		R49, R30, R44
	|	SMOV.M2		R49, R30
		SADD.M2		R43,R44,R31
		SNOP		5
	;; condjump to .L83 occurs
.LVL125:
.L137:
		SMOV.M2		R33, R37
.LVL126:
.L74:
	.loc 1 461 0
		SLDH		*+AR15[28], R36
		SNOP		5
		SAND		1, R36, R0
	[!R0]	SBR		.L93
		SNOP		6
	;; condjump to .L93 occurs
	.loc 1 463 0
		SMOVIL.L		.LC15, R42
	|	SSTW		R37, *+AR15[11]
		SMOVIH.L		.LC15, R42
		SBR		printf
	|	SMOVIH4.L		.LC15, R43
		SSTDW		R43:R42, *+AR15[1]
	|	SMOVIL		.L167, R62
		SMOVIH		.L167, R62
		SMOVIH4.L		.L167, R63
	;; call to printf occurs, with return value
		SNOP		3
.LVL127:
.L167:
	.loc 1 464 0
		SLDW		*+AR15[11], R9
	|	SMOVIL.L		.LC16, R46
		SLDW		*+AR15[33], R22
	|	SMOVIH4.L		.LC16, R47
		SLDW		*+AR15[31], R14
	|	SMOVIH.L		.LC16, R46
		SLDW		*+AR15[32], R15
		SNOP		5
		SSTDW		R47:R46, *+AR15[1]
		SSTW		R9, *+AR15[4]
		SNOP		2
		SSTW		R9, *+AR15[5]
		SBR		printf
	|	SSTW		R22, *+AR15[6]
		SMOVIL		.L168, R62
		SMOVIH		.L168, R62
		SSTW		R14, *+AR15[7]
	|	SMOVIH4.L		.L168, R63
		SSTW		R15, *+AR15[8]
	;; call to printf occurs, with return value
		SNOP		2
.LVL128:
.L168:
		SLDW		*+AR15[22], R20
	|	SMOVIL		4, R47
	.loc 1 168 0
		SNOP		5
		SADD.M2		1,R20,R24
		SEQ		R47, R24, R2
	|	SSTW		R24, *+AR15[22]
	[!R2]	SBR		.L95
		SNOP		6
	;; condjump to .L95 occurs
.LVL129:
.L153:
	.loc 1 472 0
		SLDDW		*+AR15[32], R7:R6
		SLDDW		*+AR15[36], R63:R62
		SLDDW		*+AR15[26], R31:R30
		SLDDW		*+AR15[27], R33:R32
		SLDDW		*+AR15[28], R35:R34
		SNOP		1
		SMVAGA36.M2		R7:R6, AR8
		SMVCGC.L		R63, BRReg
		SNOP		2
		SLDDW		*+AR15[33], R7:R6
		SLDDW		*+AR15[29], R37:R36
		SLDDW		*+AR15[30], R39:R38
		SLDDW		*+AR15[31], R41:R40
		SNOP		2
		SMVAGA36.M2		R7:R6, AR9
		SNOP		2
		SLDDW		*+AR15[34], R7:R6
		SNOP		5
		SMVAGA36.M2		R7:R6, OR8
	|	SLDDW		*+AR15[35], R7:R6
.LVL130:
		SNOP		5
		SMVAGA36.M2		R7:R6, OR9
	|	SLDDW		*+AR15[37], R7:R6
.LVL131:
		SNOP		2
		SBR		R62
		SNOP		2
		SMVAGA36.M2		R7:R6, AR14
	|	SMOVIL		304, R6
.LVL132:
		SMOVIL		0, R7
		SADDA.M2		R7:R6,AR15,AR15
		SNOP		1
	;; return occurs
.LVL133:
.L141:
	.loc 1 231 0
		SBR		puts
	|	SMOVIH4.L		.LC6, R11
		SMOVIL		.L169, R62
		SMOVIH		.L169, R62
		SMOVIH4.L		.L169, R63
		SMOVIL.L		.LC6, R10
.LVL134:
		SMOVIH.L		.LC6, R10
	;; call to puts occurs, with return value
		SMOVIL		-2147483648, R38
.LVL135:
.L169:
		SLDW		*+AR15[11], R8
	|	SMOVIL		0, R17
	|	SMOV.M2		R34, R13
	|	SMOV.M1		R35, R18
.LVL136:
		SLDDW		*+AR15[21], R37:R36
	|	SMOVIL		1092616192, R40
	.loc 1 128 0
		SMOVIH		-2147483648, R38
	.loc 1 265 0
		SMOVIH		1092616192, R40
		SNOP		2
	.loc 1 128 0
		SSHFLL		1, R8, R44
		SSTW		R44, *+AR15[18]
	|	SSHFLL		2, R8, R33
	|	SMOV.M2		R36, R41
		SSHFLL		3, R8, R9
	|	SSTDW		R37:R36, *+AR15[14]
	|	SMOV.M2		R37, R36
		SLTU		R9, R33, R11
	|	SMOV.M2		R9, R37
		SNOP		1
		SLDW		*+AR15[18], R3
		SNOP		5
		SLTU		R33, R3, R43
	|	SLDDW		*+AR15[8], R33:R32
		SSHFLL		1, R43, R10
		SBR		.L53
	|	SSHFAR		31, R3, R45
	|	SADD.M2		R10,R11,R15
		SMOV.M2		R15, R39
		SSTW		R45, *+AR15[19]
		SNOP		1
		SMOV.M2		R32, R48
	|	SMOV.M1		R33, R19
		SMOV.M2		R8, R32
	|	SMOV.M1		R17, R33
		SMOV.M2		R48, R30
	|	SMOV.M1		R19, R31
	;; jump to .L53 occurs
.LVL137:
.L144:
	.loc 1 304 0
		SMOVIL		1065353216, R42
		SMOVIH		1065353216, R42
		SFSUBS32.M2		R42, R57, R43
		SNOP		2
		SBR		.L64
	|	SFSPDP32T.M2		R43, R49:R48
		SNOP		1
		SFABSD.M2		R49:R48, R45:R44
		SNOP		1
		SFDPSP32.M2		R45:R44, R45
		SNOP		2
.LVL138:
	;; jump to .L64 occurs
.LVL139:
.L148:
	.loc 1 429 0
		SFSUBS32.M1		R14, R17, R60
	|	SFSPDP32T.M2		R24, R49:R48
	.loc 1 439 0
		SNOP		1
		SFABSD.M2		R49:R48, R43:R42
	.loc 1 429 0
		SFSPDP32T.M1		R60, R47:R46
		SNOP		1
		SFABSD.M2		R47:R46, R45:R44
		SNOP		1
		SFDPSP32.M1		R45:R44, R11
	|	SFDPSP32.M2		R43:R42, R47
.LVL140:
	.loc 1 439 0
		SNOP		2
.LVL141:
	.loc 1 444 0
		SFCMPGS32.M2		R11, R15, R1
	[!R1]	SBR		.L133
		SNOP		6
	;; condjump to .L133 occurs
.L149:
.LVL142:
	.loc 1 447 0
		SFSPDP32T.M2		R11, R55:R54
	|	SMOVIL.L		.LC13, R44
	|	SADD.M1		1,R32,R32
		SMOVIH.L		.LC13, R44
		SBR		printf
	|	SMOVIH4.L		.LC13, R45
	|	SSTDW		R55:R54, *+AR15[2]
		SSTDW		R45:R44, *+AR15[1]
	|	SMOVIL		.L170, R62
		SMOVIH		.L170, R62
		SMOVIH4.L		.L170, R63
	.loc 1 446 0
		SMOVIL		0, R61
		SSTH		R61, *+AR15[28]
	.loc 1 447 0
	;; call to printf occurs, with return value
		SNOP		1
.LVL143:
.L170:
	.loc 1 412 0
		SLT		R32, R33, R1
	|	SADD.M2		R30,R40,R49
	|	SADD.M1		R31,R38,R43
	[R1]	SBR		.L83
	|	SLTU		R49, R30, R44
	|	SMOV.M2		R49, R30
		SADD.M2		R43,R44,R31
		SNOP		5
	;; condjump to .L83 occurs
		SBR		.L137
		SNOP		6
	;; jump to .L137 occurs
.LVL144:
.L142:
	.loc 1 268 0
		SFSPDP32T.M2		R3, R49:R48
	|	SMOVIL.L		.LC7, R44
	|	SSTW		R13, *+AR15[13]
		SMOVIH.L		.LC7, R44
	|	SSTW		R18, *+AR15[12]
	.loc 1 274 0
		SBR		printf
	|	SMOVIH4.L		.LC7, R45
	.loc 1 268 0
		SMOVIL		.L171, R62
		SSTDW		R45:R44, *+AR15[1]
	|	SMOVIH		.L171, R62
	.loc 1 274 0
		SSTDW		R49:R48, *+AR15[2]
	|	SMOVIH4.L		.L171, R63
	.loc 1 267 0
		SMOVIL		0, R22
		SNOP		1
	.loc 1 274 0
	;; call to printf occurs, with return value
		SSTH		R22, *+AR15[28]
.LVL145:
.L171:
	.loc 1 275 0
		SLDW		*+AR15[13], R13
		SNOP		1
		SLDW		*+AR15[12], R18
		SNOP		5
.L152:
.LVL146:
	.loc 1 240 0
		SADD.M2		1,R33,R33
	|	SADD.M1		R30,R37,R20
.LVL147:
		SLT		R33, R32, R2
	|	SADD.M2		R37,R41,R23
	|	SADD.M1		R31,R39,R31
	[R2]	SBR		.L53
	|	SLTU		R20, R30, R24
	|	SMOV.M2		R20, R30
	|	SADD.M1		R39,R36,R36
		SADD.M2		R31,R24,R31
	|	SLTU		R23, R41, R21
	|	SMOV.M1		R23, R41
		SADD.M2		R36,R21,R36
		SNOP		4
	;; condjump to .L53 occurs
		SBR		.L151
		SNOP		6
	;; jump to .L151 occurs
.LVL148:
.L143:
	.loc 1 274 0
		SFSPDP32T.M2		R43, R49:R48
	|	SMOVIL.L		.LC8, R44
	|	SSTW		R13, *+AR15[13]
		SMOVIH.L		.LC8, R44
	|	SSTW		R18, *+AR15[12]
		SBR		printf
	|	SMOVIH4.L		.LC8, R45
		SMOVIL		.L172, R62
		SSTDW		R45:R44, *+AR15[1]
	|	SMOVIH		.L172, R62
		SSTDW		R49:R48, *+AR15[2]
	|	SMOVIH4.L		.L172, R63
	.loc 1 273 0
		SMOVIL		0, R19
		SNOP		1
	.loc 1 274 0
	;; call to printf occurs, with return value
		SSTH		R19, *+AR15[28]
.LVL149:
.L172:
	.loc 1 275 0
		SLDW		*+AR15[13], R13
		SBR		.L152
		SLDW		*+AR15[12], R18
		SNOP		5
	;; jump to .L152 occurs
.LVL150:
.L150:
	.loc 1 453 0
		SFSPDP32T.M2		R47, R13:R12
	|	SMOVIL.L		.LC14, R44
	|	SADD.M1		1,R32,R32
		SMOVIH.L		.LC14, R44
		SBR		printf
	|	SMOVIH4.L		.LC14, R45
	|	SSTDW		R13:R12, *+AR15[2]
		SSTDW		R45:R44, *+AR15[1]
	|	SMOVIL		.L173, R62
		SMOVIH		.L173, R62
		SMOVIH4.L		.L173, R63
	.loc 1 452 0
		SMOVIL		0, R58
		SSTH		R58, *+AR15[28]
	.loc 1 453 0
	;; call to printf occurs, with return value
		SNOP		1
.LVL151:
.L173:
	.loc 1 412 0
		SLT		R32, R33, R1
	|	SADD.M2		R30,R40,R49
	|	SADD.M1		R31,R38,R43
	[R1]	SBR		.L83
	|	SLTU		R49, R30, R44
	|	SMOV.M2		R49, R30
		SADD.M2		R43,R44,R31
		SNOP		5
	;; condjump to .L83 occurs
		SBR		.L137
		SNOP		6
	;; jump to .L137 occurs
.LVL152:
.L93:
	.loc 1 468 0
		SMOVIL.L		.LC17, R42
	|	SSTW		R37, *+AR15[4]
		SMOVIH.L		.LC17, R42
	|	SSTW		R37, *+AR15[11]
		SBR		printf
	|	SMOVIH4.L		.LC17, R43
		SMOVIL		.L174, R62
		SSTDW		R43:R42, *+AR15[1]
	|	SMOVIH		.L174, R62
		SMOVIH4.L		.L174, R63
	;; call to printf occurs, with return value
		SNOP		3
.LVL153:
.L174:
	.loc 1 469 0
		SLDW		*+AR15[31], R16
	|	SMOVIL.L		.LC16, R42
		SLDW		*+AR15[11], R30
	|	SMOVIH.L		.LC16, R42
		SLDW		*+AR15[33], R31
	|	SMOVIH4.L		.LC16, R43
		SLDW		*+AR15[32], R3
		SNOP		5
		SSTDW		R43:R42, *+AR15[1]
		SSTW		R30, *+AR15[4]
		SNOP		2
		SSTW		R30, *+AR15[5]
		SBR		printf
	|	SSTW		R31, *+AR15[6]
		SMOVIL		.L175, R62
		SMOVIH		.L175, R62
		SSTW		R16, *+AR15[7]
	|	SMOVIH4.L		.L175, R63
		SSTW		R3, *+AR15[8]
	;; call to printf occurs, with return value
		SNOP		2
.LVL154:
.L175:
		SLDW		*+AR15[22], R20
	|	SMOVIL		4, R47
	.loc 1 168 0
		SNOP		5
		SADD.M2		1,R20,R24
		SEQ		R47, R24, R2
	|	SSTW		R24, *+AR15[22]
	[!R2]	SBR		.L95
		SNOP		6
	;; condjump to .L95 occurs
		SBR		.L153
		SNOP		6
	;; jump to .L153 occurs
.LVL155:
.L44:
	.loc 1 210 0
		SBR		srand
	|	SMOVIL		973082626, R40
	.loc 1 215 0
		SMOVIL		.L176, R62
		SMOVIH		.L176, R62
		SMOVIH4.L		.L176, R63
		SMOVIH		973082626, R40
		SMOV.M2		R40, R38
	.loc 1 210 0
	;; call to srand occurs
		SNOP		1
.LVL156:
.L176:
	.loc 1 128 0
		SLDW		*+AR15[16], R12
	|	SMOVIL		32764, R8
		SLDW		*+AR15[23], R3
		SNOP		4
		SADD.M2		R8,R12,R41
		SLTU		R41, R12, R16
		SADD.M2		R3,R16,R9
		SMOV.M2		R9, R39
.LVL157:
.L50:
	.loc 1 128 0 is_stmt 0 discriminator 1
		SMOVIL		512, R45
		SADD.M2		R45,R30,R36
		SLTU		R36, R30, R10
		SADD.M2		R31,R10,R37
.LVL158:
.L51:
	.loc 1 215 0 is_stmt 1 discriminator 2
		SBR		rand
		SMOVIL		.L177, R62
		SMOVIH		.L177, R62
		SMOVIH4.L		.L177, R63
	;; call to rand occurs, with return value
		SNOP		3
.LVL159:
.L177:
		SADD.M1		4,R30,R15
	|	SFINTS32.M2		R10,R13
		SLTU		R15, R30, R17
	|	SMOV.M2		R15, R30
		SADD.M1		R31,R17,R31
	|	SEQ		R15, R36, R2
	.loc 1 213 0 discriminator 2
	[R2]	SEQ		R31, R37, R2
	|	SFMULS32.M2		R13, R40, R18
	|	SMVAGA36.M1		R31:R30, AR10
	[!R2]	SBR		.L51
		SNOP		2
	.loc 1 215 0 discriminator 2
		SSTW		R18, *AR10
		SNOP		3
	.loc 1 213 0 discriminator 2
	;; condjump to .L51 occurs
	.loc 1 217 0
		SBR		rand
	|	SMVAGA36.M2		R33:R32, AR8
	.loc 1 128 0
		SMOVIL		.L178, R62
		SMOVIH		.L178, R62
		SMOVIH4.L		.L178, R63
	.loc 1 217 0
	;; call to rand occurs, with return value
		SNOP		3
.LVL160:
.L178:
		SFINTS32.M2		R10,R19
	.loc 1 218 0
		SBR		rand
		SMOVIL		.L179, R62
	.loc 1 217 0
		SFMULS32.M2		R19, R38, R20
	|	SMOVIH		.L179, R62
		SMOVIH4.L		.L179, R63
		SNOP		2
	.loc 1 218 0
	;; call to rand occurs, with return value
		SSTW		R20, *-AR8[1]
.LVL161:
.L179:
	.loc 1 211 0
		SEQ		R36, R41, R1
	|	SFINTS32.M2		R10,R21
	|	SADD.M1		8,R32,R22
	[R1]	SEQ		R37, R39, R1
	[!R1]	SBR		.L50
	|	SLTU		R22, R32, R47
	|	SMOV.M1		R22, R32
		SADD.M1		R33,R47,R33
	|	SFMULS32.M2		R21, R38, R24
	.loc 1 218 0
		SNOP		3
		SSTW		R24, *AR8
		SNOP		1
	.loc 1 211 0
	;; condjump to .L50 occurs
	.loc 1 227 0
		SMOVIL		204, R42
	|	SMVAAGL.M1		AR9, R11:R10
	|	SMVAAGL.M2		OR9, R21:R20
	|	SLDDW		*+AR15[12], R19:R18
		SMOVIL		0, R43
	|	SBR		DSPF_sp_qrd_cmplx_wrapper
	|	SLDDW		*+AR15[19], R25:R24
	|	SMVAAGL.M1		OR8, R23:R22
		SADDA.M1		R43:R42,AR15,OR13
	|	SMVAAGH.M2		AR9, R11:R10
	|	SMOVIL		.L180, R62
		SMVAAGH.M1		OR9, R21:R20
	|	SMVAAGH.M2		OR8, R23:R22
	|	SMOVIH		.L180, R62
		SMVAAGL.M1		OR13, R13:R12
	|	SMOVIH4.L		.L180, R63
	.loc 1 211 0
		SMOVIL		64, R30
.LVL162:
	.loc 1 227 0
		SMVAAGH.M2		OR13, R13:R12
	|	SMOV.M1		R30, R14
	|	SMOVIL		-1, R31
	;; call to DSPF_sp_qrd_cmplx_wrapper occurs, with return value
		SMOV.M1		R30, R16
	|	SSTW		R30, *+AR15[11]
.LVL163:
.L180:
	.loc 1 228 0
		SLDW		*+AR15[50], R59
	|	SEQ		R31, R10, R32
	.loc 1 229 0
		SMOV.M2		R32, R1
	.loc 1 228 0
		SLDW		*+AR15[51], R60
		SLDW		*+AR15[30], R46
	.loc 1 229 0
	[!R1]	SBR		.L52
	|	SLDW		*+AR15[11], R8
		SNOP		3
	.loc 1 228 0
		SSUB.M2		R59, R60, R61
		SSUB.M2		R46, R61, R42
		SSTW		R42, *+AR15[33]
	;; condjump to .L52 occurs
.LVL164:
		SBR		.L141
		SNOP		6
	;; jump to .L141 occurs
.LVL165:
.L43:
	.loc 1 194 0
		SBR		srand
	|	SLDDW		*+AR15[10], R33:R32
	|	SMOVIL		1, R10
		SLDDW		*+AR15[13], R31:R30
	|	SMOVIL		.L181, R62
		SMOVIH		.L181, R62
		SMOVIH4.L		.L181, R63
	.loc 1 199 0
		SMOVIL		973082626, R36
		SMOVIH		973082626, R36
	.loc 1 194 0
	;; call to srand occurs
		SMOV.M2		R36, R37
.LVL166:
.L181:
		SLDW		*+AR15[46], R39
		SLDW		*+AR15[47], R41
		SNOP		5
.LVL167:
.L48:
	.loc 1 128 0 discriminator 1
		SMOVIL		384, R25
		SADD.M2		R25,R30,R38
		SLTU		R38, R30, R27
		SADD.M2		R31,R27,R40
.LVL168:
.L49:
	.loc 1 199 0 discriminator 2
		SBR		rand
		SMOVIL		.L182, R62
		SMOVIH		.L182, R62
		SMOVIH4.L		.L182, R63
	;; call to rand occurs, with return value
		SNOP		3
.LVL169:
.L182:
		SADD.M1		4,R30,R29
	|	SFINTS32.M2		R10,R28
		SLTU		R29, R30, R49
	|	SMOV.M2		R29, R30
		SADD.M1		R31,R49,R31
	|	SEQ		R29, R38, R0
	.loc 1 197 0 discriminator 2
	[R0]	SEQ		R31, R40, R0
	|	SFMULS32.M2		R28, R36, R51
	|	SMVAGA36.M1		R31:R30, AR10
	[!R0]	SBR		.L49
		SNOP		2
	.loc 1 199 0 discriminator 2
		SSTW		R51, *AR10
		SNOP		3
	.loc 1 197 0 discriminator 2
	;; condjump to .L49 occurs
	.loc 1 201 0
		SBR		rand
	|	SMVAGA36.M2		R33:R32, AR8
	.loc 1 128 0
		SMOVIL		.L183, R62
		SMOVIH		.L183, R62
		SMOVIH4.L		.L183, R63
	.loc 1 201 0
	;; call to rand occurs, with return value
		SNOP		3
.LVL170:
.L183:
		SFINTS32.M2		R10,R52
	.loc 1 202 0
		SBR		rand
		SMOVIL		.L184, R62
	.loc 1 201 0
		SFMULS32.M2		R52, R37, R53
	|	SMOVIH		.L184, R62
		SMOVIH4.L		.L184, R63
		SNOP		2
	.loc 1 202 0
	;; call to rand occurs, with return value
		SSTW		R53, *-AR8[1]
.LVL171:
.L184:
	.loc 1 195 0
		SEQ		R38, R39, R2
	|	SFINTS32.M2		R10,R54
	|	SADD.M1		8,R32,R55
	[R2]	SEQ		R40, R41, R2
	[!R2]	SBR		.L48
	|	SLTU		R55, R32, R56
	|	SMOV.M1		R55, R32
		SADD.M1		R33,R56,R33
	|	SFMULS32.M2		R54, R37, R58
	.loc 1 202 0
		SNOP		3
		SSTW		R58, *AR8
		SNOP		1
	.loc 1 195 0
	;; condjump to .L48 occurs
	.loc 1 227 0
		SMOVIL		204, R42
	|	SMVAAGL.M1		AR9, R11:R10
	|	SMVAAGL.M2		OR9, R21:R20
	|	SLDDW		*+AR15[12], R19:R18
		SMOVIL		0, R43
	|	SBR		DSPF_sp_qrd_cmplx_wrapper
	|	SLDDW		*+AR15[19], R25:R24
	|	SMVAAGL.M1		OR8, R23:R22
		SADDA.M1		R43:R42,AR15,OR13
	|	SMVAAGH.M2		AR9, R11:R10
	|	SMOVIL		.L185, R62
		SMVAAGH.M1		OR9, R21:R20
	|	SMVAAGH.M2		OR8, R23:R22
	|	SMOVIH		.L185, R62
		SMVAAGL.M1		OR13, R13:R12
	|	SMOVIH4.L		.L185, R63
	.loc 1 195 0
		SMOVIL		48, R30
.LVL172:
	.loc 1 227 0
		SMVAAGH.M2		OR13, R13:R12
	|	SMOV.M1		R30, R14
	|	SMOVIL		-1, R31
	;; call to DSPF_sp_qrd_cmplx_wrapper occurs, with return value
		SMOV.M1		R30, R16
	|	SSTW		R30, *+AR15[11]
.LVL173:
.L185:
	.loc 1 228 0
		SLDW		*+AR15[50], R59
	|	SEQ		R31, R10, R32
	.loc 1 229 0
		SMOV.M2		R32, R1
	.loc 1 228 0
		SLDW		*+AR15[51], R60
		SLDW		*+AR15[30], R46
	.loc 1 229 0
	[!R1]	SBR		.L52
	|	SLDW		*+AR15[11], R8
		SNOP		3
	.loc 1 228 0
		SSUB.M2		R59, R60, R61
		SSUB.M2		R46, R61, R42
		SSTW		R42, *+AR15[33]
	;; condjump to .L52 occurs
.LVL174:
		SBR		.L141
		SNOP		6
	;; jump to .L141 occurs
.LVL175:
.L147:
	.loc 1 393 0
		SFSPDP32T.M2		R33, R47:R46
	|	SMOVIL.L		.LC12, R44
	|	SSTW		R11, *+AR15[6]
		SMOVIH.L		.LC12, R44
	|	SSTW		R26, *+AR15[7]
		SMOVIH4.L		.LC12, R45
.LVL176:
	.loc 1 392 0
		SMOVIL		0, R48
	.loc 1 393 0
		SSTDW		R45:R44, *+AR15[1]
		SSTDW		R47:R46, *+AR15[2]
		SNOP		1
		SBR		printf
		SSTW		R17, *+AR15[12]
	|	SMOVIL		.L186, R62
		SSTW		R25, *+AR15[13]
	|	SMOVIH		.L186, R62
		SMOVIH4.L		.L186, R63
		SNOP		1
		SSTW		R27, *+AR15[11]
	.loc 1 392 0
		SSTH		R48, *+AR15[28]
	.loc 1 393 0
	;; call to printf occurs, with return value
		SNOP		2
.LVL177:
.L186:
	.loc 1 394 0
		SLDW		*+AR15[12], R17
		SLDW		*+AR15[13], R25
		SLDW		*+AR15[11], R27
		SNOP		5
.L154:
.LVL178:
	.loc 1 403 0
		SMOVIL		204, R46
	|	SMVAAGL.M1		AR9, R11:R10
	|	SMVAAGL.M2		OR9, R19:R18
	|	SLDDW		*+AR15[17], R23:R22
		SMOVIL		0, R47
	|	SBR		DSPF_sp_qrd_inverse_cmplx_wrapper
	|	SSTW		R17, *+AR15[12]
	|	SMVAAGL.M1		OR8, R21:R20
		SADDA.M1		R47:R46,AR15,OR11
	|	SMVAAGH.M2		AR9, R11:R10
	|	SSTW		R25, *+AR15[13]
	|	SMOVIL		.L187, R62
		SMVAAGH.M1		OR9, R19:R18
	|	SMVAAGH.M2		OR8, R21:R20
	|	SMOVIH		.L187, R62
		SMVAAGL.M1		OR11, R13:R12
	|	SMOVIH4.L		.L187, R63
		SMOV.M2		R27, R14
	|	SMOVIL		0, R32
.LVL179:
		SMVAAGH.M2		OR11, R13:R12
	|	SMOV.M1		R27, R16
	|	SSTW		R27, *+AR15[11]
	;; call to DSPF_sp_qrd_inverse_cmplx_wrapper occurs, with return value
		SNOP		2
.LVL180:
.L187:
	.loc 1 128 0
		SLDDW		*+AR15[17], R9:R8
	.loc 1 404 0
		SLDW		*+AR15[50], R41
		SLDW		*+AR15[51], R55
		SLDW		*+AR15[30], R58
		SLDW		*+AR15[11], R61
		SNOP		1
	.loc 1 128 0
		SMVAGA36.M1		R9:R8, OR1
		SNOP		1
		SADDA.M2		4,OR1,OR2
	|	SSUB.M1		R41, R55, R12
	.loc 1 404 0
		SSUB.M1		R58, R12, R54
		SLDW		*+AR15[13], R49
	|	SMOV.M1		R61, R33
.LVL181:
		SLDW		*+AR15[12], R44
	|	SMVAAGL.M2		OR2, R31:R30
.LVL182:
		SLDDW		*+AR15[8], R37:R36
		SLDW		*+AR15[48], R39
	|	SMVAAGH.M2		OR2, R31:R30
		SBR		.L83
	|	SLDW		*+AR15[49], R41
		SNOP		1
		SMOV.M2		R49, R38
		SMOV.M2		R44, R40
		SNOP		2
		SSTW		R54, *+AR15[32]
	;; jump to .L83 occurs
.LVL183:
.L146:
	.loc 1 387 0
		SFSPDP32T.M2		R53, R47:R46
	|	SMOVIL.L		.LC11, R44
	|	SSTW		R11, *+AR15[6]
		SMOVIH.L		.LC11, R44
	|	SSTW		R26, *+AR15[7]
		SMOVIH4.L		.LC11, R45
.LVL184:
	.loc 1 386 0
		SMOVIL		0, R40
	.loc 1 387 0
		SSTDW		R45:R44, *+AR15[1]
	.loc 1 393 0
		SSTDW		R47:R46, *+AR15[2]
		SNOP		1
		SBR		printf
		SSTW		R17, *+AR15[12]
	|	SMOVIL		.L188, R62
		SSTW		R25, *+AR15[13]
	|	SMOVIH		.L188, R62
		SMOVIH4.L		.L188, R63
		SNOP		1
		SSTW		R27, *+AR15[11]
	.loc 1 386 0
		SSTH		R40, *+AR15[28]
	.loc 1 393 0
	;; call to printf occurs, with return value
		SNOP		2
.LVL185:
.L188:
	.loc 1 394 0
		SLDW		*+AR15[12], R17
		SBR		.L154
	|	SLDW		*+AR15[13], R25
		SLDW		*+AR15[11], R27
		SNOP		5
	;; jump to .L154 occurs
.LVL186:
.L145:
	.loc 1 352 0
		SBR		puts
	|	SMOVIH4.L		.LC10, R11
		SMOVIL		.L189, R62
		SMOVIH		.L189, R62
		SMOVIH4.L		.L189, R63
		SMOVIL.L		.LC10, R10
.LVL187:
		SMOVIH.L		.LC10, R10
	;; call to puts occurs, with return value
		SNOP		1
.LVL188:
.L189:
		SLDW		*+AR15[11], R27
	|	SMOVIL		1, R3
		SLDW		*+AR15[13], R25
	|	SMOVIL		-2147483648, R20
		SLDW		*+AR15[12], R17
	|	SMOVIL		1092616192, R24
		SBR		.L76
	|	SLDDW		*+AR15[10], R49:R48
	|	SMOVIL		0, R11
	.loc 1 128 0
		SLDDW		*+AR15[8], R47:R46
	|	SMOVIH		-2147483648, R20
	.loc 1 384 0
		SMOVIH		1092616192, R24
		SMAX		R27, R3, R26
		SNOP		3
	;; jump to .L76 occurs
	.cfi_endproc
.LFE8:
	.size	test_qr_solver_complx, .-test_qr_solver_complx
	.section	.const.str1.1
.LC18:
	.string	"begin test"
.LC19:
	.string	"end"
	.section	.text.startup.main,"ax",@progbits
	.align	2
	.global	main
	.type	main, @function
main:
.LFB7:
	.loc 1 87 0
	.cfi_startproc
.LVL189:
		SMOVIL		-88, R6
		SMOVIL		-1, R7
		SADDA.M2		R7:R6,AR15,AR15
.LCFI5:
	.cfi_def_cfa_offset 88
		SMVAAGL.M1		AR14, R7:R6
	|	SMOVIL		1075052548, R46
	.cfi_offset 78, -16
	.cfi_offset 79, -12
	.loc 1 91 0
		SMOVIH		1075052548, R46
	|	SSTDW		R63:R62, *+AR15[9]
	.cfi_offset 54, -40
	.cfi_offset 55, -36
	.loc 1 87 0
		SMVAAGH.M2		AR14, R7:R6
	|	SMOVIL		0, R47
	|	SSTDW		R39:R38, *+AR15[6]
	.loc 1 91 0
		SMVAGA36.M1		R47:R46, AR10
	|	SMOVIL		1075052544, R42
		SMOVIL		1, R44
	.loc 1 87 0
		SSTDW		R7:R6, *+AR15[10]
	.cfi_offset 14, -8
	.cfi_offset 52, -48
	.cfi_offset 53, -44
		SMVAAGL.M2		OR8, R7:R6
	|	SSTDW		R37:R36, *+AR15[5]
	.loc 1 92 0
		SMOVIH		1075052544, R42
	.loc 1 87 0
		SMVAAGH.M2		OR8, R7:R6
	|	SMOVIL		0, R43
		SSTDW		R35:R34, *+AR15[4]
		SSTDW		R7:R6, *+AR15[8]
		SMVAAGL.M2		AR8, R7:R6
		SNOP		1
	.cfi_offset 50, -56
	.cfi_offset 51, -52
	.cfi_offset 88, -24
	.cfi_offset 48, -64
	.cfi_offset 49, -60
		SMVAAGH.M2		AR8, R7:R6
	|	SSTDW		R33:R32, *+AR15[3]
		SSTDW		R31:R30, *+AR15[2]
		SNOP		2
		SSTDW		R7:R6, *+AR15[7]
	.cfi_offset 46, -72
	.cfi_offset 47, -68
	.cfi_offset 8, -32
	.loc 1 91 0
		SSTW		R44, *AR10
	|	SMVAGA36.M2		R43:R42, AR10
	.loc 1 92 0
		SNOP		2
		SSTW		R44, *AR10
	.loc 1 93 0
		SSTW		R44, *+AR15[3]
		SNOP		2
.LVL190:
	.loc 1 94 0
		SLDW		*+AR15[3], R0
		SNOP		5
	[!R0]	SBR		.L192
		SNOP		6
	;; condjump to .L192 occurs
.L193:
	.loc 1 95 0
		SLDW		*AR10, R42
		SNOP		5
.LVL191:
		SSTW		R42, *+AR15[3]
		SNOP		2
.LVL192:
	.loc 1 94 0
		SLDW		*+AR15[3], R1
		SNOP		5
	[R1]	SBR		.L193
		SNOP		6
	;; condjump to .L193 occurs
.L192:
	.loc 1 97 0
		SBR		SetTimerPeriod
	|	SMOVIL		-1, R12
		SMOVIL		.L198, R62
		SMOVIH		.L198, R62
		SMOVIH4.L		.L198, R63
		SMOVIL		0, R10
	;; call to SetTimerPeriod occurs
		SNOP		2
.LVL193:
.L198:
	.loc 1 98 0
		SBR		TimerStart
	|	SMOVIL		0, R10
		SMOVIL		.L199, R62
		SMOVIH		.L199, R62
		SMOVIH4.L		.L199, R63
	;; call to TimerStart occurs
		SNOP		3
.LVL194:
.L199:
	.loc 1 103 0
		SBR		malloc
	|	SMOVIL		0, R11
		SMOVIL		.L200, R62
		SMOVIH		.L200, R62
		SMOVIH4.L		.L200, R63
		SMOVIL		131072, R10
		SMOVIH		131072, R10
	;; call to malloc occurs, with return value
		SNOP		1
.LVL195:
.L200:
	.loc 1 104 0
		SBR		malloc
	|	SMVAGA36.M2		R11:R10, OR11
	|	SMOVIL		0, R11
		SMOVIL		.L201, R62
	.loc 1 103 0
		SMVAAGL.M2		OR11, R39:R38
	|	SMOVIH		.L201, R62
		SMOVIH4.L		.L201, R63
		SMVAAGH.M2		OR11, R39:R38
	|	SMOVIL		131072, R10
.LVL196:
	.loc 1 104 0
		SMOVIH		131072, R10
	;; call to malloc occurs, with return value
		SNOP		1
.LVL197:
.L201:
	.loc 1 105 0
		SBR		malloc
	|	SMVAGA36.M2		R11:R10, OR8
	|	SMOVIL		0, R11
		SMOVIL		.L202, R62
	.loc 1 104 0
		SMVAAGL.M2		OR8, R37:R36
	|	SMOVIH		.L202, R62
		SMOVIH4.L		.L202, R63
	.loc 1 105 0
		SMOVIL		131072, R10
	|	SMVAAGH.M2		OR8, R37:R36
.LVL198:
		SMOVIH		131072, R10
	;; call to malloc occurs, with return value
		SNOP		1
.LVL199:
.L202:
	.loc 1 106 0
		SBR		malloc
	|	SMVAGA36.M2		R11:R10, OR12
	|	SMOVIL		0, R11
		SMOVIL		.L203, R62
	.loc 1 105 0
		SMVAAGL.M2		OR12, R35:R34
	|	SMOVIH		.L203, R62
		SMOVIH4.L		.L203, R63
		SMVAAGH.M2		OR12, R35:R34
	|	SMOVIL		131072, R10
.LVL200:
	.loc 1 106 0
		SMOVIH		131072, R10
	;; call to malloc occurs, with return value
		SNOP		1
.LVL201:
.L203:
	.loc 1 107 0
		SBR		malloc
	|	SMVAGA36.M2		R11:R10, OR13
	|	SMOVIL		1024, R10
		SMOVIL		.L204, R62
	.loc 1 106 0
		SMVAAGL.M2		OR13, R33:R32
	|	SMOVIH		.L204, R62
		SMOVIH4.L		.L204, R63
		SMVAAGH.M2		OR13, R33:R32
	|	SMOVIL		0, R11
.LVL202:
	.loc 1 107 0
	;; call to malloc occurs, with return value
		SNOP		2
.LVL203:
.L204:
	.loc 1 108 0
		SBR		malloc
	|	SMVAGA36.M2		R11:R10, OR14
	|	SMOVIL		1024, R10
		SMOVIL		.L205, R62
	.loc 1 107 0
		SMVAAGL.M2		OR14, R31:R30
	|	SMOVIH		.L205, R62
		SMOVIH4.L		.L205, R63
		SMVAAGH.M2		OR14, R31:R30
	|	SMOVIL		0, R11
.LVL204:
	.loc 1 108 0
	;; call to malloc occurs, with return value
		SNOP		2
.LVL205:
.L205:
	.loc 1 109 0
		SBR		malloc
	|	SMVAGA36.M2		R11:R10, AR14
	|	SMOVIL		1024, R10
.LVL206:
		SMOVIL		.L206, R62
		SMOVIH		.L206, R62
		SMOVIH4.L		.L206, R63
		SMOVIL		0, R11
	;; call to malloc occurs, with return value
		SNOP		2
.LVL207:
.L206:
	.loc 1 110 0
		SBR		malloc
	|	SMVAGA36.M2		R11:R10, AR8
	|	SMOVIL		1024, R10
.LVL208:
		SMOVIL		.L207, R62
		SMOVIH		.L207, R62
		SMOVIH4.L		.L207, R63
		SMOVIL		0, R11
	;; call to malloc occurs, with return value
		SNOP		2
.LVL209:
.L207:
	.loc 1 112 0
		SMOVIL.L		v_A, R44
	|	SMVAGA36.M2		R11:R10, OR8
.LVL210:
		SMOVIH.L		v_A, R44
		SMOVIH4.L		v_A, R45
		SMVAGA36.M2		R45:R44, AR10
	|	SMOVIL		1073741824, R42
	.loc 1 113 0
		SMOVIL.L		v_Q, R46
	.loc 1 112 0
		SMOVIH		1073741824, R42
		SMOVIL		0, R43
	.loc 1 113 0
		SMOVIH.L		v_Q, R46
	|	SSTDW		R43:R42, *AR10
		SMOVIH4.L		v_Q, R47
		SMVAGA36.M2		R47:R46, AR10
	|	SMOVIL		1073879296, R42
	.loc 1 114 0
		SMOVIL.L		v_R, R44
	.loc 1 113 0
		SMOVIH		1073879296, R42
		SMOVIL		0, R43
	.loc 1 114 0
		SMOVIH.L		v_R, R44
	|	SSTDW		R43:R42, *AR10
		SMOVIH4.L		v_R, R45
		SMVAGA36.M2		R45:R44, AR10
	|	SMOVIL		1074016768, R42
	.loc 1 116 0
		SMOVIL.L		v_u, R46
	.loc 1 114 0
		SMOVIH		1074016768, R42
		SMOVIL		0, R43
	.loc 1 116 0
		SMOVIH.L		v_u, R46
	|	SSTDW		R43:R42, *AR10
		SMOVIH4.L		v_u, R47
		SMVAGA36.M2		R47:R46, AR10
	|	SMOVIL		1074024192, R42
	.loc 1 117 0
		SMOVIL.L		v_b, R44
	.loc 1 116 0
		SMOVIH		1074024192, R42
		SMOVIL		0, R43
	.loc 1 117 0
		SMOVIH.L		v_b, R44
	|	SSTDW		R43:R42, *AR10
		SMOVIH4.L		v_b, R45
		SMVAGA36.M2		R45:R44, AR10
	|	SMOVIL		1074031616, R42
	.loc 1 118 0
		SMOVIL.L		v_y, R46
		SMOVIH.L		v_y, R46
		SMOVIH4.L		v_y, R47
	.loc 1 117 0
		SMOVIH		1074031616, R42
		SMOVIL		0, R43
		SSTDW		R43:R42, *AR10
	|	SMOVIL.L		v_x, R44
	|	SMVAGA36.M2		R47:R46, AR10
	.loc 1 118 0
		SMOVIL		1074039040, R42
	.loc 1 119 0
		SMOVIH.L		v_x, R44
		SMOVIH4.L		v_x, R45
	.loc 1 118 0
		SMOVIH		1074039040, R42
		SMOVIL		0, R43
		SSTDW		R43:R42, *AR10
	|	SMVAGA36.M2		R45:R44, AR10
	|	SMOVIL		1074046464, R42
	.loc 1 119 0
		SMOVIH		1074046464, R42
	.loc 1 121 0
		SBR		puts
	|	SMOVIL		0, R43
	.loc 1 119 0
		SSTDW		R43:R42, *AR10
	|	SMOVIL		.L208, R62
		SMOVIH		.L208, R62
		SMOVIH4.L		.L208, R63
	.loc 1 121 0
		SMOVIH4.L		.LC18, R11
		SMOVIL.L		.LC18, R10
.LVL211:
	;; call to puts occurs, with return value
		SMOVIH.L		.LC18, R10
.LVL212:
.L208:
	.loc 1 123 0
		SMVAGA36.M1		R39:R38, OR11
	|	SMVAGA36.M2		R37:R36, OR12
		SMVAGA36.M1		R35:R34, OR13
	|	SMVAGA36.M2		R33:R32, OR14
		SMVAAGL.M1		OR11, R11:R10
	|	SMVAAGL.M2		OR12, R13:R12
		SMVAAGL.M1		OR13, R15:R14
	|	SMVAAGL.M2		OR14, R17:R16
		SMVAAGH.M1		OR11, R11:R10
	|	SMVAGA36.M2		R31:R30, OR11
		SBR		test_qr_solver_complx
	|	SMVAAGH.M1		OR12, R13:R12
	|	SMVAAGH.M2		OR13, R15:R14
		SMVAAGL.M1		OR11, R19:R18
	|	SMVAAGH.M2		OR14, R17:R16
	|	SMOVIL		.L209, R62
		SMVAAGL.M1		AR14, R21:R20
	|	SMVAAGL.M2		AR8, R23:R22
	|	SMOVIH		.L209, R62
		SMVAAGH.M1		OR11, R19:R18
	|	SMVAAGL.M2		OR8, R25:R24
	|	SMOVIH4.L		.L209, R63
		SMVAAGH.M1		AR14, R21:R20
	|	SMVAAGH.M2		AR8, R23:R22
		SMVAAGH.M1		OR8, R25:R24
	;; call to test_qr_solver_complx occurs
		SNOP		1
.LVL213:
.L209:
	.loc 1 125 0
		SBR		puts
	|	SMOVIH4.L		.LC19, R11
		SMOVIL		.L210, R62
		SMOVIH		.L210, R62
		SMOVIH4.L		.L210, R63
		SMOVIL.L		.LC19, R10
		SMOVIH.L		.LC19, R10
	;; call to puts occurs, with return value
		SNOP		1
.LVL214:
	.loc 1 126 0
.L210:
		SLDDW		*+AR15[7], R7:R6
	|	SMOVIL		0, R10
		SLDDW		*+AR15[9], R63:R62
		SLDDW		*+AR15[2], R31:R30
.LVL215:
		SLDDW		*+AR15[3], R33:R32
.LVL216:
		SLDDW		*+AR15[4], R35:R34
		SNOP		1
.LVL217:
		SMVAGA36.M2		R7:R6, AR8
.LVL218:
		SMVCGC.L		R63, BRReg
		SNOP		2
		SLDDW		*+AR15[8], R7:R6
		SLDDW		*+AR15[5], R37:R36
.LVL219:
		SLDDW		*+AR15[6], R39:R38
		SNOP		3
.LVL220:
		SMVAGA36.M2		R7:R6, OR8
		SNOP		1
.LVL221:
		SLDDW		*+AR15[10], R7:R6
		SNOP		2
		SBR		R62
		SNOP		2
		SMVAGA36.M2		R7:R6, AR14
	|	SMOVIL		88, R6
.LVL222:
		SMOVIL		0, R7
		SADDA.M2		R7:R6,AR15,AR15
		SNOP		1
	;; return occurs
	.cfi_endproc
.LFE7:
	.size	main, .-main
	.common	v_x,8,8
	.common	v_y,8,8
	.common	v_b,8,8
	.common	v_u,8,8
	.common	v_R,8,8
	.common	v_Q,8,8
	.common	v_A,8,8
.text;
.Letext0: