	.file	"main.c"
.text;
.Ltext0:
	.cfi_sections	.debug_frame
	.section	.text.random_x_sp,"ax",@progbits
	.align	2
	.global	random_x_sp
	.type	random_x_sp, @function
random_x_sp:
.LFB4:
	.file 1 "../main.c"
	.loc 1 80 0
	.cfi_startproc
.LVL0:
		SMOVIL		-48, R6
		SMOVIL		-1, R7
	.loc 1 83 0
		SMOVIL		0, R42
	|	SADDA.M2		R7:R6,AR15,AR15
.LCFI0:
	.cfi_def_cfa_offset 48
		SLT		R42, R12, R0
	|	SADD.M1		-1,R12,R12
.LVL1:
	.cfi_offset 48, -32
	.cfi_offset 49, -28
	.loc 1 80 0
		SSHFLL		1, R12, R1
	|	SSTDW		R33:R32, *+AR15[2]
	.cfi_offset 50, -24
	.cfi_offset 51, -20
		SSHFLL		2, R12, R43
	|	SADD.M2		4,R10,R32
	|	SSTDW		R35:R34, *+AR15[3]
	.loc 1 83 0
	[!R0]	SBR		.L1
	|	SLTU		R1, R12, R2
	|	SADD.M2		R43,R32,R33
	|	SMOV.M1		R14, R34
	.loc 1 80 0
		SLTU		R32, R10, R35
		SSTDW		R31:R30, *+AR15[1]
		SSTDW		R37:R36, *+AR15[4]
	.cfi_offset 46, -40
	.cfi_offset 47, -36
	.cfi_offset 52, -16
	.cfi_offset 53, -12
		SLTU		R43, R1, R3
	|	SADD.M2		R11,R35,R8
	|	SMOV.M1		R10, R30
		SSHFLL		1, R2, R9
	|	SMOV.M2		R11, R31
		SSTDW		R63:R62, *+AR15[5]
	;; condjump to .L1 occurs
	.cfi_offset 78, -8
	.cfi_offset 79, -4
	.loc 1 80 0
		SADD.M2		R9,R3,R10
	|	SMOVIL		1317011456, R37
.LVL2:
		SLTU		R33, R32, R11
	|	SADD.M2		R10,R8,R13
	.loc 1 84 0
		SMOVIL		813694976, R36
	|	SADD.M2		R13,R11,R35
		SMOVIH		1317011456, R37
		SMOVIH		813694976, R36
.LVL3:
.L3:
	.loc 1 84 0 is_stmt 0 discriminator 2
		SBR		rand
		SMOVIL		.L9, R62
		SMOVIH		.L9, R62
		SMOVIH4.L		.L9, R63
	;; call to rand occurs, with return value
		SNOP		3
.LVL4:
.L9:
		SFINTS32.M2		R10,R14
	|	SLTU		R32, R30, R15
	|	SMVAGA36.M1		R31:R30, AR10
	.loc 1 83 0 is_stmt 1 discriminator 2
		SEQ		R32, R33, R0
	|	SADD.M2		R31,R15,R31
	[R0]	SEQ		R31, R35, R0
	|	SMOV.M1		R32, R30
	.loc 1 84 0 discriminator 2
		SFSUBS32.M2		R37, R14, R17
	|	SADD.M1		4,R32,R32
		SNOP		2
		SFMULS32.M2		R17, R36, R18
		SNOP		1
	.loc 1 83 0 discriminator 2
	[!R0]	SBR		.L3
		SNOP		1
	.loc 1 84 0 discriminator 2
		SFMULS32.M2		R18, R34, R19
		SNOP		3
		SSTW		R19, *AR10
	;; condjump to .L3 occurs
.L1:
	.loc 1 86 0
		SLDDW		*+AR15[5], R63:R62
	|	SMOVIL		48, R6
		SLDDW		*+AR15[1], R31:R30
	|	SMOVIL		0, R7
		SLDDW		*+AR15[2], R33:R32
		SLDDW		*+AR15[3], R35:R34
.LVL5:
		SLDDW		*+AR15[4], R37:R36
	|	SADDA.M2		R7:R6,AR15,AR15
		SNOP		1
		SMVCGC.L		R63, BRReg
		SNOP		1
		SBR		R62
		SNOP		6
	;; return occurs
	.cfi_endproc
.LFE4:
	.size	random_x_sp, .-random_x_sp
	.section	.text.random_h_sp,"ax",@progbits
	.align	2
	.global	random_h_sp
	.type	random_h_sp, @function
random_h_sp:
.LFB5:
	.loc 1 88 0
	.cfi_startproc
.LVL6:
	.loc 1 90 0
		SFINTD.M2		R12,R49:R48
	|	SMOVIL		1073741824, R51
	|	SMVAGA36.M1		R11:R10, AR0
	.loc 1 91 0
		SMOVIL		0, R50
	|	SADD.M2		-1,R12,R1
	.loc 1 90 0
		SMOVIH		1073741824, R51
	.loc 1 88 0
		SMOVIL		-56, R6
	.loc 1 90 0
		SFRCPD.M2		R49:R48, R43:R42
	|	SMOVIL		-1, R7
	.loc 1 88 0
		SADDA.M1		R7:R6,AR15,AR15
.LCFI1:
	.cfi_def_cfa_offset 56
	.loc 1 90 0
		SFMULD.M1		R49:R48, R43:R42, R47:R46
	|	SLT		R50, R12, R0
	.cfi_offset 47, -40
	.loc 1 88 0
		SSHFLL		2, R12, R44
	|	SSTW		R31, *+AR15[4]
		SSTW		R30, *+AR15[3]
	.cfi_offset 46, -44
		SMVAAGL.M2		AR0, R31:R30
		SNOP		1
	.cfi_offset 52, -20
		SMVAAGH.M1		AR0, R31:R30
	|	SSTW		R36, *+AR15[9]
	.cfi_offset 50, -28
	.loc 1 90 0
		SFSUBD.M1	R47:R46, R51:R50, R3:R2
	|	SSTW		R34, *+AR15[7]
	.loc 1 88 0
		SADD.M2		4,R30,R34
		SNOP		1
		SSTW		R37, *+AR15[10]
		SSTW		R33, *+AR15[6]
	.cfi_offset 53, -16
	.cfi_offset 49, -32
	.loc 1 90 0
		SFMULD.M2		R43:R42, R3:R2, R9:R8
	|	SLTU		R34, R30, R37
	.loc 1 91 0
	[!R0]	SBR		.L10
	|	SADD.M1		R31,R37,R26
	.loc 1 88 0
		SSTW		R32, *+AR15[5]
		SSTW		R35, *+AR15[8]
		SSHFAR		31, R1, R3
		SSHFLL		1, R12, R43
		SSTW		R38, *+AR15[11]
	.cfi_offset 48, -36
	.cfi_offset 51, -24
	.cfi_offset 54, -12
		SSTDW		R63:R62, *+AR15[6]
	;; condjump to .L10 occurs
	.cfi_offset 78, -8
	.cfi_offset 79, -4
	.loc 1 90 0
		SFMULD.M2		R49:R48, R9:R8, R11:R10
	|	SLTU		R43, R12, R13
.LVL7:
	.loc 1 92 0
		SMOVIL		805306368, R38
		SMOVIH		805306368, R38
		SNOP		3
	.loc 1 90 0
		SFSUBD.M2	R11:R10, R51:R50, R15:R14
		SNOP		4
		SFMULD.M2		R9:R8, R15:R14, R17:R16
		SNOP		1
	.loc 1 88 0
		SLTU		R12, R1, R9
		SADD.M1		R3,R9,R11
		SSHFLL		1, R11, R15
		SADD.M1		R15,R13,R12
.LVL8:
	.loc 1 90 0
		SFMULD.M2		R49:R48, R17:R16, R19:R18
	|	SSHFLL		1, R12, R45
	.loc 1 88 0
		SNOP		5
	.loc 1 90 0
		SFSUBD.M2	R19:R18, R51:R50, R21:R20
		SNOP		1
	.loc 1 88 0
		SSHFLL		1, R1, R19
		SNOP		2
	.loc 1 90 0
		SFMULD.M2		R17:R16, R21:R20, R23:R22
		SNOP		1
	.loc 1 88 0
		SLTU		R44, R43, R17
		SADD.M1		R45,R17,R45
	|	SSHFLL		2, R1, R21
	;no-op trunc di R45:R44 to pdi R45:R44
		SADDA.M1		R45:R44,AR0,OR0
		SNOP		1
	.loc 1 90 0
		SFADDD.M1		R23:R22, R23:R22, R25:R24
	|	SADD.M2		R21,R34,R35
		SMVAAGL.M2		OR0, R33:R32
	|	SLTU		R35, R34, R44
	.loc 1 88 0
		SLTU		R19, R1, R23
		SSHFLL		1, R23, R27
	|	SMVAAGH.M2		OR0, R33:R32
		SNOP		1
	.loc 1 90 0
		SFDPSP32.M2		R25:R24, R36
		SNOP		1
.LVL9:
	.loc 1 88 0
		SLTU		R21, R19, R25
		SADD.M2		R27,R25,R28
		SADD.M2		R28,R26,R29
		SADD.M2		R29,R44,R37
.LVL10:
.L12:
	.loc 1 92 0 discriminator 2
		SBR		rand
		SMOVIL		.L18, R62
		SMOVIH		.L18, R62
		SMOVIH4.L		.L18, R63
	;; call to rand occurs, with return value
		SNOP		3
.LVL11:
.L18:
		SFINTS32.M2		R10,R49
	|	SLTU		R34, R30, R51
	|	SMVAGA36.M1		R31:R30, AR12
	.loc 1 91 0 discriminator 2
		SEQ		R34, R35, R0
	|	SADD.M2		R31,R51,R31
	[R0]	SEQ		R31, R37, R0
	|	SADD.M1		-4,R32,R50
	.loc 1 92 0 discriminator 2
		SFMULS32.M2		R49, R38, R54
	|	SLTU		R50, R32, R52
	|	SADD.M1		-1,R33,R53
		SMOV.M2		R50, R32
	|	SADD.M1		R53,R52,R33
	.loc 1 88 0 discriminator 2
		SMVAGA36.M1		R33:R32, AR10
	|	SMOV.M2		R34, R30
		SNOP		1
	.loc 1 92 0 discriminator 2
		SFMULS32.M2		R54, R36, R55
	|	SADD.M1		4,R34,R34
	.loc 1 91 0 discriminator 2
	[!R0]	SBR		.L12
		SNOP		2
	.loc 1 92 0 discriminator 2
		SSTW		R55, *AR12
	|	SFSUBS32.M2		R55, R36, R56
	.loc 1 93 0 discriminator 2
		SNOP		2
		SSTW		R56, *AR10
	;; condjump to .L12 occurs
.LVL12:
.L10:
	.loc 1 95 0
		SLDDW		*+AR15[6], R63:R62
	|	SMOVIL		56, R6
		SLDW		*+AR15[3], R30
	|	SMOVIL		0, R7
		SLDW		*+AR15[4], R31
		SLDW		*+AR15[5], R32
		SLDW		*+AR15[6], R33
		SNOP		1
		SMVCGC.L		R63, BRReg
		SNOP		3
		SLDW		*+AR15[7], R34
		SLDW		*+AR15[8], R35
		SLDW		*+AR15[9], R36
		SBR		R62
	|	SLDW		*+AR15[10], R37
		SLDW		*+AR15[11], R38
	|	SADDA.M2		R7:R6,AR15,AR15
		SNOP		5
	;; return occurs
	.cfi_endproc
.LFE5:
	.size	random_h_sp, .-random_h_sp
	.section	.text.getTime_vc,"ax",@progbits
	.align	2
	.global	getTime_vc
	.type	getTime_vc, @function
getTime_vc:
.LFB6:
	.loc 1 97 0
	.cfi_startproc
.LVL13:
		SMOVIL		-56, R6
		SMOVIL		-1, R7
		SADDA.M2		R7:R6,AR15,AR15
.LCFI2:
	.cfi_def_cfa_offset 56
		SMVAAGL.M1		AR14, R7:R6
		SSTDW		R63:R62, *+AR15[5]
	.cfi_offset 78, -16
	.cfi_offset 79, -12
	.cfi_offset 48, -36
		SMVAAGH.M1		AR14, R7:R6
	|	SMVAGA36.M2		R13:R12, AR14
	|	SSTW		R32, *+AR15[5]
		SNOP		1
		SMOV.M2		R16, R32
		SSTDW		R7:R6, *+AR15[6]
	.cfi_offset 14, -8
	.cfi_offset 47, -40
		SMVAAGL.M2		OR8, R7:R6
	|	SSTW		R31, *+AR15[4]
		SMOV.M1		R18, R31
		SMVAAGH.M1		OR8, R7:R6
	|	SMVAGA36.M2		R11:R10, OR8
	|	SMOVIL		0, R10
.LVL14:
	.cfi_offset 46, -44
	.loc 1 99 0
		SBR		GetTimerCount
	|	SSTW		R30, *+AR15[3]
	.loc 1 97 0
		SSTDW		R7:R6, *+AR15[4]
	|	SMOVIL		.L20, R62
	.cfi_offset 88, -24
		SMVAAGL.M2		AR8, R7:R6
	|	SMOVIH		.L20, R62
		SMOVIH4.L		.L20, R63
		SMVAAGH.M1		AR8, R7:R6
	|	SMVAGA36.M2		R15:R14, AR8
		SNOP		1
	.cfi_offset 8, -32
	.loc 1 99 0
	;; call to GetTimerCount occurs, with return value
		SSTDW		R7:R6, *+AR15[3]
.LVL15:
.L20:
	.loc 1 100 0
		SBR		asm_dspf_sp_fir_gen
	|	SMOV.M2		R32, R16
	|	SMOV.M1		R31, R18
	.loc 1 99 0
		SMOV.M1		R10, R30
	|	SMVAAGL.M2		AR14, R13:R12
	|	SMOVIL		.L21, R62
.LVL16:
	.loc 1 100 0
		SMVAAGL.M1		OR8, R11:R10
	|	SMVAAGL.M2		AR8, R15:R14
	|	SMOVIH		.L21, R62
.LVL17:
		SMVAAGH.M1		AR14, R13:R12
	|	SMOVIH4.L		.L21, R63
		SMVAAGH.M1		OR8, R11:R10
	|	SMVAAGH.M2		AR8, R15:R14
	;; call to asm_dspf_sp_fir_gen occurs, with return value
		SNOP		2
.LVL18:
.L21:
	.loc 1 101 0
		SBR		GetTimerCount
	|	SMOVIL		0, R10
		SMOVIL		.L22, R62
		SMOVIH		.L22, R62
		SMOVIH4.L		.L22, R63
	;; call to GetTimerCount occurs, with return value
		SNOP		3
.LVL19:
	.loc 1 103 0
.L22:
		SLDDW		*+AR15[3], R7:R6
	|	SSUB.M2		R30, R10, R10
.LVL20:
		SLDDW		*+AR15[5], R63:R62
		SLDW		*+AR15[3], R30
.LVL21:
		SLDW		*+AR15[4], R31
.LVL22:
		SLDW		*+AR15[5], R32
		SNOP		1
.LVL23:
		SMVAGA36.M2		R7:R6, AR8
.LVL24:
		SMVCGC.L		R63, BRReg
		SNOP		2
		SLDDW		*+AR15[4], R7:R6
		SNOP		5
		SMVAGA36.M2		R7:R6, OR8
	|	SLDDW		*+AR15[6], R7:R6
.LVL25:
		SNOP		2
		SBR		R62
		SNOP		2
		SMVAGA36.M2		R7:R6, AR14
	|	SMOVIL		56, R6
.LVL26:
		SMOVIL		0, R7
		SADDA.M2		R7:R6,AR15,AR15
		SNOP		1
	;; return occurs
	.cfi_endproc
.LFE6:
	.size	getTime_vc, .-getTime_vc
	.section	.text.getTime_cn,"ax",@progbits
	.align	2
	.global	getTime_cn
	.type	getTime_cn, @function
getTime_cn:
.LFB7:
	.loc 1 105 0
	.cfi_startproc
.LVL27:
		SMOVIL		-56, R6
		SMOVIL		-1, R7
		SADDA.M2		R7:R6,AR15,AR15
.LCFI3:
	.cfi_def_cfa_offset 56
		SMVAAGL.M1		AR14, R7:R6
		SSTDW		R63:R62, *+AR15[5]
	.cfi_offset 78, -16
	.cfi_offset 79, -12
	.cfi_offset 48, -36
		SMVAAGH.M1		AR14, R7:R6
	|	SMVAGA36.M2		R13:R12, AR14
	|	SSTW		R32, *+AR15[5]
		SNOP		1
		SMOV.M2		R16, R32
		SSTDW		R7:R6, *+AR15[6]
	.cfi_offset 14, -8
	.cfi_offset 47, -40
		SMVAAGL.M2		OR8, R7:R6
	|	SSTW		R31, *+AR15[4]
		SMOV.M1		R18, R31
		SMVAAGH.M1		OR8, R7:R6
	|	SMVAGA36.M2		R11:R10, OR8
	|	SMOVIL		0, R10
.LVL28:
	.cfi_offset 46, -44
	.loc 1 107 0
		SBR		GetTimerCount
	|	SSTW		R30, *+AR15[3]
	.loc 1 105 0
		SSTDW		R7:R6, *+AR15[4]
	|	SMOVIL		.L24, R62
	.cfi_offset 88, -24
		SMVAAGL.M2		AR8, R7:R6
	|	SMOVIH		.L24, R62
		SMOVIH4.L		.L24, R63
		SMVAAGH.M1		AR8, R7:R6
	|	SMVAGA36.M2		R15:R14, AR8
		SNOP		1
	.cfi_offset 8, -32
	.loc 1 107 0
	;; call to GetTimerCount occurs, with return value
		SSTDW		R7:R6, *+AR15[3]
.LVL29:
.L24:
	.loc 1 108 0
		SBR		DSPF_sp_fir_gen_cn
	|	SMOV.M2		R32, R16
	|	SMOV.M1		R31, R18
	.loc 1 107 0
		SMOV.M1		R10, R30
	|	SMVAAGL.M2		AR14, R13:R12
	|	SMOVIL		.L25, R62
.LVL30:
	.loc 1 108 0
		SMVAAGL.M1		OR8, R11:R10
	|	SMVAAGL.M2		AR8, R15:R14
	|	SMOVIH		.L25, R62
.LVL31:
		SMVAAGH.M1		AR14, R13:R12
	|	SMOVIH4.L		.L25, R63
		SMVAAGH.M1		OR8, R11:R10
	|	SMVAAGH.M2		AR8, R15:R14
	;; call to DSPF_sp_fir_gen_cn occurs
		SNOP		2
.LVL32:
.L25:
	.loc 1 109 0
		SBR		GetTimerCount
	|	SMOVIL		0, R10
		SMOVIL		.L26, R62
		SMOVIH		.L26, R62
		SMOVIH4.L		.L26, R63
	;; call to GetTimerCount occurs, with return value
		SNOP		3
.LVL33:
	.loc 1 111 0
.L26:
		SLDDW		*+AR15[3], R7:R6
	|	SSUB.M2		R30, R10, R10
.LVL34:
		SLDDW		*+AR15[5], R63:R62
		SLDW		*+AR15[3], R30
.LVL35:
		SLDW		*+AR15[4], R31
.LVL36:
		SLDW		*+AR15[5], R32
		SNOP		1
.LVL37:
		SMVAGA36.M2		R7:R6, AR8
.LVL38:
		SMVCGC.L		R63, BRReg
		SNOP		2
		SLDDW		*+AR15[4], R7:R6
		SNOP		5
		SMVAGA36.M2		R7:R6, OR8
	|	SLDDW		*+AR15[6], R7:R6
.LVL39:
		SNOP		2
		SBR		R62
		SNOP		2
		SMVAGA36.M2		R7:R6, AR14
	|	SMOVIL		56, R6
.LVL40:
		SMOVIL		0, R7
		SADDA.M2		R7:R6,AR15,AR15
		SNOP		1
	;; return occurs
	.cfi_endproc
.LFE7:
	.size	getTime_cn, .-getTime_cn
	.section	.const.str1.1,"aMS",@progbits,1
.LC0:
	.string	"Result Failure  max_pct_diff = %f"
.LC1:
	.string	"Result Successful "
.LC2:
	.string	"\tNX = %-3d\t  NH = %-2d\t cn_cycle:%-4d\t  vc_cycle:%-4d\t \n"
	.section	.text.startup.main,"ax",@progbits
	.align	2
	.global	main
	.type	main, @function
main:
.LFB3:
	.loc 1 15 0
	.cfi_startproc
.LVL41:
		SMOVIL		-1800, R6
		SMOVIL		-1, R7
		SADDA.M2		R7:R6,AR15,AR15
.LCFI4:
	.cfi_def_cfa_offset 1800
		SMVAAGL.M1		AR14, R7:R6
	|	SMOVIL		1075052548, R46
		SSTDW		R63:R62, *+AR15[223]
	.cfi_offset 78, -16
	.cfi_offset 79, -12
	.cfi_offset 56, -48
	.cfi_offset 57, -44
		SMVAAGH.M2		AR14, R7:R6
	|	SSTDW		R41:R40, *+AR15[219]
	.loc 1 20 0
		SMOVIL		1075052544, R42
	.loc 1 19 0
		SMOVIH		1075052548, R46
	|	SADD.LS		AR15,44,AR10
		SMOVIL		0, R47
	.loc 1 15 0
		SSTDW		R7:R6, *+AR15[224]
	.cfi_offset 14, -8
	.cfi_offset 54, -56
	.cfi_offset 55, -52
		SMVAAGL.M2		OR9, R7:R6
	|	SSTDW		R39:R38, *+AR15[218]
	.loc 1 20 0
		SMOVIH		1075052544, R42
	|	SMVAGA36.M1		R47:R46, AR12
	.loc 1 15 0
		SMVAAGH.M1		OR9, R7:R6
	|	SMOVIL		0, R43
	.loc 1 19 0
		SMOVIL		1, R44
	|	SMVAGA36.M1		R43:R42, AR11
	.loc 1 15 0
		SSTDW		R7:R6, *+AR15[222]
		SMVAAGL.M2		OR8, R7:R6
		SNOP		1
		SMVAAGH.M2		OR8, R7:R6
		SNOP		1
		SSTDW		R7:R6, *+AR15[221]
		SMVAAGL.M2		AR8, R7:R6
		SNOP		1
		SMVAAGH.M2		AR8, R7:R6
		SNOP		1
		SSTDW		R7:R6, *+AR15[220]
		SMOVIL		435, R6
		SMOVIL		0, R7
	.cfi_offset 89, -24
	.cfi_offset 88, -32
	.cfi_offset 8, -40
		SMVAGA36.M2		R7:R6, OR15
	|	SMOVIL		434, R6
		SMOVIL		0, R7
		SSTW		R36, *+AR15[OR15]
	.cfi_offset 52, -60
		SMVAGA36.M2		R7:R6, OR15
	|	SMOVIL		433, R6
		SMOVIL		0, R7
		SSTW		R35, *+AR15[OR15]
	.cfi_offset 51, -64
		SMVAGA36.M2		R7:R6, OR15
	|	SMOVIL		432, R6
		SMOVIL		0, R7
		SSTW		R34, *+AR15[OR15]
	.cfi_offset 50, -68
		SMVAGA36.M2		R7:R6, OR15
	|	SMOVIL		431, R6
		SMOVIL		0, R7
		SSTW		R33, *+AR15[OR15]
	.cfi_offset 49, -72
		SMVAGA36.M2		R7:R6, OR15
	|	SMOVIL		430, R6
		SMOVIL		0, R7
		SSTW		R32, *+AR15[OR15]
	.cfi_offset 48, -76
		SMVAGA36.M2		R7:R6, OR15
	|	SMOVIL		429, R6
		SMOVIL		0, R7
		SSTW		R31, *+AR15[OR15]
		SMVAGA36.M2		R7:R6, OR15
		SNOP		1
		SSTW		R30, *+AR15[OR15]
	.cfi_offset 47, -80
	.cfi_offset 46, -84
	.loc 1 19 0
		SSTW		R44, *AR12
	|	SMVAGA36.M2		R43:R42, AR12
	.loc 1 23 0
		SNOP		2
	.loc 1 20 0
		SSTW		R44, *AR11
	.loc 1 21 0
		SSTW		R44, *AR10
		SNOP		2
.LVL42:
	.loc 1 22 0
		SLDW		*AR10, R0
		SNOP		5
	[!R0]	SBR		.L30
		SNOP		6
	;; condjump to .L30 occurs
.L43:
	.loc 1 23 0
		SLDW		*AR12, R42
		SNOP		5
.LVL43:
		SSTW		R42, *AR10
		SNOP		2
.LVL44:
	.loc 1 22 0
		SLDW		*AR10, R1
		SNOP		5
	[R1]	SBR		.L43
		SNOP		6
	;; condjump to .L43 occurs
.L30:
	.loc 1 30 0
		SMOVIL		1136, R44
	|	SADD.LS		AR15,48,AR14
		SMOVIL		0, R45
		SADDA.M1		R45:R44,AR15,OR15
	|	SMOVIL		0, R42
	|	SMVAAGL.M2		AR14, R35:R34
		SMOVIL		0, R43
		SMVAAGL.M1		OR15, R45:R44
	|	SMOVIL		0, R2
	|	SMVAAGH.M2		AR14, R35:R34
	.loc 1 31 0
		SMOVIL		1092616192, R14
	.loc 1 30 0
		SMVAAGH.M2		OR15, R45:R44
	|	SMOVIH		1092616192, R14
	.loc 1 31 0
		SMOVIL		128, R12
	.loc 1 30 0
		SMVAGA36.M1		R45:R44, AR10
	|	SMVAGA36.M2		R45:R44, OR11
	|	SMOVIL.L		.LC2, R44
		SMOVIH.L		.LC2, R44
		SSTDW		R43:R42, *AR10++[1]
	|	SMOVIH4.L		.LC2, R45
		SMVAGA36.M2		R45:R44, OR9
	|	SMOVIL		0, R33
	.loc 1 31 0
		SADD.LS		OR11,60,OR8
	|	SMOVIL		1073741824, R32
	.loc 1 51 0
		SMOVIL		32, R36
	.loc 1 30 0
		SSTDW		R43:R42, *AR10++[1]
	|	SMVAAGL.M2		OR8, R11:R10
	|	SMOVIH		0, R33
	.loc 1 65 0
		SMOVIH		1073741824, R32
	.loc 1 31 0
		SMVAAGH.M2		OR8, R11:R10
	.loc 1 30 0
		SSTDW		R43:R42, *AR10++[1]
		SNOP		2
		SSTDW		R43:R42, *AR10++[1]
		SNOP		2
		SSTDW		R43:R42, *AR10++[1]
		SNOP		2
	.loc 1 31 0
		SBR		random_x_sp
	|	SSTDW		R43:R42, *AR10++[1]
	.loc 1 30 0
		SMOVIL		.L52, R62
		SMOVIH		.L52, R62
		SSTDW		R43:R42, *AR10++[1]
	|	SMOVIH4.L		.L52, R63
		SNOP		2
	.loc 1 31 0
	;; call to random_x_sp occurs
		SSTW		R2, *AR10
.LVL45:
.L52:
	.loc 1 32 0
		SBR		random_h_sp
	|	SMOVIL		16, R12
	|	SMVAAGL.M2		AR14, R11:R10
		SMOVIL		.L53, R62
		SMVAAGH.M2		AR14, R11:R10
	|	SMOVIH		.L53, R62
		SMOVIH4.L		.L53, R63
	;; call to random_h_sp occurs
		SNOP		3
.LVL46:
.L53:
	.loc 1 37 0
		SBR		vmalloc
	|	SMOVIL		576, R10
		SMOVIL		.L54, R62
		SMOVIH		.L54, R62
		SMOVIH4.L		.L54, R63
		SMOVIL		0, R11
	;; call to vmalloc occurs, with return value
		SNOP		2
.LVL47:
.L54:
	.loc 1 38 0
		SBR		vmalloc
	|	SMVAGA36.M2		R11:R10, AR8
	|	SMOVIL		512, R10
.LVL48:
		SMOVIL		.L55, R62
		SMOVIH		.L55, R62
		SMOVIH4.L		.L55, R63
		SMOVIL		0, R11
	;; call to vmalloc occurs, with return value
		SNOP		2
.LVL49:
.L55:
	.loc 1 40 0
		SMOVIL		1136, R46
	|	SMVAGA36.M1		R11:R10, OR8
	|	SMVAAGL.M2		AR8, R13:R12
.LVL50:
		SMOVIL		0, R47
	|	SBR		M7002_datatrans
		SADDA.M1		R47:R46,AR15,OR12
	|	SMVAAGH.M2		AR8, R13:R12
	|	SMOVIL		.L56, R62
		SMOVIH		.L56, R62
		SMVAAGL.M2		OR12, R11:R10
	|	SMOVIH4.L		.L56, R63
.LVL51:
		SMOVIL		572, R14
		SMVAAGH.M2		OR12, R11:R10
	;; call to M7002_datatrans occurs
		SNOP		1
.LVL52:
.L56:
	.loc 1 41 0
		SBR		M7002_datatrans
	|	SMOVIL		0, R13
	|	SMVAAGL.M2		AR14, R11:R10
		SMOVIL		.L57, R62
		SMVAAGH.M2		AR14, R11:R10
	|	SMOVIH		.L57, R62
		SMOVIH4.L		.L57, R63
		SMOVIL		64, R14
		SMOVIL		1074790400, R12
	;; call to M7002_datatrans occurs
		SMOVIH		1074790400, R12
.LVL53:
.L57:
	.loc 1 43 0
		SBR		SetTimerPeriod
	|	SMOVIL		-1, R12
		SMOVIL		.L58, R62
		SMOVIH		.L58, R62
		SMOVIH4.L		.L58, R63
		SMOVIL		0, R10
	;; call to SetTimerPeriod occurs, with return value
		SNOP		2
.LVL54:
.L58:
	.loc 1 44 0
		SBR		TimerStart
	|	SMOVIL		0, R10
		SMOVIL		.L59, R62
		SMOVIH		.L59, R62
		SMOVIH4.L		.L59, R63
	;; call to TimerStart occurs, with return value
		SNOP		3
.LVL55:
.L59:
	.loc 1 47 0
		SBR		GetTimerCount
	|	SMOVIL		0, R10
		SMOVIL		.L60, R62
		SMOVIH		.L60, R62
		SMOVIH4.L		.L60, R63
	;; call to GetTimerCount occurs, with return value
		SNOP		3
.LVL56:
.L60:
		SBR		GetTimerCount
	|	SMOV.M2		R10, R41
	|	SMOVIL		0, R10
		SMOVIL		.L61, R62
		SMOVIH		.L61, R62
		SMOVIH4.L		.L61, R63
	;; call to GetTimerCount occurs, with return value
		SNOP		3
.LVL57:
.L61:
		SMOVIL		112, R42
	|	SSUB.M2		R10, R41, R41
.LVL58:
		SMOVIL		0, R43
		SADDA.M2		R43:R42,AR15,OR13
	|	SMOVIL		624, R42
		SMOVIL		0, R43
		SADDA.M1		-4,OR13,OR14
	|	SADDA.M2		R43:R42,AR15,OR11
		SNOP		1
		SMVAAGL.M1		OR14, R9:R8
	|	SADDA.M2		-4,OR11,AR14
		SNOP		1
		SMVAAGH.M2		OR14, R9:R8
		SNOP		1
		SSTDW		R9:R8, *+AR15[4]
.LVL59:
.L29:
		SMVAAGL.M2		AR14, R31:R30
	|	SMOVIL		4, R38
	.loc 1 15 0 discriminator 1
		SNOP		1
		SMVAAGH.M2		AR14, R31:R30
		SNOP		1
.LVL60:
.L38:
	.loc 1 54 0
		SBR		memset
	|	SADD.LS		AR15,112,OR12
	|	SMOVIL		0, R12
		SMOVIL		.L62, R62
		SMVAAGL.M2		OR12, R11:R10
	|	SMOVIH		.L62, R62
		SMOVIH4.L		.L62, R63
		SMVAAGH.M2		OR12, R11:R10
	|	SMOVIL		512, R14
		SMOVIL		0, R15
	;; call to memset occurs, with return value
		SNOP		1
.LVL61:
.L62:
	.loc 1 55 0
		SMOVIL		624, R42
		SMOVIL		0, R43
	|	SBR		memset
		SADDA.M2		R43:R42,AR15,OR13
	|	SMOVIL		.L63, R62
		SMOVIH		.L63, R62
		SMVAAGL.M2		OR13, R11:R10
	|	SMOVIH4.L		.L63, R63
		SMOVIL		0, R15
		SMVAAGH.M2		OR13, R11:R10
	|	SMOVIL		512, R14
	;; call to memset occurs, with return value
		SMOVIL		0, R12
.LVL62:
.L63:
	.loc 1 57 0
		SMOVIL		624, R42
	|	SMVAAGL.M2		OR8, R13:R12
		SMOVIL		0, R43
	|	SBR		M7002_datatrans
		SADDA.M1		R43:R42,AR15,OR14
	|	SMVAAGH.M2		OR8, R13:R12
	|	SMOVIL		.L64, R62
		SMOVIH		.L64, R62
		SMVAAGL.M2		OR14, R11:R10
	|	SMOVIH4.L		.L64, R63
		SMOVIL		512, R14
		SMVAAGH.M2		OR14, R11:R10
	;; call to M7002_datatrans occurs
		SNOP		1
.LVL63:
.L64:
	.loc 1 59 0
		SMOVIL		1136, R42
	|	SMVAGA36.M2		R35:R34, OR12
	|	SADD.LS		AR15,112,OR13
	|	SMOV.M1		R38, R16
		SMOVIL		0, R43
	|	SBR		getTime_cn
	|	SMOV.M1		R36, R18
		SADDA.M1		R43:R42,AR15,OR11
	|	SMVAAGL.M2		OR12, R13:R12
	|	SMOVIL		.L65, R62
		SMVAAGL.M1		OR13, R15:R14
	|	SMOVIH		.L65, R62
		SMVAAGL.M1		OR11, R11:R10
	|	SMVAAGH.M2		OR12, R13:R12
	|	SMOVIH4.L		.L65, R63
		SMVAAGH.M1		OR13, R15:R14
		SMVAAGH.M1		OR11, R11:R10
	;; call to getTime_cn occurs, with return value
		SNOP		1
.LVL64:
.L65:
	.loc 1 60 0
		SBR		getTime_vc
	|	SMOV.M2		R38, R16
	|	SMOV.M1		R36, R18
	|	SMOVIL		0, R13
	.loc 1 59 0
		SMOV.M1		R10, R40
	|	SMVAAGL.M2		OR8, R15:R14
	|	SMOVIL		.L66, R62
.LVL65:
	.loc 1 60 0
		SMVAAGL.M1		AR8, R11:R10
	|	SMOVIH		.L66, R62
.LVL66:
		SMVAAGH.M1		OR8, R15:R14
	|	SMOVIH4.L		.L66, R63
		SMVAAGH.M1		AR8, R11:R10
	|	SMOVIL		1074790400, R12
		SMOVIH		1074790400, R12
	;; call to getTime_vc occurs, with return value
		SNOP		1
.LVL67:
.L66:
	.loc 1 62 0
		SMOVIL		624, R42
	|	SMOV.M1		R10, R39
	|	SMVAAGL.M2		OR8, R11:R10
.LVL68:
		SMOVIL		0, R43
	|	SBR		M7002_datatrans
		SADDA.M1		R43:R42,AR15,OR14
	|	SMVAAGH.M2		OR8, R11:R10
	|	SMOVIL		.L67, R62
		SMOVIH		.L67, R62
		SMVAAGL.M2		OR14, R13:R12
	|	SMOVIH4.L		.L67, R63
		SMOVIL		512, R14
		SMVAAGH.M2		OR14, R13:R12
	;; call to M7002_datatrans occurs
		SNOP		1
.LVL69:
.L67:
		SLDDW		*+AR15[4], R45:R44
	|	SMOVIL		1120403456, R55
	|	SMOV.M2		R30, R42
	|	SMOV.M1		R31, R43
	.loc 1 66 0
		SMOVIL		0, R54
		SMOVIL		-2147483648, R56
	.loc 1 64 0
		SMOVIL		0, R49
	.loc 1 65 0
		SMOVIH		1120403456, R55
	.loc 1 66 0
		SMOVIH		0, R54
		SMOVIH		-2147483648, R56
.LVL70:
.L34:
		SADD.M2		4,R44,R46
	|	SADD.M1		4,R42,R3
		SLTU		R46, R44, R48
	|	SMOV.M2		R46, R44
	|	SADD.M1		1,R49,R49
		SADD.M2		R45,R48,R45
	|	SLTU		R3, R42, R9
	|	SMOV.M1		R3, R42
	.loc 1 15 0
		SMVAGA36.M2		R45:R44, AR10
	|	SADD.M1		R43,R9,R43
	|	SLT		R49, R36, R0
	.loc 1 64 0
		SNOP		1
	.loc 1 65 0
		SLDW		*AR10, R11
	|	SMVAGA36.M2		R43:R42, AR10
	.loc 1 15 0
		SNOP		1
	.loc 1 65 0
		SLDW		*AR10, R51
		SNOP		3
		SFRCPS32.M2		R11, R12
		SFMULS32.M2		R11, R12, R13
		SFSUBS32.M1		R51, R11, R14
		SNOP		2
		SFSUBS32.M2		R13, R32, R15
		SNOP		2
		SFMULS32.M2		R12, R15, R16
		SNOP		3
		SFMULS32.M2		R11, R16, R17
		SNOP		3
		SFSUBS32.M2		R17, R32, R18
		SNOP		2
		SFMULS32.M2		R16, R18, R19
		SNOP		3
		SFMULS32.M2		R14, R19, R20
		SNOP		3
		SFMULS32.M2		R20, R55, R21
		SNOP		3
.LVL71:
	.loc 1 66 0
		SFCMPLS32.M2		R21, R54, R1
	[R1]	SBR		.L49
		SNOP		6
	;; condjump to .L49 occurs
.L31:
	.loc 1 67 0
		SFCMPGS32.M2		R21, R33, R2
	[!R2]	SBR		.L33
		SNOP		6
	;; condjump to .L33 occurs
		SMOV.M2		R21, R33
.LVL72:
.L33:
	.loc 1 64 0
	[R0]	SBR		.L34
		SNOP		6
	;; condjump to .L34 occurs
	.loc 1 69 0
		SFSPDP32T.M2		R33, R43:R42
	|	SMOVIL		1202590843, R44
		SMOVIL		1065646817, R45
		SMOVIH		1202590843, R44
		SMOVIH		1065646817, R45
		SFCMPGD.M2		R43:R42, R45:R44, R0
		SNOP		1
	[!R0]	SBR		.L47
		SNOP		6
	;; condjump to .L47 occurs
	.loc 1 70 0
		SSTDW		R43:R42, *+AR15[2]
	|	SMOVIL.L		.LC0, R42
		SMOVIH4.L		.LC0, R43
		SBR		printf
	|	SMOVIH.L		.LC0, R42
		SSTDW		R43:R42, *+AR15[1]
	|	SMOVIL		.L68, R62
		SMOVIH		.L68, R62
		SMOVIH4.L		.L68, R63
	;; call to printf occurs, with return value
		SNOP		3
.LVL73:
.L68:
	.loc 1 73 0
		SMVAAGL.M2		OR9, R25:R24
	|	SSUB.M1		R41, R40, R22
	|	SSTW		R38, *+AR15[5]
		SSUB.M1		R41, R39, R23
	|	SSTW		R36, *+AR15[4]
		SMVAAGH.M2		OR9, R25:R24
	|	SADD.M1		4,R38,R38
	.loc 1 52 0
		SNOP		1
	.loc 1 73 0
		SBR		printf
	|	SSTDW		R25:R24, *+AR15[1]
		SSTW		R22, *+AR15[6]
	|	SMOVIL		.L69, R62
		SMOVIH		.L69, R62
		SMOVIH4.L		.L69, R63
		SSTW		R23, *+AR15[7]
	;; call to printf occurs, with return value
		SNOP		2
.LVL74:
.L69:
	.loc 1 52 0
		SMOVIL		20, R43
		SEQ		R43, R38, R1
	[!R1]	SBR		.L38
		SNOP		6
	;; condjump to .L38 occurs
.L50:
	.loc 1 51 0
		SADD.M2		8,R36,R36
	|	SMOVIL		136, R25
.LVL75:
		SEQ		R25, R36, R2
	[!R2]	SBR		.L29
		SNOP		6
	;; condjump to .L29 occurs
	.loc 1 76 0
		SBR		vfree
	|	SMVAAGL.M2		AR8, R11:R10
		SMOVIL		.L70, R62
		SMVAAGH.M2		AR8, R11:R10
	|	SMOVIH		.L70, R62
		SMOVIH4.L		.L70, R63
	;; call to vfree occurs
		SNOP		3
.LVL76:
.L70:
	.loc 1 77 0
		SBR		vfree
	|	SMVAAGL.M2		OR8, R11:R10
		SMOVIL		.L71, R62
		SMVAAGH.M2		OR8, R11:R10
	|	SMOVIH		.L71, R62
		SMOVIH4.L		.L71, R63
	;; call to vfree occurs
		SNOP		3
.LVL77:
.L71:
	.loc 1 78 0
		SMOVIL		429, R6
	|	SLDDW		*+AR15[223], R63:R62
		SMOVIL		0, R7
	|	SLDDW		*+AR15[218], R39:R38
.LVL78:
		SMVAGA36.M2		R7:R6, OR15
	|	SMOVIL		430, R6
	|	SLDDW		*+AR15[219], R41:R40
.LVL79:
		SMOVIL		0, R7
		SLDW		*+AR15[OR15], R30
	|	SMVAGA36.M2		R7:R6, OR15
	|	SMOVIL		431, R6
		SMOVIL		0, R7
		SMVCGC.L		R63, BRReg
		SNOP		1
		SLDW		*+AR15[OR15], R31
	|	SMVAGA36.M2		R7:R6, OR15
	|	SMOVIL		432, R6
		SMOVIL		0, R7
		SLDW		*+AR15[OR15], R32
	|	SMVAGA36.M2		R7:R6, OR15
	|	SMOVIL		433, R6
		SMOVIL		0, R7
		SLDW		*+AR15[OR15], R33
	|	SMVAGA36.M2		R7:R6, OR15
	|	SMOVIL		434, R6
.LVL80:
		SMOVIL		0, R7
		SLDW		*+AR15[OR15], R34
	|	SMVAGA36.M2		R7:R6, OR15
	|	SMOVIL		435, R6
		SMOVIL		0, R7
		SLDW		*+AR15[OR15], R35
	|	SMVAGA36.M2		R7:R6, OR15
		SNOP		1
		SLDDW		*+AR15[220], R7:R6
		SNOP		1
		SLDW		*+AR15[OR15], R36
		SNOP		3
.LVL81:
		SMVAGA36.M2		R7:R6, AR8
	|	SLDDW		*+AR15[221], R7:R6
.LVL82:
		SNOP		5
		SMVAGA36.M2		R7:R6, OR8
	|	SLDDW		*+AR15[222], R7:R6
.LVL83:
		SNOP		5
		SMVAGA36.M2		R7:R6, OR9
	|	SLDDW		*+AR15[224], R7:R6
		SNOP		2
		SBR		R62
		SNOP		2
		SMVAGA36.M2		R7:R6, AR14
	|	SMOVIL		1800, R6
		SMOVIL		0, R7
		SADDA.M2		R7:R6,AR15,AR15
		SNOP		1
	;; return occurs
.LVL84:
.L49:
		SBR		.L31
	|	SXOR		R56, R21, R21
	.loc 1 66 0 discriminator 1
		SNOP		6
.LVL85:
	;; jump to .L31 occurs
.LVL86:
.L47:
	.loc 1 72 0
		SMOVIL.L		.LC1, R42
		SMOVIH4.L		.LC1, R43
		SBR		printf
	|	SMOVIH.L		.LC1, R42
		SSTDW		R43:R42, *+AR15[1]
	|	SMOVIL		.L72, R62
		SMOVIH		.L72, R62
		SMOVIH4.L		.L72, R63
	;; call to printf occurs, with return value
		SNOP		3
.LVL87:
.L72:
	.loc 1 73 0
		SMVAAGL.M2		OR9, R25:R24
	|	SSUB.M1		R41, R40, R22
	|	SSTW		R38, *+AR15[5]
		SSUB.M1		R41, R39, R23
	|	SSTW		R36, *+AR15[4]
		SMVAAGH.M2		OR9, R25:R24
	|	SADD.M1		4,R38,R38
	.loc 1 52 0
		SNOP		1
	.loc 1 73 0
		SBR		printf
	|	SSTDW		R25:R24, *+AR15[1]
		SSTW		R22, *+AR15[6]
	|	SMOVIL		.L73, R62
		SMOVIH		.L73, R62
		SMOVIH4.L		.L73, R63
		SSTW		R23, *+AR15[7]
	;; call to printf occurs, with return value
		SNOP		2
.LVL88:
.L73:
	.loc 1 52 0
		SMOVIL		20, R43
		SEQ		R43, R38, R1
	[!R1]	SBR		.L38
		SNOP		6
	;; condjump to .L38 occurs
		SBR		.L50
		SNOP		6
	;; jump to .L50 occurs
	.cfi_endproc
.LFE3:
	.size	main, .-main
.text;
.Letext0: