	.file	"Timer.c"
.text;
.Ltext0:
	.cfi_sections	.debug_frame
	.section	.text.TimerStart,"ax",@progbits
	.align	2
	.global	TimerStart
	.type	TimerStart, @function
TimerStart:
.LFB0:
	.file 1 "../Timer.c"
	.loc 1 5 0
	.cfi_startproc
.LVL0:
	.loc 1 7 0
		SMOVIL		1, R42
	|	SMOV.M2		R10, R0
		SEQ		R42, R10, R1
	|[!R0]	SBR		.L6
	.loc 1 5 0
		SMOVIL		-16, R6
		SMOVIL		-1, R7
		SADDA.M2		R7:R6,AR15,AR15
.LCFI0:
	.cfi_def_cfa_offset 16
	.loc 1 9 0
		SMOVIL		16, R6
	.loc 1 5 0
		SSTDW		R63:R62, *+AR15[1]
	.cfi_offset 78, -8
	.cfi_offset 79, -4
	.loc 1 9 0
		SMOVIL		0, R7
	;; condjump to .L6 occurs
	.loc 1 7 0
	[R1]	SBR		.L7
		SNOP		6
	;; condjump to .L7 occurs
	.loc 1 9 0
		SLDDW		*+AR15[1], R63:R62
	|	SADDA.M2		R7:R6,AR15,AR15
		SNOP		5
		SMVCGC.L		R63, BRReg
		SNOP		1
		SBR		R62
		SNOP		6
	;; return occurs
.L6:
	.loc 1 7 0 discriminator 1
		SBR		SetConfReg
	|	SMOVIL		16, R6
	|	SLDDW		*+AR15[1], R63:R62
	.loc 1 9 0 discriminator 1
		SMOVIL		0, R7
		SADDA.M2		R7:R6,AR15,AR15
	|	SMOVIL		3, R12
	.loc 1 6 0 discriminator 1
		SMOVIL		1075576832, R10
.LVL1:
		SMOVIH		1075576832, R10
	.loc 1 7 0 discriminator 1
	;; sibcall to SetConfReg occurs
		SNOP		2
.LVL2:
.L7:
		SBR		SetConfReg
	|	SMOVIL		16, R6
	|	SLDDW		*+AR15[1], R63:R62
	.loc 1 9 0 discriminator 1
		SMOVIL		0, R7
		SADDA.M2		R7:R6,AR15,AR15
	|	SMOVIL		3, R12
	.loc 1 7 0 discriminator 1
		SMOVIL		1075642368, R10
		SMOVIH		1075642368, R10
	;; sibcall to SetConfReg occurs
		SNOP		2
.LVL3:
	.cfi_endproc
.LFE0:
	.size	TimerStart, .-TimerStart
	.section	.text.TimerHold,"ax",@progbits
	.align	2
	.global	TimerHold
	.type	TimerHold, @function
TimerHold:
.LFB1:
	.loc 1 13 0
	.cfi_startproc
.LVL4:
	.loc 1 15 0
		SMOVIL		1, R42
	|	SMOV.M2		R10, R0
		SEQ		R42, R10, R1
	|[!R0]	SBR		.L14
	.loc 1 13 0
		SMOVIL		-16, R6
		SMOVIL		-1, R7
		SADDA.M2		R7:R6,AR15,AR15
.LCFI1:
	.cfi_def_cfa_offset 16
	.loc 1 17 0
		SMOVIL		16, R6
	.loc 1 13 0
		SSTDW		R63:R62, *+AR15[1]
	.cfi_offset 78, -8
	.cfi_offset 79, -4
	.loc 1 17 0
		SMOVIL		0, R7
	;; condjump to .L14 occurs
	.loc 1 15 0
	[R1]	SBR		.L15
		SNOP		6
	;; condjump to .L15 occurs
	.loc 1 17 0
		SLDDW		*+AR15[1], R63:R62
	|	SADDA.M2		R7:R6,AR15,AR15
		SNOP		5
		SMVCGC.L		R63, BRReg
		SNOP		1
		SBR		R62
		SNOP		6
	;; return occurs
.L14:
	.loc 1 15 0 discriminator 1
		SBR		SetConfReg
	|	SMOVIL		16, R6
	|	SLDDW		*+AR15[1], R63:R62
	.loc 1 17 0 discriminator 1
		SMOVIL		0, R7
		SADDA.M2		R7:R6,AR15,AR15
	|	SMOVIL		1, R12
	.loc 1 14 0 discriminator 1
		SMOVIL		1075576832, R10
.LVL5:
		SMOVIH		1075576832, R10
	.loc 1 15 0 discriminator 1
	;; sibcall to SetConfReg occurs
		SNOP		2
.LVL6:
.L15:
		SBR		SetConfReg
	|	SMOVIL		16, R6
	|	SLDDW		*+AR15[1], R63:R62
	.loc 1 17 0 discriminator 1
		SMOVIL		0, R7
		SADDA.M2		R7:R6,AR15,AR15
	|	SMOVIL		1, R12
	.loc 1 15 0 discriminator 1
		SMOVIL		1075642368, R10
		SMOVIH		1075642368, R10
	;; sibcall to SetConfReg occurs
		SNOP		2
.LVL7:
	.cfi_endproc
.LFE1:
	.size	TimerHold, .-TimerHold
	.section	.text.TimerResume,"ax",@progbits
	.align	2
	.global	TimerResume
	.type	TimerResume, @function
TimerResume:
.LFB2:
	.loc 1 21 0
	.cfi_startproc
.LVL8:
	.loc 1 23 0
		SMOVIL		1, R42
	|	SMOV.M2		R10, R0
		SEQ		R42, R10, R1
	|[!R0]	SBR		.L22
	.loc 1 21 0
		SMOVIL		-16, R6
		SMOVIL		-1, R7
		SADDA.M2		R7:R6,AR15,AR15
.LCFI2:
	.cfi_def_cfa_offset 16
	.loc 1 25 0
		SMOVIL		16, R6
	.loc 1 21 0
		SSTDW		R63:R62, *+AR15[1]
	.cfi_offset 78, -8
	.cfi_offset 79, -4
	.loc 1 25 0
		SMOVIL		0, R7
	;; condjump to .L22 occurs
	.loc 1 23 0
	[R1]	SBR		.L23
		SNOP		6
	;; condjump to .L23 occurs
	.loc 1 25 0
		SLDDW		*+AR15[1], R63:R62
	|	SADDA.M2		R7:R6,AR15,AR15
		SNOP		5
		SMVCGC.L		R63, BRReg
		SNOP		1
		SBR		R62
		SNOP		6
	;; return occurs
.L22:
	.loc 1 23 0 discriminator 1
		SBR		SetConfReg
	|	SMOVIL		16, R6
	|	SLDDW		*+AR15[1], R63:R62
	.loc 1 25 0 discriminator 1
		SMOVIL		0, R7
		SADDA.M2		R7:R6,AR15,AR15
	|	SMOVIL		2, R12
	.loc 1 22 0 discriminator 1
		SMOVIL		1075576832, R10
.LVL9:
		SMOVIH		1075576832, R10
	.loc 1 23 0 discriminator 1
	;; sibcall to SetConfReg occurs
		SNOP		2
.LVL10:
.L23:
		SBR		SetConfReg
	|	SMOVIL		16, R6
	|	SLDDW		*+AR15[1], R63:R62
	.loc 1 25 0 discriminator 1
		SMOVIL		0, R7
		SADDA.M2		R7:R6,AR15,AR15
	|	SMOVIL		2, R12
	.loc 1 23 0 discriminator 1
		SMOVIL		1075642368, R10
		SMOVIH		1075642368, R10
	;; sibcall to SetConfReg occurs
		SNOP		2
.LVL11:
	.cfi_endproc
.LFE2:
	.size	TimerResume, .-TimerResume
	.section	.text.GetTimerCount,"ax",@progbits
	.align	2
	.global	GetTimerCount
	.type	GetTimerCount, @function
GetTimerCount:
.LFB3:
	.loc 1 29 0
	.cfi_startproc
.LVL12:
	.loc 1 31 0
		SMOVIL		1, R42
	|	SMOV.M2		R10, R0
		SEQ		R42, R10, R1
	|[!R0]	SBR		.L30
.LVL13:
	.loc 1 29 0
		SMOVIL		-16, R6
		SMOVIL		-1, R7
		SADDA.M2		R7:R6,AR15,AR15
.LCFI3:
	.cfi_def_cfa_offset 16
	.loc 1 32 0
		SMOVIL		16, R6
	.loc 1 29 0
		SSTDW		R63:R62, *+AR15[1]
	.cfi_offset 78, -8
	.cfi_offset 79, -4
	.loc 1 32 0
		SMOVIL		0, R7
	;; condjump to .L30 occurs
	.loc 1 31 0
	[R1]	SBR		.L31
		SNOP		6
	;; condjump to .L31 occurs
	.loc 1 32 0
		SLDDW		*+AR15[1], R63:R62
	|	SADDA.M2		R7:R6,AR15,AR15
		SNOP		5
		SMVCGC.L		R63, BRReg
		SNOP		1
		SBR		R62
		SNOP		6
	;; return occurs
.L30:
	.loc 1 31 0 discriminator 1
		SBR		GetConfReg
	|	SMOVIL		16, R6
	|	SLDDW		*+AR15[1], R63:R62
	.loc 1 32 0 discriminator 1
		SMOVIL		0, R7
		SADDA.M2		R7:R6,AR15,AR15
	|	SMOVIL		1075576840, R10
	.loc 1 30 0 discriminator 1
		SMOVIH		1075576840, R10
	.loc 1 31 0 discriminator 1
	;; sibcall to GetConfReg occurs
		SNOP		3
.LVL14:
.L31:
		SBR		GetConfReg
	|	SMOVIL		16, R6
	|	SLDDW		*+AR15[1], R63:R62
	.loc 1 32 0 discriminator 1
		SMOVIL		0, R7
		SADDA.M2		R7:R6,AR15,AR15
	|	SMOVIL		1075642376, R10
	.loc 1 31 0 discriminator 1
		SMOVIH		1075642376, R10
	;; sibcall to GetConfReg occurs
		SNOP		3
.LVL15:
	.cfi_endproc
.LFE3:
	.size	GetTimerCount, .-GetTimerCount
	.section	.text.GetTimerPeriod,"ax",@progbits
	.align	2
	.global	GetTimerPeriod
	.type	GetTimerPeriod, @function
GetTimerPeriod:
.LFB4:
	.loc 1 36 0
	.cfi_startproc
.LVL16:
	.loc 1 38 0
		SMOVIL		1, R42
	|	SMOV.M2		R10, R0
		SEQ		R42, R10, R1
	|[!R0]	SBR		.L38
.LVL17:
	.loc 1 36 0
		SMOVIL		-16, R6
		SMOVIL		-1, R7
		SADDA.M2		R7:R6,AR15,AR15
.LCFI4:
	.cfi_def_cfa_offset 16
	.loc 1 39 0
		SMOVIL		16, R6
	.loc 1 36 0
		SSTDW		R63:R62, *+AR15[1]
	.cfi_offset 78, -8
	.cfi_offset 79, -4
	.loc 1 39 0
		SMOVIL		0, R7
	;; condjump to .L38 occurs
	.loc 1 38 0
	[R1]	SBR		.L39
		SNOP		6
	;; condjump to .L39 occurs
	.loc 1 39 0
		SLDDW		*+AR15[1], R63:R62
	|	SADDA.M2		R7:R6,AR15,AR15
		SNOP		5
		SMVCGC.L		R63, BRReg
		SNOP		1
		SBR		R62
		SNOP		6
	;; return occurs
.L38:
	.loc 1 38 0 discriminator 1
		SBR		GetConfReg
	|	SMOVIL		16, R6
	|	SLDDW		*+AR15[1], R63:R62
	.loc 1 39 0 discriminator 1
		SMOVIL		0, R7
		SADDA.M2		R7:R6,AR15,AR15
	|	SMOVIL		1075576836, R10
	.loc 1 37 0 discriminator 1
		SMOVIH		1075576836, R10
	.loc 1 38 0 discriminator 1
	;; sibcall to GetConfReg occurs
		SNOP		3
.LVL18:
.L39:
		SBR		GetConfReg
	|	SMOVIL		16, R6
	|	SLDDW		*+AR15[1], R63:R62
	.loc 1 39 0 discriminator 1
		SMOVIL		0, R7
		SADDA.M2		R7:R6,AR15,AR15
	|	SMOVIL		1075642372, R10
	.loc 1 38 0 discriminator 1
		SMOVIH		1075642372, R10
	;; sibcall to GetConfReg occurs
		SNOP		3
.LVL19:
	.cfi_endproc
.LFE4:
	.size	GetTimerPeriod, .-GetTimerPeriod
	.section	.text.SetTimerPeriod,"ax",@progbits
	.align	2
	.global	SetTimerPeriod
	.type	SetTimerPeriod, @function
SetTimerPeriod:
.LFB5:
	.loc 1 43 0
	.cfi_startproc
.LVL20:
	.loc 1 45 0
		SMOVIL		1, R42
	|	SMOV.M2		R10, R0
		SEQ		R42, R10, R1
	|[!R0]	SBR		.L46
	.loc 1 43 0
		SMOVIL		-16, R6
		SMOVIL		-1, R7
		SADDA.M2		R7:R6,AR15,AR15
.LCFI5:
	.cfi_def_cfa_offset 16
	.loc 1 47 0
		SMOVIL		16, R6
	.loc 1 43 0
		SSTDW		R63:R62, *+AR15[1]
	.cfi_offset 78, -8
	.cfi_offset 79, -4
	.loc 1 47 0
		SMOVIL		0, R7
	;; condjump to .L46 occurs
	.loc 1 45 0
	[R1]	SBR		.L47
		SNOP		6
	;; condjump to .L47 occurs
	.loc 1 47 0
		SLDDW		*+AR15[1], R63:R62
	|	SADDA.M2		R7:R6,AR15,AR15
		SNOP		5
		SMVCGC.L		R63, BRReg
		SNOP		1
		SBR		R62
		SNOP		6
	;; return occurs
.L46:
	.loc 1 45 0 discriminator 1
		SBR		SetConfReg
	|	SMOVIL		16, R6
	|	SLDDW		*+AR15[1], R63:R62
	.loc 1 47 0 discriminator 1
		SMOVIL		0, R7
		SADDA.M2		R7:R6,AR15,AR15
	|	SMOVIL		1075576836, R10
.LVL21:
	.loc 1 44 0 discriminator 1
		SMOVIH		1075576836, R10
	.loc 1 45 0 discriminator 1
	;; sibcall to SetConfReg occurs
		SNOP		3
.LVL22:
.L47:
		SBR		SetConfReg
	|	SMOVIL		16, R6
	|	SLDDW		*+AR15[1], R63:R62
	.loc 1 47 0 discriminator 1
		SMOVIL		0, R7
		SADDA.M2		R7:R6,AR15,AR15
	|	SMOVIL		1075642372, R10
	.loc 1 45 0 discriminator 1
		SMOVIH		1075642372, R10
	;; sibcall to SetConfReg occurs
		SNOP		3
.LVL23:
	.cfi_endproc
.LFE5:
	.size	SetTimerPeriod, .-SetTimerPeriod
	.section	.text.GetSpareReg,"ax",@progbits
	.align	2
	.global	GetSpareReg
	.type	GetSpareReg, @function
GetSpareReg:
.LFB6:
	.loc 1 51 0
	.cfi_startproc
.LVL24:
	.loc 1 52 0
		SMOVIL		7, R42
		SLTU		R42, R10, R0
	[!R0]	SBR		.L62
	|	SMOVIL		-16, R6
	.loc 1 51 0
		SMOVIL		-1, R7
		SADDA.M2		R7:R6,AR15,AR15
.LCFI6:
	.cfi_def_cfa_offset 16
		SNOP		1
		SSTDW		R63:R62, *+AR15[1]
		SNOP		2
	.cfi_offset 78, -8
	.cfi_offset 79, -4
	.loc 1 52 0
	;; condjump to .L62 occurs
	.loc 1 79 0
		SLDDW		*+AR15[1], R63:R62
	|	SMOVIL		16, R6
		SMOVIL		0, R7
		SADDA.M2		R7:R6,AR15,AR15
	|	SMOVIL		0, R10
		SNOP		3
.LVL25:
		SMVCGC.L		R63, BRReg
		SNOP		1
		SBR		R62
		SNOP		6
	;; return occurs
.LVL26:
.L62:
	.loc 1 52 0
		SMOV.M2		R10, R44
	|	SMOVIL		0, R45
	;no-op trunc di R45:R44 to pdi R45:R44
		SSHFLR		30, R44, R46
		SSHFLL		2, R44, R42
		SMOVIL.L		.L59, R44
		SSHFLL		2, R45, R43
		SMOVIH.L		.L59, R44
		SMOVIH4.L		.L59, R45
		SMVAGA36.M1		R45:R44, AR0
	|	SOR		R43, R46, R43
		SNOP		1
		SMVAAA.M2		AR0, OR11
		SNOP		1
		SADDA.M2		R43:R42,OR11,AR10
		SNOP		1
		SLDW		*AR10, R1
		SNOP		5
		SBR		R1
		SNOP		6
	.section	.const,"a",@progbits
	.align	2
	.align	2
.L59:
	.long	.L51
	.long	.L52
	.long	.L53
	.long	.L54
	.long	.L55
	.long	.L56
	.long	.L57
	.long	.L58
	.section	.text.GetSpareReg
.L57:
	.loc 1 75 0
		SBR		GetConfReg
	|	SMOVIL		16, R6
	|	SLDDW		*+AR15[1], R63:R62
	.loc 1 79 0
		SMOVIL		0, R7
		SADDA.M2		R7:R6,AR15,AR15
	|	SMOVIL		1075642392, R10
.LVL27:
	.loc 1 72 0
		SMOVIH		1075642392, R10
	.loc 1 75 0
	;; sibcall to GetConfReg occurs
		SNOP		3
.LVL28:
.L58:
		SBR		GetConfReg
	|	SMOVIL		16, R6
	|	SLDDW		*+AR15[1], R63:R62
	.loc 1 79 0
		SMOVIL		0, R7
		SADDA.M2		R7:R6,AR15,AR15
	|	SMOVIL		1075642396, R10
.LVL29:
	.loc 1 75 0
		SMOVIH		1075642396, R10
	;; sibcall to GetConfReg occurs
		SNOP		3
.LVL30:
.L51:
		SBR		GetConfReg
	|	SMOVIL		16, R6
	|	SLDDW		*+AR15[1], R63:R62
	.loc 1 79 0
		SMOVIL		0, R7
		SADDA.M2		R7:R6,AR15,AR15
	|	SMOVIL		1075576848, R10
.LVL31:
	.loc 1 54 0
		SMOVIH		1075576848, R10
	.loc 1 75 0
	;; sibcall to GetConfReg occurs
		SNOP		3
.LVL32:
.L52:
		SBR		GetConfReg
	|	SMOVIL		16, R6
	|	SLDDW		*+AR15[1], R63:R62
	.loc 1 79 0
		SMOVIL		0, R7
		SADDA.M2		R7:R6,AR15,AR15
	|	SMOVIL		1075576852, R10
.LVL33:
	.loc 1 57 0
		SMOVIH		1075576852, R10
	.loc 1 75 0
	;; sibcall to GetConfReg occurs
		SNOP		3
.LVL34:
.L53:
		SBR		GetConfReg
	|	SMOVIL		16, R6
	|	SLDDW		*+AR15[1], R63:R62
	.loc 1 79 0
		SMOVIL		0, R7
		SADDA.M2		R7:R6,AR15,AR15
	|	SMOVIL		1075576856, R10
.LVL35:
	.loc 1 60 0
		SMOVIH		1075576856, R10
	.loc 1 75 0
	;; sibcall to GetConfReg occurs
		SNOP		3
.LVL36:
.L54:
		SBR		GetConfReg
	|	SMOVIL		16, R6
	|	SLDDW		*+AR15[1], R63:R62
	.loc 1 79 0
		SMOVIL		0, R7
		SADDA.M2		R7:R6,AR15,AR15
	|	SMOVIL		1075576860, R10
.LVL37:
	.loc 1 63 0
		SMOVIH		1075576860, R10
	.loc 1 75 0
	;; sibcall to GetConfReg occurs
		SNOP		3
.LVL38:
.L55:
		SBR		GetConfReg
	|	SMOVIL		16, R6
	|	SLDDW		*+AR15[1], R63:R62
	.loc 1 79 0
		SMOVIL		0, R7
		SADDA.M2		R7:R6,AR15,AR15
	|	SMOVIL		1075642384, R10
.LVL39:
	.loc 1 66 0
		SMOVIH		1075642384, R10
	.loc 1 75 0
	;; sibcall to GetConfReg occurs
		SNOP		3
.LVL40:
.L56:
		SBR		GetConfReg
	|	SMOVIL		16, R6
	|	SLDDW		*+AR15[1], R63:R62
	.loc 1 79 0
		SMOVIL		0, R7
		SADDA.M2		R7:R6,AR15,AR15
	|	SMOVIL		1075642388, R10
.LVL41:
	.loc 1 69 0
		SMOVIH		1075642388, R10
	.loc 1 75 0
	;; sibcall to GetConfReg occurs
		SNOP		3
.LVL42:
	.cfi_endproc
.LFE6:
	.size	GetSpareReg, .-GetSpareReg
	.section	.text.SetSpareReg,"ax",@progbits
	.align	2
	.global	SetSpareReg
	.type	SetSpareReg, @function
SetSpareReg:
.LFB7:
	.loc 1 83 0
	.cfi_startproc
.LVL43:
	.loc 1 84 0
		SMOVIL		7, R42
		SLTU		R42, R10, R0
	[!R0]	SBR		.L77
	|	SMOVIL		-16, R6
	.loc 1 83 0
		SMOVIL		-1, R7
		SADDA.M2		R7:R6,AR15,AR15
.LCFI7:
	.cfi_def_cfa_offset 16
		SNOP		1
		SSTDW		R63:R62, *+AR15[1]
		SNOP		2
	.cfi_offset 78, -8
	.cfi_offset 79, -4
	.loc 1 84 0
	;; condjump to .L77 occurs
	.loc 1 111 0
		SLDDW		*+AR15[1], R63:R62
	|	SMOVIL		16, R6
		SMOVIL		0, R7
		SADDA.M2		R7:R6,AR15,AR15
		SNOP		3
		SMVCGC.L		R63, BRReg
		SNOP		1
		SBR		R62
		SNOP		6
	;; return occurs
.L77:
	.loc 1 84 0
		SMOV.M2		R10, R44
	|	SMOVIL		0, R45
	;no-op trunc di R45:R44 to pdi R45:R44
		SSHFLR		30, R44, R46
		SSHFLL		2, R44, R42
		SMOVIL.L		.L74, R44
		SSHFLL		2, R45, R43
		SMOVIH.L		.L74, R44
		SMOVIH4.L		.L74, R45
		SMVAGA36.M1		R45:R44, AR0
	|	SOR		R43, R46, R43
		SNOP		1
		SMVAAA.M2		AR0, OR11
		SNOP		1
		SADDA.M2		R43:R42,OR11,AR10
		SNOP		1
		SLDW		*AR10, R1
		SNOP		5
		SBR		R1
		SNOP		6
	.section	.const,"a",@progbits
	.align	2
	.align	2
.L74:
	.long	.L66
	.long	.L67
	.long	.L68
	.long	.L69
	.long	.L70
	.long	.L71
	.long	.L72
	.long	.L73
	.section	.text.SetSpareReg
.L72:
	.loc 1 107 0
		SBR		SetConfReg
	|	SMOVIL		16, R6
	|	SLDDW		*+AR15[1], R63:R62
	.loc 1 111 0
		SMOVIL		0, R7
		SADDA.M2		R7:R6,AR15,AR15
	|	SMOVIL		1075642392, R10
.LVL44:
	.loc 1 104 0
		SMOVIH		1075642392, R10
	.loc 1 107 0
	;; sibcall to SetConfReg occurs
		SNOP		3
.LVL45:
.L73:
		SBR		SetConfReg
	|	SMOVIL		16, R6
	|	SLDDW		*+AR15[1], R63:R62
	.loc 1 111 0
		SMOVIL		0, R7
		SADDA.M2		R7:R6,AR15,AR15
	|	SMOVIL		1075642396, R10
.LVL46:
	.loc 1 107 0
		SMOVIH		1075642396, R10
	;; sibcall to SetConfReg occurs
		SNOP		3
.LVL47:
.L66:
		SBR		SetConfReg
	|	SMOVIL		16, R6
	|	SLDDW		*+AR15[1], R63:R62
	.loc 1 111 0
		SMOVIL		0, R7
		SADDA.M2		R7:R6,AR15,AR15
	|	SMOVIL		1075576848, R10
.LVL48:
	.loc 1 86 0
		SMOVIH		1075576848, R10
	.loc 1 107 0
	;; sibcall to SetConfReg occurs
		SNOP		3
.LVL49:
.L67:
		SBR		SetConfReg
	|	SMOVIL		16, R6
	|	SLDDW		*+AR15[1], R63:R62
	.loc 1 111 0
		SMOVIL		0, R7
		SADDA.M2		R7:R6,AR15,AR15
	|	SMOVIL		1075576852, R10
.LVL50:
	.loc 1 89 0
		SMOVIH		1075576852, R10
	.loc 1 107 0
	;; sibcall to SetConfReg occurs
		SNOP		3
.LVL51:
.L68:
		SBR		SetConfReg
	|	SMOVIL		16, R6
	|	SLDDW		*+AR15[1], R63:R62
	.loc 1 111 0
		SMOVIL		0, R7
		SADDA.M2		R7:R6,AR15,AR15
	|	SMOVIL		1075576856, R10
.LVL52:
	.loc 1 92 0
		SMOVIH		1075576856, R10
	.loc 1 107 0
	;; sibcall to SetConfReg occurs
		SNOP		3
.LVL53:
.L69:
		SBR		SetConfReg
	|	SMOVIL		16, R6
	|	SLDDW		*+AR15[1], R63:R62
	.loc 1 111 0
		SMOVIL		0, R7
		SADDA.M2		R7:R6,AR15,AR15
	|	SMOVIL		1075576860, R10
.LVL54:
	.loc 1 95 0
		SMOVIH		1075576860, R10
	.loc 1 107 0
	;; sibcall to SetConfReg occurs
		SNOP		3
.LVL55:
.L70:
		SBR		SetConfReg
	|	SMOVIL		16, R6
	|	SLDDW		*+AR15[1], R63:R62
	.loc 1 111 0
		SMOVIL		0, R7
		SADDA.M2		R7:R6,AR15,AR15
	|	SMOVIL		1075642384, R10
.LVL56:
	.loc 1 98 0
		SMOVIH		1075642384, R10
	.loc 1 107 0
	;; sibcall to SetConfReg occurs
		SNOP		3
.LVL57:
.L71:
		SBR		SetConfReg
	|	SMOVIL		16, R6
	|	SLDDW		*+AR15[1], R63:R62
	.loc 1 111 0
		SMOVIL		0, R7
		SADDA.M2		R7:R6,AR15,AR15
	|	SMOVIL		1075642388, R10
.LVL58:
	.loc 1 101 0
		SMOVIH		1075642388, R10
	.loc 1 107 0
	;; sibcall to SetConfReg occurs
		SNOP		3
.LVL59:
	.cfi_endproc
.LFE7:
	.size	SetSpareReg, .-SetSpareReg
	.section	.text.DisableVectorClk,"ax",@progbits
	.align	2
	.global	DisableVectorClk
	.type	DisableVectorClk, @function
DisableVectorClk:
.LFB8:
	.loc 1 115 0
	.cfi_startproc
		SMOVIL		-16, R6
		SMOVIL		-1, R7
		SADDA.M2		R7:R6,AR15,AR15
.LCFI8:
	.cfi_def_cfa_offset 16
	.loc 1 117 0
		SMOVIL		16, R6
	.loc 1 115 0
		SSTDW		R63:R62, *+AR15[1]
	.cfi_offset 78, -8
	.cfi_offset 79, -4
	.loc 1 117 0
		SMOVIL		0, R7
	.loc 1 116 0
		SBR		SetConfReg
	|	SMOVIL		0, R12
	.loc 1 117 0
		SLDDW		*+AR15[1], R63:R62
	|	SADDA.M2		R7:R6,AR15,AR15
	|	SMOVIL		1075576880, R10
	.loc 1 116 0
		SMOVIH		1075576880, R10
	;; sibcall to SetConfReg occurs
		SNOP		4
.LVL60:
	.cfi_endproc
.LFE8:
	.size	DisableVectorClk, .-DisableVectorClk
	.section	.text.EnableVectorClk,"ax",@progbits
	.align	2
	.global	EnableVectorClk
	.type	EnableVectorClk, @function
EnableVectorClk:
.LFB9:
	.loc 1 121 0
	.cfi_startproc
		SMOVIL		-16, R6
		SMOVIL		-1, R7
		SADDA.M2		R7:R6,AR15,AR15
.LCFI9:
	.cfi_def_cfa_offset 16
	.loc 1 123 0
		SMOVIL		16, R6
	.loc 1 121 0
		SSTDW		R63:R62, *+AR15[1]
	.cfi_offset 78, -8
	.cfi_offset 79, -4
	.loc 1 123 0
		SMOVIL		0, R7
	.loc 1 122 0
		SBR		SetConfReg
	|	SMOVIL		1, R12
	.loc 1 123 0
		SLDDW		*+AR15[1], R63:R62
	|	SADDA.M2		R7:R6,AR15,AR15
	|	SMOVIL		1075576880, R10
	.loc 1 122 0
		SMOVIH		1075576880, R10
	;; sibcall to SetConfReg occurs
		SNOP		4
.LVL61:
	.cfi_endproc
.LFE9:
	.size	EnableVectorClk, .-EnableVectorClk
.text;
.Letext0: