	.file	"ConfRegOp.c"
.text;
.Ltext0:
	.cfi_sections	.debug_frame
	.section	.text.GetConfReg,"ax",@progbits
	.align	2
	.global	GetConfReg
	.type	GetConfReg, @function
GetConfReg:
.LFB0:
	.file 1 "../ConfRegOp.c"
	.loc 1 2 0
	.cfi_startproc
		SMVAAGL.M1		AR14, R7:R6
		SNOP		1
		SMVAAGH.M1		AR14, R7:R6
		SNOP		1
		SSTDW		R7:R6, *AR15--[2]
.LCFI0:
	.cfi_def_cfa_offset 16
	.cfi_offset 14, 0
		SADDA.M1		16,AR15,AR14
.LCFI1:
	.cfi_def_cfa 14, 0
		SNOP		1
		SMOVIL		-8, R6
		SMOVIL		-1, R7
		SADDA.M1		R7:R6,AR15,AR15
		SNOP		1
		SSTW		R10, *-AR14[3]
	.loc 1 3 0
		SLDW		*-AR14[3], R42
		SNOP		5
		SMOVIL		0, R43
	;no-op trunc di R43:R42 to pdi R43:R42
		SMVAGA36.M1		R43:R42, AR10
		SNOP		1
		SLDW		*AR10, R42
		SNOP		5
	.loc 1 4 0
		SMOV.M1		R42, R10
		SADDA.M1		-16,AR14,AR15
		SNOP		1
		SLDDW		*++AR15[2], R7:R6
		SNOP		5
		SMVAGA36.M1		R7:R6, AR14
		SNOP		1
		SMVCGC.L		R63, BRReg
		SNOP		1
		SBR		R62
		SNOP		6
	.cfi_endproc
.LFE0:
	.size	GetConfReg, .-GetConfReg
	.section	.text.SetConfReg,"ax",@progbits
	.align	2
	.global	SetConfReg
	.type	SetConfReg, @function
SetConfReg:
.LFB1:
	.loc 1 7 0
	.cfi_startproc
		SMVAAGL.M1		AR14, R7:R6
		SNOP		1
		SMVAAGH.M1		AR14, R7:R6
		SNOP		1
		SSTDW		R7:R6, *AR15--[2]
.LCFI2:
	.cfi_def_cfa_offset 16
	.cfi_offset 14, 0
		SADDA.M1		16,AR15,AR14
.LCFI3:
	.cfi_def_cfa 14, 0
		SNOP		1
		SMOVIL		-8, R6
		SMOVIL		-1, R7
		SADDA.M1		R7:R6,AR15,AR15
		SNOP		1
		SSTW		R10, *-AR14[3]
		SSTW		R12, *-AR14[4]
	.loc 1 8 0
		SLDW		*-AR14[3], R42
		SNOP		5
		SMOVIL		0, R43
	;no-op trunc di R43:R42 to pdi R43:R42
		SLDW		*-AR14[4], R44
		SNOP		5
		SMVAGA36.M1		R43:R42, AR10
		SNOP		1
		SSTW		R44, *AR10
	.loc 1 9 0
		SNOP		1
	.loc 1 10 0
		SADDA.M1		-16,AR14,AR15
		SNOP		1
		SLDDW		*++AR15[2], R7:R6
		SNOP		5
		SMVAGA36.M1		R7:R6, AR14
		SNOP		1
		SMVCGC.L		R63, BRReg
		SNOP		1
		SBR		R62
		SNOP		6
	.cfi_endproc
.LFE1:
	.size	SetConfReg, .-SetConfReg
.text;
.Letext0: