	.file	"main.c"
.text;
.Ltext0:
	.cfi_sections	.debug_frame
	.section	.const,"a",@progbits
.LC0:
	.string	"%s = ["
.LC1:
	.string	"%f, "
.LC2:
	.string	"]"
	.section	.text.printMatrix,"ax",@progbits
	.align	2
	.global	printMatrix
	.type	printMatrix, @function
printMatrix:
.LFB3:
	.file 1 "../main.c"
	.loc 1 11 0
	.cfi_startproc
		SMVAAGL.M1		AR14, R7:R6
		SNOP		1
		SMVAAGH.M1		AR14, R7:R6
		SNOP		1
		SSTDW		R7:R6, *AR15--[2]
.LCFI0:
	.cfi_def_cfa_offset 16
	.cfi_offset 14, 0
		SADDA.M1		16,AR15,AR14
.LCFI1:
	.cfi_def_cfa 14, 0
		SNOP		1
		SMOVIL		-64, R6
		SMOVIL		-1, R7
		SADDA.M1		R7:R6,AR15,AR15
		SNOP		1
		SSTDW		R63:R62, *+AR15[8]
		SSTDW		R31:R30, *+AR15[7]
	.cfi_offset 78, -16
	.cfi_offset 79, -12
	.cfi_offset 46, -24
	.cfi_offset 47, -20
		SSTDW		R11:R10, *-AR14[5]
		SSTDW		R13:R12, *-AR14[6]
		SSTW		R14, *-AR14[13]
		SSTW		R16, *-AR14[14]
	.loc 1 13 0
		SMOVIL.L		.LC0, R42
		SMOVIH.L		.LC0, R42
		SMOVIH4.L		.LC0, R43
		SSTDW		R43:R42, *+AR15[1]
		SLDDW		*-AR14[6], R43:R42
		SNOP		5
		SSTDW		R43:R42, *+AR15[2]
		SBR		printf
		SMOVIL		.L6, R62
		SMOVIH		.L6, R62
		SMOVIH4.L		.L6, R63
		SNOP		4
.L6:
	.loc 1 14 0
		SMOVIL		0, R42
		SSTW		R42, *-AR14[7]
		SBR		.L2
		SNOP		6
.L5:
	.loc 1 15 0
		SMOVIL		0, R42
		SSTW		R42, *-AR14[8]
		SBR		.L3
		SNOP		6
.L4:
	.loc 1 16 0 discriminator 2
		SLDW		*-AR14[7], R43
		SNOP		5
		SLDW		*-AR14[13], R42
		SNOP		5
		SMULIS.M1		R42,R43,R43
		SNOP		2
		SLDW		*-AR14[8], R42
		SNOP		5
		SADD.M1		R42,R43,R42
		SMOV.M1		R42, R30
		SSHFAR		31, R42, R42
		SMOV.M1		R42, R31
		SADD.M1		R30,R30,R42
		SLTU		R42, R30, R44
		SADD.M1		R31,R31,R43
		SADD.M1		R43,R44,R44
		SMOV.M1		R44, R43
		SADD.M1		R42,R42,R44
		SLTU		R44, R42, R46
		SADD.M1		R43,R43,R45
		SADD.M1		R45,R46,R42
		SMOV.M1		R42, R45
		SMOV.M1		R44, R42
		SMOV.M1		R45, R43
	;no-op trunc di R43:R42 to pdi R43:R42
		SLDDW		*-AR14[5], R45:R44
		SNOP		5
		SMVAGA36.M1		R45:R44, OR11
		SNOP		1
		SADDA.M1		R43:R42,OR11,OR11
		SNOP		1
		SMVAAGL.M1		OR11, R43:R42
		SNOP		1
		SMVAAGH.M1		OR11, R43:R42
		SNOP		1
		SMVAGA36.M1		R43:R42, AR10
		SNOP		1
		SLDW		*AR10, R42
		SNOP		5
		SFSPDP32T.M1		R42, R43:R42
		SNOP		1
		SMOVIL.L		.LC1, R44
		SMOVIH.L		.LC1, R44
		SMOVIH4.L		.LC1, R45
		SSTDW		R45:R44, *+AR15[1]
		SSTDW		R43:R42, *+AR15[2]
		SBR		printf
		SMOVIL		.L7, R62
		SMOVIH		.L7, R62
		SMOVIH4.L		.L7, R63
		SNOP		4
.L7:
	.loc 1 15 0 discriminator 2
		SLDW		*-AR14[8], R42
		SNOP		5
		SADD.M1		1,R42,R42
		SSTW		R42, *-AR14[8]
.L3:
	.loc 1 15 0 is_stmt 0 discriminator 1
		SLDW		*-AR14[8], R43
		SNOP		5
		SLDW		*-AR14[14], R42
		SNOP		5
		SLT		R43, R42, R42
		SMOV.M1		R42, R0
	[R0]	SBR		.L4
		SNOP		6
	.loc 1 14 0 is_stmt 1
		SLDW		*-AR14[7], R42
		SNOP		5
		SADD.M1		1,R42,R42
		SSTW		R42, *-AR14[7]
.L2:
	.loc 1 14 0 is_stmt 0 discriminator 1
		SLDW		*-AR14[7], R43
		SNOP		5
		SLDW		*-AR14[13], R42
		SNOP		5
		SLT		R43, R42, R42
		SMOV.M1		R42, R0
	[R0]	SBR		.L5
		SNOP		6
	.loc 1 19 0 is_stmt 1
		SMOVIL.L		.LC2, R10
		SMOVIH.L		.LC2, R10
		SMOVIH4.L		.LC2, R11
		SBR		puts
		SMOVIL		.L8, R62
		SMOVIH		.L8, R62
		SMOVIH4.L		.L8, R63
		SNOP		4
.L8:
	.loc 1 20 0
		SLDDW		*+AR15[7], R31:R30
		SNOP		5
		SLDDW		*+AR15[8], R63:R62
		SNOP		5
		SADDA.M1		-16,AR14,AR15
		SNOP		1
		SLDDW		*++AR15[2], R7:R6
		SNOP		5
		SMVAGA36.M1		R7:R6, AR14
		SNOP		1
		SMVCGC.L		R63, BRReg
		SNOP		1
		SBR		R62
		SNOP		6
	.cfi_endproc
.LFE3:
	.size	printMatrix, .-printMatrix
	.common	v_A,8,8
	.common	v_Q,8,8
	.common	v_R,8,8
	.common	v_u,8,8
	.common	v_b,8,8
	.common	v_y,8,8
	.common	v_x,8,8
	.common	A,65536,8
	.common	Q,65536,8
	.common	R,65536,8
	.common	inv_A,65536,8
	.common	u,512,8
	.common	b,512,8
	.common	y,512,8
	.common	x,512,8
	.section	.text.DSPF_sp_qrd_wrapper,"ax",@progbits
	.align	2
	.global	DSPF_sp_qrd_wrapper
	.type	DSPF_sp_qrd_wrapper, @function
DSPF_sp_qrd_wrapper:
.LFB4:
	.loc 1 43 0
	.cfi_startproc
		SMVAAGL.M1		AR14, R7:R6
		SNOP		1
		SMVAAGH.M1		AR14, R7:R6
		SNOP		1
		SSTDW		R7:R6, *AR15--[2]
.LCFI2:
	.cfi_def_cfa_offset 16
	.cfi_offset 14, 0
		SADDA.M1		16,AR15,AR14
.LCFI3:
	.cfi_def_cfa 14, 0
		SNOP		1
		SMOVIL		-72, R6
		SMOVIL		-1, R7
		SADDA.M1		R7:R6,AR15,AR15
		SNOP		1
		SSTDW		R63:R62, *+AR15[9]
	.cfi_offset 78, -16
	.cfi_offset 79, -12
		SSTDW		R11:R10, *-AR14[4]
		SSTDW		R13:R12, *-AR14[5]
		SSTW		R14, *-AR14[11]
		SSTW		R16, *-AR14[12]
		SSTDW		R19:R18, *-AR14[7]
		SSTDW		R21:R20, *-AR14[8]
		SSTDW		R23:R22, *-AR14[9]
		SSTDW		R25:R24, *-AR14[10]
	.loc 1 44 0
		SMOVIL		0, R10
		SBR		GetTimerCount
		SMOVIL		.L11, R62
		SMOVIH		.L11, R62
		SMOVIH4.L		.L11, R63
		SNOP		4
.L11:
		SMOV.M1		R10, R44
		SLDDW		*-AR14[4], R43:R42
		SNOP		5
		SMVAGA36.M1		R43:R42, AR10
		SNOP		1
		SSTW		R44, *AR10
	.loc 1 45 0
		SLDW		*-AR14[11], R10
		SNOP		5
		SLDW		*-AR14[12], R12
		SNOP		5
		SLDDW		*-AR14[7], R15:R14
		SNOP		5
		SLDDW		*-AR14[8], R17:R16
		SNOP		5
		SLDDW		*-AR14[9], R19:R18
		SNOP		5
		SLDDW		*-AR14[10], R21:R20
		SNOP		5
		SBR		trival_qr
		SMOVIL		.L12, R62
		SMOVIH		.L12, R62
		SMOVIH4.L		.L12, R63
		SNOP		4
.L12:
		SSTW		R10, *-AR14[5]
	.loc 1 46 0
		SMOVIL		0, R10
		SBR		GetTimerCount
		SMOVIL		.L13, R62
		SMOVIH		.L13, R62
		SMOVIH4.L		.L13, R63
		SNOP		4
.L13:
		SMOV.M1		R10, R44
		SLDDW		*-AR14[5], R43:R42
		SNOP		5
		SMVAGA36.M1		R43:R42, AR10
		SNOP		1
		SSTW		R44, *AR10
	.loc 1 47 0
		SLDW		*-AR14[5], R42
		SNOP		5
	.loc 1 48 0
		SMOV.M1		R42, R10
		SLDDW		*+AR15[9], R63:R62
		SNOP		5
		SADDA.M1		-16,AR14,AR15
		SNOP		1
		SLDDW		*++AR15[2], R7:R6
		SNOP		5
		SMVAGA36.M1		R7:R6, AR14
		SNOP		1
		SMVCGC.L		R63, BRReg
		SNOP		1
		SBR		R62
		SNOP		6
	.cfi_endproc
.LFE4:
	.size	DSPF_sp_qrd_wrapper, .-DSPF_sp_qrd_wrapper
	.section	.const,"a",@progbits
.LC3:
	.string	"x"
.LC4:
	.string	"y"
	.section	.text.DSPF_sp_qrd_solver_wrapper,"ax",@progbits
	.align	2
	.global	DSPF_sp_qrd_solver_wrapper
	.type	DSPF_sp_qrd_solver_wrapper, @function
DSPF_sp_qrd_solver_wrapper:
.LFB5:
	.loc 1 51 0
	.cfi_startproc
		SMVAAGL.M1		AR14, R7:R6
		SNOP		1
		SMVAAGH.M1		AR14, R7:R6
		SNOP		1
		SSTDW		R7:R6, *AR15--[2]
.LCFI4:
	.cfi_def_cfa_offset 16
	.cfi_offset 14, 0
		SADDA.M1		16,AR15,AR14
.LCFI5:
	.cfi_def_cfa 14, 0
		SNOP		1
		SMOVIL		-120, R6
		SMOVIL		-1, R7
		SADDA.M1		R7:R6,AR15,AR15
		SNOP		1
		SSTDW		R63:R62, *+AR15[15]
		SSTDW		R39:R38, *+AR15[14]
		SSTDW		R37:R36, *+AR15[13]
		SSTDW		R35:R34, *+AR15[12]
		SSTDW		R33:R32, *+AR15[11]
		SSTDW		R31:R30, *+AR15[10]
	.cfi_offset 78, -16
	.cfi_offset 79, -12
	.cfi_offset 54, -24
	.cfi_offset 55, -20
	.cfi_offset 52, -32
	.cfi_offset 53, -28
	.cfi_offset 50, -40
	.cfi_offset 51, -36
	.cfi_offset 48, -48
	.cfi_offset 49, -44
	.cfi_offset 46, -56
	.cfi_offset 47, -52
		SSTDW		R11:R10, *-AR14[9]
		SSTDW		R13:R12, *-AR14[10]
		SMOVIL		-84, R42
		SMOVIL		-1, R43
		SADDA.M1		R43:R42,AR14,AR10
		SNOP		1
		SSTW		R14, *AR10
		SMOVIL		-88, R42
		SMOVIL		-1, R43
		SADDA.M1		R43:R42,AR14,AR10
		SNOP		1
		SSTW		R16, *AR10
		SSTDW		R19:R18, *-AR14[12]
		SSTDW		R21:R20, *-AR14[13]
		SSTDW		R23:R22, *-AR14[14]
		SSTDW		R25:R24, *-AR14[15]
		SMOVIL		-128, R42
		SMOVIL		-1, R43
		SADDA.M1		R43:R42,AR14,AR10
		SNOP		1
		SSTDW		R27:R26, *AR10
	.loc 1 54 0
		SMOVIL.L		v_Q, R42
		SMOVIH.L		v_Q, R42
		SMOVIH4.L		v_Q, R43
		SMVAGA36.M1		R43:R42, AR10
		SNOP		1
		SLDDW		*AR10, R43:R42
		SNOP		5
		SMOVIL		-88, R44
		SMOVIL		-1, R45
		SADDA.M1		R45:R44,AR14,AR10
		SNOP		1
		SLDW		*AR10, R46
		SNOP		5
		SMOVIL		-88, R44
		SMOVIL		-1, R45
		SADDA.M1		R45:R44,AR14,AR10
		SNOP		1
		SLDW		*AR10, R48
		SNOP		5
		SSHFAR		31, R48, R48
		SMOV.M1		R48, R47
		SMOVIL		-84, R48
		SMOVIL		-1, R49
		SADDA.M1		R49:R48,AR14,AR10
		SNOP		1
		SLDW		*AR10, R44
		SNOP		5
		SMOVIL		-84, R48
		SMOVIL		-1, R49
		SADDA.M1		R49:R48,AR14,AR10
		SNOP		1
		SLDW		*AR10, R47
		SNOP		5
		SSHFAR		31, R47, R47
		SMOV.M1		R47, R45
		SMULIS.M1		R44,R46,R44
		SNOP		2
		SSHFLL		2, R44, R44
		SLDDW		*-AR14[12], R11:R10
		SNOP		5
		SMVAGA36.M1		R43:R42, OR11
		SNOP		1
		SMVAAGL.M1		OR11, R13:R12
		SNOP		1
		SMVAAGH.M1		OR11, R13:R12
		SNOP		1
		SMOV.M1		R44, R14
		SBR		M7002_datatrans
		SMOVIL		.L16, R62
		SMOVIH		.L16, R62
		SMOVIH4.L		.L16, R63
		SNOP		4
.L16:
	.loc 1 55 0
		SMOVIL.L		v_R, R42
		SMOVIH.L		v_R, R42
		SMOVIH4.L		v_R, R43
		SMVAGA36.M1		R43:R42, AR10
		SNOP		1
		SLDDW		*AR10, R43:R42
		SNOP		5
		SMOVIL		-88, R44
		SMOVIL		-1, R45
		SADDA.M1		R45:R44,AR14,AR10
		SNOP		1
		SLDW		*AR10, R38
		SNOP		5
		SMOVIL		-88, R46
		SMOVIL		-1, R47
		SADDA.M1		R47:R46,AR14,AR10
		SNOP		1
		SLDW		*AR10, R44
		SNOP		5
		SSHFAR		31, R44, R44
		SMOV.M1		R44, R39
		SMOV.M1		R38, R45
		SMOVIL		-84, R46
		SMOVIL		-1, R47
		SADDA.M1		R47:R46,AR14,AR10
		SNOP		1
		SLDW		*AR10, R36
		SNOP		5
		SMOVIL		-84, R46
		SMOVIL		-1, R47
		SADDA.M1		R47:R46,AR14,AR10
		SNOP		1
		SLDW		*AR10, R44
		SNOP		5
		SSHFAR		31, R44, R44
		SMOV.M1		R44, R37
		SMOV.M1		R36, R44
		SMULIS.M1		R44,R45,R44
		SNOP		2
		SSHFLL		2, R44, R44
		SLDDW		*-AR14[13], R11:R10
		SNOP		5
		SMVAGA36.M1		R43:R42, OR11
		SNOP		1
		SMVAAGL.M1		OR11, R13:R12
		SNOP		1
		SMVAAGH.M1		OR11, R13:R12
		SNOP		1
		SMOV.M1		R44, R14
		SBR		M7002_datatrans
		SMOVIL		.L17, R62
		SMOVIH		.L17, R62
		SMOVIH4.L		.L17, R63
		SNOP		4
.L17:
	.loc 1 56 0
		SMOVIL.L		v_b, R42
		SMOVIH.L		v_b, R42
		SMOVIH4.L		v_b, R43
		SMVAGA36.M1		R43:R42, AR10
		SNOP		1
		SLDDW		*AR10, R43:R42
		SNOP		5
		SMOVIL		-84, R44
		SMOVIL		-1, R45
		SADDA.M1		R45:R44,AR14,AR10
		SNOP		1
		SLDW		*AR10, R34
		SNOP		5
		SMOVIL		-84, R46
		SMOVIL		-1, R47
		SADDA.M1		R47:R46,AR14,AR10
		SNOP		1
		SLDW		*AR10, R44
		SNOP		5
		SSHFAR		31, R44, R44
		SMOV.M1		R44, R35
		SMOV.M1		R34, R44
		SSHFLL		2, R44, R44
		SLDDW		*-AR14[14], R11:R10
		SNOP		5
		SMVAGA36.M1		R43:R42, OR11
		SNOP		1
		SMVAAGL.M1		OR11, R13:R12
		SNOP		1
		SMVAAGH.M1		OR11, R13:R12
		SNOP		1
		SMOV.M1		R44, R14
		SBR		M7002_datatrans
		SMOVIL		.L18, R62
		SMOVIH		.L18, R62
		SMOVIH4.L		.L18, R63
		SNOP		4
.L18:
	.loc 1 58 0
		SMOVIL		0, R10
		SBR		GetTimerCount
		SMOVIL		.L19, R62
		SMOVIH		.L19, R62
		SMOVIH4.L		.L19, R63
		SNOP		4
.L19:
		SMOV.M1		R10, R44
		SLDDW		*-AR14[9], R43:R42
		SNOP		5
		SMVAGA36.M1		R43:R42, AR10
		SNOP		1
		SSTW		R44, *AR10
	.loc 1 59 0
		SMOVIL.L		v_Q, R42
		SMOVIH.L		v_Q, R42
		SMOVIH4.L		v_Q, R43
		SMVAGA36.M1		R43:R42, AR10
		SNOP		1
		SLDDW		*AR10, R51:R50
		SNOP		5
		SMOVIL.L		v_R, R42
		SMOVIH.L		v_R, R42
		SMOVIH4.L		v_R, R43
		SMVAGA36.M1		R43:R42, AR10
		SNOP		1
		SLDDW		*AR10, R49:R48
		SNOP		5
		SMOVIL.L		v_b, R42
		SMOVIH.L		v_b, R42
		SMOVIH4.L		v_b, R43
		SMVAGA36.M1		R43:R42, AR10
		SNOP		1
		SLDDW		*AR10, R47:R46
		SNOP		5
		SMOVIL.L		v_y, R42
		SMOVIH.L		v_y, R42
		SMOVIH4.L		v_y, R43
		SMVAGA36.M1		R43:R42, AR10
		SNOP		1
		SLDDW		*AR10, R45:R44
		SNOP		5
		SMOVIL.L		v_x, R42
		SMOVIH.L		v_x, R42
		SMOVIH4.L		v_x, R43
		SMVAGA36.M1		R43:R42, AR10
		SNOP		1
		SLDDW		*AR10, R43:R42
		SNOP		5
		SMOVIL		-84, R52
		SMOVIL		-1, R53
		SADDA.M1		R53:R52,AR14,AR10
		SNOP		1
		SLDW		*AR10, R10
		SNOP		5
		SMOVIL		-88, R52
		SMOVIL		-1, R53
		SADDA.M1		R53:R52,AR14,AR10
		SNOP		1
		SLDW		*AR10, R12
		SNOP		5
		SMVAGA36.M1		R51:R50, OR11
		SNOP		1
		SMVAAGL.M1		OR11, R15:R14
		SNOP		1
		SMVAAGH.M1		OR11, R15:R14
		SNOP		1
		SMVAGA36.M1		R49:R48, OR11
		SNOP		1
		SMVAAGL.M1		OR11, R17:R16
		SNOP		1
		SMVAAGH.M1		OR11, R17:R16
		SNOP		1
		SMVAGA36.M1		R47:R46, OR11
		SNOP		1
		SMVAAGL.M1		OR11, R19:R18
		SNOP		1
		SMVAAGH.M1		OR11, R19:R18
		SNOP		1
		SMVAGA36.M1		R45:R44, OR11
		SNOP		1
		SMVAAGL.M1		OR11, R21:R20
		SNOP		1
		SMVAAGH.M1		OR11, R21:R20
		SNOP		1
		SMVAGA36.M1		R43:R42, OR11
		SNOP		1
		SMVAAGL.M1		OR11, R23:R22
		SNOP		1
		SMVAAGH.M1		OR11, R23:R22
		SNOP		1
		SBR		DSPF_sp_qrd_solver7
		SMOVIL		.L20, R62
		SMOVIH		.L20, R62
		SMOVIH4.L		.L20, R63
		SNOP		4
.L20:
		SSTW		R10, *-AR14[15]
	.loc 1 60 0
		SMOVIL		0, R10
		SBR		GetTimerCount
		SMOVIL		.L21, R62
		SMOVIH		.L21, R62
		SMOVIH4.L		.L21, R63
		SNOP		4
.L21:
		SMOV.M1		R10, R44
		SLDDW		*-AR14[10], R43:R42
		SNOP		5
		SMVAGA36.M1		R43:R42, AR10
		SNOP		1
		SSTW		R44, *AR10
	.loc 1 61 0
		SMOVIL.L		v_x, R42
		SMOVIH.L		v_x, R42
		SMOVIH4.L		v_x, R43
		SMVAGA36.M1		R43:R42, AR10
		SNOP		1
		SLDDW		*AR10, R43:R42
		SNOP		5
		SMOVIL		-88, R44
		SMOVIL		-1, R45
		SADDA.M1		R45:R44,AR14,AR10
		SNOP		1
		SLDW		*AR10, R32
		SNOP		5
		SMOVIL		-88, R46
		SMOVIL		-1, R47
		SADDA.M1		R47:R46,AR14,AR10
		SNOP		1
		SLDW		*AR10, R44
		SNOP		5
		SSHFAR		31, R44, R44
		SMOV.M1		R44, R33
		SMOV.M1		R32, R44
		SSHFLL		2, R44, R44
		SMVAGA36.M1		R43:R42, OR11
		SNOP		1
		SMVAAGL.M1		OR11, R11:R10
		SNOP		1
		SMVAAGH.M1		OR11, R11:R10
		SNOP		1
		SMOVIL		-128, R42
		SMOVIL		-1, R43
		SADDA.M1		R43:R42,AR14,AR10
		SNOP		1
		SLDDW		*AR10, R13:R12
		SNOP		5
		SMOV.M1		R44, R14
		SBR		M7002_datatrans
		SMOVIL		.L22, R62
		SMOVIH		.L22, R62
		SMOVIH4.L		.L22, R63
		SNOP		4
.L22:
	.loc 1 62 0
		SMOVIL.L		v_y, R42
		SMOVIH.L		v_y, R42
		SMOVIH4.L		v_y, R43
		SMVAGA36.M1		R43:R42, AR10
		SNOP		1
		SLDDW		*AR10, R43:R42
		SNOP		5
		SMOVIL		-84, R44
		SMOVIL		-1, R45
		SADDA.M1		R45:R44,AR14,AR10
		SNOP		1
		SLDW		*AR10, R30
		SNOP		5
		SMOVIL		-84, R46
		SMOVIL		-1, R47
		SADDA.M1		R47:R46,AR14,AR10
		SNOP		1
		SLDW		*AR10, R44
		SNOP		5
		SSHFAR		31, R44, R44
		SMOV.M1		R44, R31
		SMOV.M1		R30, R44
		SSHFLL		2, R44, R44
		SMVAGA36.M1		R43:R42, OR11
		SNOP		1
		SMVAAGL.M1		OR11, R11:R10
		SNOP		1
		SMVAAGH.M1		OR11, R11:R10
		SNOP		1
		SLDDW		*-AR14[15], R13:R12
		SNOP		5
		SMOV.M1		R44, R14
		SBR		M7002_datatrans
		SMOVIL		.L23, R62
		SMOVIH		.L23, R62
		SMOVIH4.L		.L23, R63
		SNOP		4
.L23:
	.loc 1 63 0
		SMOVIL		-128, R42
		SMOVIL		-1, R43
		SADDA.M1		R43:R42,AR14,AR10
		SNOP		1
		SLDDW		*AR10, R11:R10
		SNOP		5
		SMOVIL.L		.LC3, R12
		SMOVIH.L		.LC3, R12
		SMOVIH4.L		.LC3, R13
		SMOVIL		1, R14
		SMOVIL		-88, R42
		SMOVIL		-1, R43
		SADDA.M1		R43:R42,AR14,AR10
		SNOP		1
		SLDW		*AR10, R16
		SNOP		5
		SBR		printMatrix
		SMOVIL		.L24, R62
		SMOVIH		.L24, R62
		SMOVIH4.L		.L24, R63
		SNOP		4
.L24:
	.loc 1 64 0
		SLDDW		*-AR14[15], R11:R10
		SNOP		5
		SMOVIL.L		.LC4, R12
		SMOVIH.L		.LC4, R12
		SMOVIH4.L		.LC4, R13
		SMOVIL		1, R14
		SMOVIL		-84, R42
		SMOVIL		-1, R43
		SADDA.M1		R43:R42,AR14,AR10
		SNOP		1
		SLDW		*AR10, R16
		SNOP		5
		SBR		printMatrix
		SMOVIL		.L25, R62
		SMOVIH		.L25, R62
		SMOVIH4.L		.L25, R63
		SNOP		4
.L25:
	.loc 1 68 0
		SMOVIL		-84, R42
		SMOVIL		-1, R43
		SADDA.M1		R43:R42,AR14,AR10
		SNOP		1
		SLDW		*AR10, R10
		SNOP		5
		SMOVIL		-88, R42
		SMOVIL		-1, R43
		SADDA.M1		R43:R42,AR14,AR10
		SNOP		1
		SLDW		*AR10, R12
		SNOP		5
		SLDDW		*-AR14[12], R15:R14
		SNOP		5
		SLDDW		*-AR14[13], R17:R16
		SNOP		5
		SLDDW		*-AR14[14], R19:R18
		SNOP		5
		SLDDW		*-AR14[15], R21:R20
		SNOP		5
		SMOVIL		-128, R42
		SMOVIL		-1, R43
		SADDA.M1		R43:R42,AR14,AR10
		SNOP		1
		SLDDW		*AR10, R23:R22
		SNOP		5
		SBR		trival_qr_solver
		SMOVIL		.L26, R62
		SMOVIH		.L26, R62
		SMOVIH4.L		.L26, R63
		SNOP		4
.L26:
		SSTW		R10, *-AR14[15]
	.loc 1 69 0
		SMOVIL		-128, R42
		SMOVIL		-1, R43
		SADDA.M1		R43:R42,AR14,AR10
		SNOP		1
		SLDDW		*AR10, R11:R10
		SNOP		5
		SMOVIL.L		.LC3, R12
		SMOVIH.L		.LC3, R12
		SMOVIH4.L		.LC3, R13
		SMOVIL		1, R14
		SMOVIL		-88, R42
		SMOVIL		-1, R43
		SADDA.M1		R43:R42,AR14,AR10
		SNOP		1
		SLDW		*AR10, R16
		SNOP		5
		SBR		printMatrix
		SMOVIL		.L27, R62
		SMOVIH		.L27, R62
		SMOVIH4.L		.L27, R63
		SNOP		4
.L27:
	.loc 1 70 0
		SLDDW		*-AR14[15], R11:R10
		SNOP		5
		SMOVIL.L		.LC4, R12
		SMOVIH.L		.LC4, R12
		SMOVIH4.L		.LC4, R13
		SMOVIL		1, R14
		SMOVIL		-84, R42
		SMOVIL		-1, R43
		SADDA.M1		R43:R42,AR14,AR10
		SNOP		1
		SLDW		*AR10, R16
		SNOP		5
		SBR		printMatrix
		SMOVIL		.L28, R62
		SMOVIH		.L28, R62
		SMOVIH4.L		.L28, R63
		SNOP		4
.L28:
	.loc 1 73 0
		SLDW		*-AR14[15], R42
		SNOP		5
	.loc 1 74 0
		SMOV.M1		R42, R10
		SLDDW		*+AR15[10], R31:R30
		SNOP		5
		SLDDW		*+AR15[11], R33:R32
		SNOP		5
		SLDDW		*+AR15[12], R35:R34
		SNOP		5
		SLDDW		*+AR15[13], R37:R36
		SNOP		5
		SLDDW		*+AR15[14], R39:R38
		SNOP		5
		SLDDW		*+AR15[15], R63:R62
		SNOP		5
		SADDA.M1		-16,AR14,AR15
		SNOP		1
		SLDDW		*++AR15[2], R7:R6
		SNOP		5
		SMVAGA36.M1		R7:R6, AR14
		SNOP		1
		SMVCGC.L		R63, BRReg
		SNOP		1
		SBR		R62
		SNOP		6
	.cfi_endproc
.LFE5:
	.size	DSPF_sp_qrd_solver_wrapper, .-DSPF_sp_qrd_solver_wrapper
	.section	.text.DSPF_sp_qrd_inverse_wrapper,"ax",@progbits
	.align	2
	.global	DSPF_sp_qrd_inverse_wrapper
	.type	DSPF_sp_qrd_inverse_wrapper, @function
DSPF_sp_qrd_inverse_wrapper:
.LFB6:
	.loc 1 76 0
	.cfi_startproc
		SMVAAGL.M1		AR14, R7:R6
		SNOP		1
		SMVAAGH.M1		AR14, R7:R6
		SNOP		1
		SSTDW		R7:R6, *AR15--[2]
.LCFI6:
	.cfi_def_cfa_offset 16
	.cfi_offset 14, 0
		SADDA.M1		16,AR15,AR14
.LCFI7:
	.cfi_def_cfa 14, 0
		SNOP		1
		SMOVIL		-64, R6
		SMOVIL		-1, R7
		SADDA.M1		R7:R6,AR15,AR15
		SNOP		1
		SSTDW		R63:R62, *+AR15[8]
	.cfi_offset 78, -16
	.cfi_offset 79, -12
		SSTDW		R11:R10, *-AR14[4]
		SSTDW		R13:R12, *-AR14[5]
		SSTW		R14, *-AR14[11]
		SSTW		R16, *-AR14[12]
		SSTDW		R19:R18, *-AR14[7]
		SSTDW		R21:R20, *-AR14[8]
		SSTDW		R23:R22, *-AR14[9]
	.loc 1 77 0
		SMOVIL		0, R10
		SBR		GetTimerCount
		SMOVIL		.L31, R62
		SMOVIH		.L31, R62
		SMOVIH4.L		.L31, R63
		SNOP		4
.L31:
		SMOV.M1		R10, R44
		SLDDW		*-AR14[4], R43:R42
		SNOP		5
		SMVAGA36.M1		R43:R42, AR10
		SNOP		1
		SSTW		R44, *AR10
	.loc 1 78 0
		SLDW		*-AR14[11], R10
		SNOP		5
		SLDW		*-AR14[12], R12
		SNOP		5
		SLDDW		*-AR14[7], R15:R14
		SNOP		5
		SLDDW		*-AR14[8], R17:R16
		SNOP		5
		SLDDW		*-AR14[9], R19:R18
		SNOP		5
		SBR		trival_inverse
		SMOVIL		.L32, R62
		SMOVIH		.L32, R62
		SMOVIH4.L		.L32, R63
		SNOP		4
.L32:
		SSTW		R10, *-AR14[5]
	.loc 1 79 0
		SMOVIL		0, R10
		SBR		GetTimerCount
		SMOVIL		.L33, R62
		SMOVIH		.L33, R62
		SMOVIH4.L		.L33, R63
		SNOP		4
.L33:
		SMOV.M1		R10, R44
		SLDDW		*-AR14[5], R43:R42
		SNOP		5
		SMVAGA36.M1		R43:R42, AR10
		SNOP		1
		SSTW		R44, *AR10
	.loc 1 80 0
		SLDW		*-AR14[5], R42
		SNOP		5
	.loc 1 81 0
		SMOV.M1		R42, R10
		SLDDW		*+AR15[8], R63:R62
		SNOP		5
		SADDA.M1		-16,AR14,AR15
		SNOP		1
		SLDDW		*++AR15[2], R7:R6
		SNOP		5
		SMVAGA36.M1		R7:R6, AR14
		SNOP		1
		SMVCGC.L		R63, BRReg
		SNOP		1
		SBR		R62
		SNOP		6
	.cfi_endproc
.LFE6:
	.size	DSPF_sp_qrd_inverse_wrapper, .-DSPF_sp_qrd_inverse_wrapper
	.section	.text.main,"ax",@progbits
	.align	2
	.global	main
	.type	main, @function
main:
.LFB7:
	.loc 1 85 0
	.cfi_startproc
		SMVAAGL.M1		AR14, R7:R6
		SNOP		1
		SMVAAGH.M1		AR14, R7:R6
		SNOP		1
		SSTDW		R7:R6, *AR15--[2]
.LCFI8:
	.cfi_def_cfa_offset 16
	.cfi_offset 14, 0
		SADDA.M1		16,AR15,AR14
.LCFI9:
	.cfi_def_cfa 14, 0
		SNOP		1
		SMOVIL		-32, R6
		SMOVIL		-1, R7
		SADDA.M1		R7:R6,AR15,AR15
		SNOP		1
		SSTDW		R63:R62, *+AR15[4]
	.cfi_offset 78, -16
	.cfi_offset 79, -12
	.loc 1 86 0
		SMOVIL		1075052548, R42
		SMOVIH		1075052548, R42
		SMOVIL		0, R43
		SSTDW		R43:R42, *-AR14[3]
	.loc 1 87 0
		SMOVIL		1075052544, R42
		SMOVIH		1075052544, R42
		SMOVIL		0, R43
		SSTDW		R43:R42, *-AR14[4]
	.loc 1 89 0
		SLDDW		*-AR14[3], R43:R42
		SNOP		5
		SMOVIL		1, R44
		SMVAGA36.M1		R43:R42, AR10
		SNOP		1
		SSTW		R44, *AR10
	.loc 1 90 0
		SLDDW		*-AR14[4], R43:R42
		SNOP		5
		SMOVIL		1, R44
		SMVAGA36.M1		R43:R42, AR10
		SNOP		1
		SSTW		R44, *AR10
	.loc 1 91 0
		SLDDW		*-AR14[4], R43:R42
		SNOP		5
		SMVAGA36.M1		R43:R42, AR10
		SNOP		1
		SLDW		*AR10, R42
		SNOP		5
		SSTW		R42, *-AR14[9]
	.loc 1 92 0
		SBR		.L35
		SNOP		6
.L36:
	.loc 1 93 0
		SLDDW		*-AR14[4], R43:R42
		SNOP		5
		SMVAGA36.M1		R43:R42, AR10
		SNOP		1
		SLDW		*AR10, R42
		SNOP		5
		SSTW		R42, *-AR14[9]
.L35:
	.loc 1 92 0 discriminator 1
		SLDW		*-AR14[9], R42
		SNOP		5
		SMOV.M1		R42, R0
	[R0]	SBR		.L36
		SNOP		6
	.loc 1 95 0
		SMOVIL		0, R10
		SMOVIL		-1, R12
		SBR		SetTimerPeriod
		SMOVIL		.L37, R62
		SMOVIH		.L37, R62
		SMOVIH4.L		.L37, R63
		SNOP		4
.L37:
	.loc 1 96 0
		SMOVIL		0, R10
		SBR		TimerStart
		SMOVIL		.L38, R62
		SMOVIH		.L38, R62
		SMOVIH4.L		.L38, R63
		SNOP		4
.L38:
	.loc 1 98 0
		SMOVIL.L		v_A, R44
		SMOVIH.L		v_A, R44
		SMOVIH4.L		v_A, R45
		SMOVIL		1073741824, R42
		SMOVIH		1073741824, R42
		SMOVIL		0, R43
		SMVAGA36.M1		R45:R44, AR10
		SNOP		1
		SSTDW		R43:R42, *AR10
	.loc 1 99 0
		SMOVIL.L		v_A, R42
		SMOVIH.L		v_A, R42
		SMOVIH4.L		v_A, R43
		SMVAGA36.M1		R43:R42, AR10
		SNOP		1
		SLDDW		*AR10, R45:R44
		SNOP		5
		SMOVIL		71936, R42
		SMOVIH		71936, R42
		SMOVIL		0, R43
		SMVAGA36.M1		R45:R44, OR11
		SNOP		1
		SADDA.M1		R43:R42,OR11,OR11
		SNOP		1
		SMVAAGL.M1		OR11, R45:R44
		SNOP		1
		SMVAAGH.M1		OR11, R45:R44
		SNOP		1
		SMOVIL.L		v_Q, R42
		SMOVIH.L		v_Q, R42
		SMOVIH4.L		v_Q, R43
		SMVAGA36.M1		R43:R42, AR10
		SNOP		1
		SSTDW		R45:R44, *AR10
	.loc 1 100 0
		SMOVIL.L		v_Q, R42
		SMOVIH.L		v_Q, R42
		SMOVIH4.L		v_Q, R43
		SMVAGA36.M1		R43:R42, AR10
		SNOP		1
		SLDDW		*AR10, R45:R44
		SNOP		5
		SMOVIL		71936, R42
		SMOVIH		71936, R42
		SMOVIL		0, R43
		SMVAGA36.M1		R45:R44, OR11
		SNOP		1
		SADDA.M1		R43:R42,OR11,OR11
		SNOP		1
		SMVAAGL.M1		OR11, R45:R44
		SNOP		1
		SMVAAGH.M1		OR11, R45:R44
		SNOP		1
		SMOVIL.L		v_R, R42
		SMOVIH.L		v_R, R42
		SMOVIH4.L		v_R, R43
		SMVAGA36.M1		R43:R42, AR10
		SNOP		1
		SSTDW		R45:R44, *AR10
	.loc 1 101 0
		SMOVIL.L		v_R, R42
		SMOVIH.L		v_R, R42
		SMOVIH4.L		v_R, R43
		SMVAGA36.M1		R43:R42, AR10
		SNOP		1
		SLDDW		*AR10, R45:R44
		SNOP		5
		SMOVIL		6912, R42
		SMOVIL		0, R43
		SMVAGA36.M1		R45:R44, OR11
		SNOP		1
		SADDA.M1		R43:R42,OR11,OR11
		SNOP		1
		SMVAAGL.M1		OR11, R45:R44
		SNOP		1
		SMVAAGH.M1		OR11, R45:R44
		SNOP		1
		SMOVIL.L		v_u, R42
		SMOVIH.L		v_u, R42
		SMOVIH4.L		v_u, R43
		SMVAGA36.M1		R43:R42, AR10
		SNOP		1
		SSTDW		R45:R44, *AR10
	.loc 1 102 0
		SMOVIL.L		v_u, R42
		SMOVIH.L		v_u, R42
		SMOVIH4.L		v_u, R43
		SMVAGA36.M1		R43:R42, AR10
		SNOP		1
		SLDDW		*AR10, R45:R44
		SNOP		5
		SMOVIL		6912, R42
		SMOVIL		0, R43
		SMVAGA36.M1		R45:R44, OR11
		SNOP		1
		SADDA.M1		R43:R42,OR11,OR11
		SNOP		1
		SMVAAGL.M1		OR11, R45:R44
		SNOP		1
		SMVAAGH.M1		OR11, R45:R44
		SNOP		1
		SMOVIL.L		v_b, R42
		SMOVIH.L		v_b, R42
		SMOVIH4.L		v_b, R43
		SMVAGA36.M1		R43:R42, AR10
		SNOP		1
		SSTDW		R45:R44, *AR10
	.loc 1 103 0
		SMOVIL.L		v_b, R42
		SMOVIH.L		v_b, R42
		SMOVIH4.L		v_b, R43
		SMVAGA36.M1		R43:R42, AR10
		SNOP		1
		SLDDW		*AR10, R45:R44
		SNOP		5
		SMOVIL		6912, R42
		SMOVIL		0, R43
		SMVAGA36.M1		R45:R44, OR11
		SNOP		1
		SADDA.M1		R43:R42,OR11,OR11
		SNOP		1
		SMVAAGL.M1		OR11, R45:R44
		SNOP		1
		SMVAAGH.M1		OR11, R45:R44
		SNOP		1
		SMOVIL.L		v_y, R42
		SMOVIH.L		v_y, R42
		SMOVIH4.L		v_y, R43
		SMVAGA36.M1		R43:R42, AR10
		SNOP		1
		SSTDW		R45:R44, *AR10
	.loc 1 104 0
		SMOVIL.L		v_y, R42
		SMOVIH.L		v_y, R42
		SMOVIH4.L		v_y, R43
		SMVAGA36.M1		R43:R42, AR10
		SNOP		1
		SLDDW		*AR10, R45:R44
		SNOP		5
		SMOVIL		6912, R42
		SMOVIL		0, R43
		SMVAGA36.M1		R45:R44, OR11
		SNOP		1
		SADDA.M1		R43:R42,OR11,OR11
		SNOP		1
		SMVAAGL.M1		OR11, R45:R44
		SNOP		1
		SMVAAGH.M1		OR11, R45:R44
		SNOP		1
		SMOVIL.L		v_x, R42
		SMOVIH.L		v_x, R42
		SMOVIH4.L		v_x, R43
		SMVAGA36.M1		R43:R42, AR10
		SNOP		1
		SSTDW		R45:R44, *AR10
	.loc 1 106 0
		SBR		testQr
		SMOVIL		.L39, R62
		SMOVIH		.L39, R62
		SMOVIH4.L		.L39, R63
		SNOP		4
.L39:
	.loc 1 108 0
		SLDDW		*+AR15[4], R63:R62
		SNOP		5
		SADDA.M1		-16,AR14,AR15
		SNOP		1
		SLDDW		*++AR15[2], R7:R6
		SNOP		5
		SMVAGA36.M1		R7:R6, AR14
		SNOP		1
		SMVCGC.L		R63, BRReg
		SNOP		1
		SBR		R62
		SNOP		6
	.cfi_endproc
.LFE7:
	.size	main, .-main
	.section	.const,"a",@progbits
.LC5:
	.string	"DSPF_dp_qrd\tIter#: %d\t"
.LC6:
	.string	"QR decomposition failed!"
.LC7:
	.string	"natural decomposition fails error=%e\n"
.LC8:
	.string	"solver failed!"
.LC9:
	.string	"natural A*x is not equal to b! error=%e\n"
.LC10:
	.string	"natural inv(A)*A is not equal to identity!  error=%e\n"
.LC11:
	.string	"Successful"
.LC12:
	.string	"\torder=%2dx%2d, \tqr: %d, \tslover: %d, \tinverse: %d, \n"
.LC13:
	.string	"vector Result Failure\n"
	.section	.text.testQr,"ax",@progbits
	.align	2
	.global	testQr
	.type	testQr, @function
testQr:
.LFB8:
	.loc 1 110 0
	.cfi_startproc
		SMVAAGL.M1		AR14, R7:R6
		SNOP		1
		SMVAAGH.M1		AR14, R7:R6
		SNOP		1
		SSTDW		R7:R6, *AR15--[2]
.LCFI10:
	.cfi_def_cfa_offset 16
	.cfi_offset 14, 0
		SADDA.M1		16,AR15,AR14
.LCFI11:
	.cfi_def_cfa 14, 0
		SNOP		1
		SMOVIL		-288, R6
		SMOVIL		-1, R7
		SADDA.M1		R7:R6,AR15,AR15
		SNOP		1
		SSTDW		R63:R62, *+AR15[36]
		SMVAAGL.M1		AR8, R7:R6
		SNOP		1
		SMVAAGH.M1		AR8, R7:R6
		SNOP		1
		SSTDW		R7:R6, *+AR15[35]
		SSTDW		R41:R40, *+AR15[34]
		SSTDW		R39:R38, *+AR15[33]
		SSTDW		R37:R36, *+AR15[32]
		SSTDW		R35:R34, *+AR15[31]
		SSTDW		R33:R32, *+AR15[30]
		SSTDW		R31:R30, *+AR15[29]
	.cfi_offset 78, -16
	.cfi_offset 79, -12
	.cfi_offset 8, -24
	.cfi_offset 56, -32
	.cfi_offset 57, -28
	.cfi_offset 54, -40
	.cfi_offset 55, -36
	.cfi_offset 52, -48
	.cfi_offset 53, -44
	.cfi_offset 50, -56
	.cfi_offset 51, -52
	.cfi_offset 48, -64
	.cfi_offset 49, -60
	.cfi_offset 46, -72
	.cfi_offset 47, -68
	.loc 1 122 0
		SMOVIL		1, R42
		SMOVIL		-88, R44
		SMOVIL		-1, R45
		SADDA.M1		R45:R44,AR14,AR10
		SNOP		1
		SSTW		R42, *AR10
		SMOVIL		1, R42
		SMOVIL		-112, R44
		SMOVIL		-1, R45
		SADDA.M1		R45:R44,AR14,AR10
		SNOP		1
		SSTW		R42, *AR10
	.loc 1 124 0
		SMOVIL		1065353216, R42
		SMOVIH		1065353216, R42
		SMOVIL		-124, R44
		SMOVIL		-1, R45
		SADDA.M1		R45:R44,AR14,AR10
		SNOP		1
		SSTW		R42, *AR10
	.loc 1 125 0
		SMOVIL		1092616192, R42
		SMOVIH		1092616192, R42
		SMOVIL		-128, R44
		SMOVIL		-1, R45
		SADDA.M1		R45:R44,AR14,AR10
		SNOP		1
		SSTW		R42, *AR10
	.loc 1 126 0
		SMOVIL		1109393408, R42
		SMOVIH		1109393408, R42
		SMOVIL		-132, R44
		SMOVIL		-1, R45
		SADDA.M1		R45:R44,AR14,AR10
		SNOP		1
		SSTW		R42, *AR10
	.loc 1 127 0
		SMOVIL		-64, R42
		SMOVIL		-1, R43
		SMOVIL		-72, R44
		SMOVIL		-1, R45
		SADDA.M1		R45:R44,AR14,OR11
		SNOP		1
		SADDA.M1		R43:R42,OR11,OR11
		SNOP		1
		SMVAAGL.M1		OR11, R43:R42
		SNOP		1
		SMVAAGH.M1		OR11, R43:R42
		SNOP		1
		SMOVIL		1109393408, R44
		SMOVIH		1109393408, R44
		SMVAGA36.M1		R43:R42, AR10
		SNOP		1
		SSTW		R44, *AR10
	.loc 1 133 0
		SMOVIL		1, R42
		SMOVIL		-84, R44
		SMOVIL		-1, R45
		SADDA.M1		R45:R44,AR14,AR10
		SNOP		1
		SSTW		R42, *AR10
		SBR		.L41
		SNOP		6
.L106:
	.loc 1 134 0
		SMOVIL.L		.LC5, R42
		SMOVIH.L		.LC5, R42
		SMOVIH4.L		.LC5, R43
		SSTDW		R43:R42, *+AR15[1]
		SMOVIL		-84, R44
		SMOVIL		-1, R45
		SADDA.M1		R45:R44,AR14,AR10
		SNOP		1
		SLDW		*AR10, R42
		SNOP		5
		SSTW		R42, *+AR15[4]
		SBR		printf
		SMOVIL		.L115, R62
		SMOVIH		.L115, R62
		SMOVIH4.L		.L115, R63
		SNOP		4
.L115:
	.loc 1 135 0
		SMOVIL		-84, R44
		SMOVIL		-1, R45
		SADDA.M1		R45:R44,AR14,AR10
		SNOP		1
		SLDW		*AR10, R42
		SNOP		5
		SMOVIL		2, R0
		SEQ		R0, R42, R43
		SMOV.M1		R43, R0
	[R0]	SBR		.L44
		SNOP		6
		SMOVIL		3, R44
		SEQ		R44, R42, R43
		SMOV.M1		R43, R0
	[R0]	SBR		.L45
		SNOP		6
		SMOVIL		1, R43
		SEQ		R43, R42, R42
		SMOV.M1		R42, R0
	[!R0]	SBR		.L42
		SNOP		6
.L43:
	.loc 1 137 0
		SMOVIL		16, R42
		SMOVIL		-116, R44
		SMOVIL		-1, R45
		SADDA.M1		R45:R44,AR14,AR10
		SNOP		1
		SSTW		R42, *AR10
	.loc 1 138 0
		SMOVIL		16, R42
		SMOVIL		-120, R44
		SMOVIL		-1, R45
		SADDA.M1		R45:R44,AR14,AR10
		SNOP		1
		SSTW		R42, *AR10
	.loc 1 139 0
		SMOVIL		0, R10
		SBR		srand
		SMOVIL		.L116, R62
		SMOVIH		.L116, R62
		SMOVIH4.L		.L116, R63
		SNOP		4
.L116:
	.loc 1 140 0
		SMOVIL		0, R42
		SMOVIL		-100, R44
		SMOVIL		-1, R45
		SADDA.M1		R45:R44,AR14,AR10
		SNOP		1
		SSTW		R42, *AR10
		SBR		.L46
		SNOP		6
.L49:
	.loc 1 142 0
		SMOVIL		0, R42
		SMOVIL		-104, R44
		SMOVIL		-1, R45
		SADDA.M1		R45:R44,AR14,AR10
		SNOP		1
		SSTW		R42, *AR10
		SBR		.L47
		SNOP		6
.L48:
	.loc 1 144 0 discriminator 2
		SMOVIL		-100, R44
		SMOVIL		-1, R45
		SADDA.M1		R45:R44,AR14,AR10
		SNOP		1
		SLDW		*AR10, R43
		SNOP		5
		SMOVIL		-120, R44
		SMOVIL		-1, R45
		SADDA.M1		R45:R44,AR14,AR10
		SNOP		1
		SLDW		*AR10, R42
		SNOP		5
		SMULIS.M1		R42,R43,R43
		SNOP		2
		SMOVIL		-104, R44
		SMOVIL		-1, R45
		SADDA.M1		R45:R44,AR14,AR10
		SNOP		1
		SLDW		*AR10, R42
		SNOP		5
		SADD.M1		R42,R43,R46
		SMOVIL		-164, R44
		SMOVIL		-1, R45
		SADDA.M1		R45:R44,AR14,AR10
		SNOP		1
		SSTW		R46, *AR10
		SBR		rand
		SMOVIL		.L117, R62
		SMOVIH		.L117, R62
		SMOVIH4.L		.L117, R63
		SNOP		4
.L117:
		SMOV.M1		R10, R42
		SFINTS32.M1		R42,R43
		SNOP		2
		SMOVIL		973082626, R42
		SMOVIH		973082626, R42
		SFMULS32.M1		R43, R42, R48
		SNOP		3
		SMOVIL.L		A, R46
		SMOVIH.L		A, R46
		SMOVIH4.L		A, R47
		SMOVIL		-164, R42
		SMOVIL		-1, R43
		SADDA.M1		R43:R42,AR14,AR10
		SNOP		1
		SLDW		*AR10, R30
		SNOP		5
		SMOVIL		-164, R44
		SMOVIL		-1, R45
		SADDA.M1		R45:R44,AR14,AR10
		SNOP		1
		SLDW		*AR10, R43
		SNOP		5
		SSHFAR		31, R43, R42
		SMOV.M1		R42, R31
		SADD.M1		R30,R30,R42
		SLTU		R42, R30, R44
		SADD.M1		R31,R31,R43
		SADD.M1		R43,R44,R44
		SMOV.M1		R44, R43
		SADD.M1		R42,R42,R44
		SLTU		R44, R42, R49
		SADD.M1		R43,R43,R45
		SADD.M1		R45,R49,R42
		SMOV.M1		R42, R45
		SMOV.M1		R44, R42
		SMOV.M1		R45, R43
	;no-op trunc di R43:R42 to pdi R43:R42
		SMVAGA36.M1		R47:R46, OR11
		SNOP		1
		SADDA.M1		R43:R42,OR11,OR11
		SNOP		1
		SMVAAGL.M1		OR11, R43:R42
		SNOP		1
		SMVAAGH.M1		OR11, R43:R42
		SNOP		1
		SMVAGA36.M1		R43:R42, AR10
		SNOP		1
		SSTW		R48, *AR10
	.loc 1 142 0 discriminator 2
		SMOVIL		-104, R44
		SMOVIL		-1, R45
		SADDA.M1		R45:R44,AR14,AR10
		SNOP		1
		SLDW		*AR10, R42
		SNOP		5
		SADD.M1		1,R42,R42
		SMOVIL		-104, R44
		SMOVIL		-1, R45
		SADDA.M1		R45:R44,AR14,AR10
		SNOP		1
		SSTW		R42, *AR10
.L47:
	.loc 1 142 0 is_stmt 0 discriminator 1
		SMOVIL		-104, R44
		SMOVIL		-1, R45
		SADDA.M1		R45:R44,AR14,AR10
		SNOP		1
		SLDW		*AR10, R43
		SNOP		5
		SMOVIL		-120, R44
		SMOVIL		-1, R45
		SADDA.M1		R45:R44,AR14,AR10
		SNOP		1
		SLDW		*AR10, R42
		SNOP		5
		SLT		R43, R42, R42
		SMOV.M1		R42, R0
	[R0]	SBR		.L48
		SNOP		6
	.loc 1 146 0 is_stmt 1
		SBR		rand
		SMOVIL		.L118, R62
		SMOVIH		.L118, R62
		SMOVIH4.L		.L118, R63
		SNOP		4
.L118:
		SMOV.M1		R10, R42
		SFINTS32.M1		R42,R43
		SNOP		2
		SMOVIL		973082626, R42
		SMOVIH		973082626, R42
		SFMULS32.M1		R43, R42, R48
		SNOP		3
		SMOVIL.L		b, R46
		SMOVIH.L		b, R46
		SMOVIH4.L		b, R47
		SMOVIL		-100, R42
		SMOVIL		-1, R43
		SADDA.M1		R43:R42,AR14,AR10
		SNOP		1
		SLDW		*AR10, R32
		SNOP		5
		SMOVIL		-100, R44
		SMOVIL		-1, R45
		SADDA.M1		R45:R44,AR14,AR10
		SNOP		1
		SLDW		*AR10, R42
		SNOP		5
		SSHFAR		31, R42, R42
		SMOV.M1		R42, R33
		SADD.M1		R32,R32,R42
		SLTU		R42, R32, R44
		SADD.M1		R33,R33,R43
		SADD.M1		R43,R44,R44
		SMOV.M1		R44, R43
		SADD.M1		R42,R42,R44
		SLTU		R44, R42, R49
		SADD.M1		R43,R43,R45
		SADD.M1		R45,R49,R42
		SMOV.M1		R42, R45
		SMOV.M1		R44, R42
		SMOV.M1		R45, R43
	;no-op trunc di R43:R42 to pdi R43:R42
		SMVAGA36.M1		R47:R46, OR11
		SNOP		1
		SADDA.M1		R43:R42,OR11,OR11
		SNOP		1
		SMVAAGL.M1		OR11, R43:R42
		SNOP		1
		SMVAAGH.M1		OR11, R43:R42
		SNOP		1
		SMVAGA36.M1		R43:R42, AR10
		SNOP		1
		SSTW		R48, *AR10
	.loc 1 140 0
		SMOVIL		-100, R44
		SMOVIL		-1, R45
		SADDA.M1		R45:R44,AR14,AR10
		SNOP		1
		SLDW		*AR10, R42
		SNOP		5
		SADD.M1		1,R42,R42
		SMOVIL		-100, R44
		SMOVIL		-1, R45
		SADDA.M1		R45:R44,AR14,AR10
		SNOP		1
		SSTW		R42, *AR10
.L46:
	.loc 1 140 0 is_stmt 0 discriminator 1
		SMOVIL		-100, R44
		SMOVIL		-1, R45
		SADDA.M1		R45:R44,AR14,AR10
		SNOP		1
		SLDW		*AR10, R43
		SNOP		5
		SMOVIL		-116, R44
		SMOVIL		-1, R45
		SADDA.M1		R45:R44,AR14,AR10
		SNOP		1
		SLDW		*AR10, R42
		SNOP		5
		SLT		R43, R42, R42
		SMOV.M1		R42, R0
	[R0]	SBR		.L49
		SNOP		6
	.loc 1 148 0 is_stmt 1
		SBR		.L42
		SNOP		6
.L44:
	.loc 1 151 0
		SMOVIL		48, R42
		SMOVIL		-116, R44
		SMOVIL		-1, R45
		SADDA.M1		R45:R44,AR14,AR10
		SNOP		1
		SSTW		R42, *AR10
	.loc 1 152 0
		SMOVIL		48, R42
		SMOVIL		-120, R44
		SMOVIL		-1, R45
		SADDA.M1		R45:R44,AR14,AR10
		SNOP		1
		SSTW		R42, *AR10
	.loc 1 153 0
		SMOVIL		0, R10
		SBR		srand
		SMOVIL		.L119, R62
		SMOVIH		.L119, R62
		SMOVIH4.L		.L119, R63
		SNOP		4
.L119:
	.loc 1 154 0
		SMOVIL		0, R42
		SMOVIL		-100, R44
		SMOVIL		-1, R45
		SADDA.M1		R45:R44,AR14,AR10
		SNOP		1
		SSTW		R42, *AR10
		SBR		.L50
		SNOP		6
.L53:
	.loc 1 156 0
		SMOVIL		0, R42
		SMOVIL		-104, R44
		SMOVIL		-1, R45
		SADDA.M1		R45:R44,AR14,AR10
		SNOP		1
		SSTW		R42, *AR10
		SBR		.L51
		SNOP		6
.L52:
	.loc 1 158 0 discriminator 2
		SMOVIL		-100, R44
		SMOVIL		-1, R45
		SADDA.M1		R45:R44,AR14,AR10
		SNOP		1
		SLDW		*AR10, R43
		SNOP		5
		SMOVIL		-120, R44
		SMOVIL		-1, R45
		SADDA.M1		R45:R44,AR14,AR10
		SNOP		1
		SLDW		*AR10, R42
		SNOP		5
		SMULIS.M1		R42,R43,R43
		SNOP		2
		SMOVIL		-104, R44
		SMOVIL		-1, R45
		SADDA.M1		R45:R44,AR14,AR10
		SNOP		1
		SLDW		*AR10, R42
		SNOP		5
		SADD.M1		R42,R43,R46
		SMOVIL		-168, R44
		SMOVIL		-1, R45
		SADDA.M1		R45:R44,AR14,AR10
		SNOP		1
		SSTW		R46, *AR10
		SBR		rand
		SMOVIL		.L120, R62
		SMOVIH		.L120, R62
		SMOVIH4.L		.L120, R63
		SNOP		4
.L120:
		SMOV.M1		R10, R42
		SFINTS32.M1		R42,R43
		SNOP		2
		SMOVIL		973082626, R42
		SMOVIH		973082626, R42
		SFMULS32.M1		R43, R42, R48
		SNOP		3
		SMOVIL.L		A, R46
		SMOVIH.L		A, R46
		SMOVIH4.L		A, R47
		SMOVIL		-168, R42
		SMOVIL		-1, R43
		SADDA.M1		R43:R42,AR14,AR10
		SNOP		1
		SLDW		*AR10, R34
		SNOP		5
		SMOVIL		-168, R44
		SMOVIL		-1, R45
		SADDA.M1		R45:R44,AR14,AR10
		SNOP		1
		SLDW		*AR10, R43
		SNOP		5
		SSHFAR		31, R43, R42
		SMOV.M1		R42, R35
		SADD.M1		R34,R34,R42
		SLTU		R42, R34, R44
		SADD.M1		R35,R35,R43
		SADD.M1		R43,R44,R44
		SMOV.M1		R44, R43
		SADD.M1		R42,R42,R44
		SLTU		R44, R42, R49
		SADD.M1		R43,R43,R45
		SADD.M1		R45,R49,R42
		SMOV.M1		R42, R45
		SMOV.M1		R44, R42
		SMOV.M1		R45, R43
	;no-op trunc di R43:R42 to pdi R43:R42
		SMVAGA36.M1		R47:R46, OR11
		SNOP		1
		SADDA.M1		R43:R42,OR11,OR11
		SNOP		1
		SMVAAGL.M1		OR11, R43:R42
		SNOP		1
		SMVAAGH.M1		OR11, R43:R42
		SNOP		1
		SMVAGA36.M1		R43:R42, AR10
		SNOP		1
		SSTW		R48, *AR10
	.loc 1 156 0 discriminator 2
		SMOVIL		-104, R44
		SMOVIL		-1, R45
		SADDA.M1		R45:R44,AR14,AR10
		SNOP		1
		SLDW		*AR10, R42
		SNOP		5
		SADD.M1		1,R42,R42
		SMOVIL		-104, R44
		SMOVIL		-1, R45
		SADDA.M1		R45:R44,AR14,AR10
		SNOP		1
		SSTW		R42, *AR10
.L51:
	.loc 1 156 0 is_stmt 0 discriminator 1
		SMOVIL		-104, R44
		SMOVIL		-1, R45
		SADDA.M1		R45:R44,AR14,AR10
		SNOP		1
		SLDW		*AR10, R43
		SNOP		5
		SMOVIL		-120, R44
		SMOVIL		-1, R45
		SADDA.M1		R45:R44,AR14,AR10
		SNOP		1
		SLDW		*AR10, R42
		SNOP		5
		SLT		R43, R42, R42
		SMOV.M1		R42, R0
	[R0]	SBR		.L52
		SNOP		6
	.loc 1 160 0 is_stmt 1
		SBR		rand
		SMOVIL		.L121, R62
		SMOVIH		.L121, R62
		SMOVIH4.L		.L121, R63
		SNOP		4
.L121:
		SMOV.M1		R10, R42
		SFINTS32.M1		R42,R43
		SNOP		2
		SMOVIL		973082626, R42
		SMOVIH		973082626, R42
		SFMULS32.M1		R43, R42, R48
		SNOP		3
		SMOVIL.L		b, R46
		SMOVIH.L		b, R46
		SMOVIH4.L		b, R47
		SMOVIL		-100, R42
		SMOVIL		-1, R43
		SADDA.M1		R43:R42,AR14,AR10
		SNOP		1
		SLDW		*AR10, R36
		SNOP		5
		SMOVIL		-100, R44
		SMOVIL		-1, R45
		SADDA.M1		R45:R44,AR14,AR10
		SNOP		1
		SLDW		*AR10, R42
		SNOP		5
		SSHFAR		31, R42, R42
		SMOV.M1		R42, R37
		SADD.M1		R36,R36,R42
		SLTU		R42, R36, R44
		SADD.M1		R37,R37,R43
		SADD.M1		R43,R44,R44
		SMOV.M1		R44, R43
		SADD.M1		R42,R42,R44
		SLTU		R44, R42, R49
		SADD.M1		R43,R43,R45
		SADD.M1		R45,R49,R42
		SMOV.M1		R42, R45
		SMOV.M1		R44, R42
		SMOV.M1		R45, R43
	;no-op trunc di R43:R42 to pdi R43:R42
		SMVAGA36.M1		R47:R46, OR11
		SNOP		1
		SADDA.M1		R43:R42,OR11,OR11
		SNOP		1
		SMVAAGL.M1		OR11, R43:R42
		SNOP		1
		SMVAAGH.M1		OR11, R43:R42
		SNOP		1
		SMVAGA36.M1		R43:R42, AR10
		SNOP		1
		SSTW		R48, *AR10
	.loc 1 154 0
		SMOVIL		-100, R44
		SMOVIL		-1, R45
		SADDA.M1		R45:R44,AR14,AR10
		SNOP		1
		SLDW		*AR10, R42
		SNOP		5
		SADD.M1		1,R42,R42
		SMOVIL		-100, R44
		SMOVIL		-1, R45
		SADDA.M1		R45:R44,AR14,AR10
		SNOP		1
		SSTW		R42, *AR10
.L50:
	.loc 1 154 0 is_stmt 0 discriminator 1
		SMOVIL		-100, R44
		SMOVIL		-1, R45
		SADDA.M1		R45:R44,AR14,AR10
		SNOP		1
		SLDW		*AR10, R43
		SNOP		5
		SMOVIL		-116, R44
		SMOVIL		-1, R45
		SADDA.M1		R45:R44,AR14,AR10
		SNOP		1
		SLDW		*AR10, R42
		SNOP		5
		SLT		R43, R42, R42
		SMOV.M1		R42, R0
	[R0]	SBR		.L53
		SNOP		6
	.loc 1 162 0 is_stmt 1
		SBR		.L42
		SNOP		6
.L45:
	.loc 1 165 0
		SMOVIL		128, R42
		SMOVIL		-116, R44
		SMOVIL		-1, R45
		SADDA.M1		R45:R44,AR14,AR10
		SNOP		1
		SSTW		R42, *AR10
	.loc 1 166 0
		SMOVIL		128, R42
		SMOVIL		-120, R44
		SMOVIL		-1, R45
		SADDA.M1		R45:R44,AR14,AR10
		SNOP		1
		SSTW		R42, *AR10
	.loc 1 167 0
		SMOVIL		0, R10
		SBR		srand
		SMOVIL		.L122, R62
		SMOVIH		.L122, R62
		SMOVIH4.L		.L122, R63
		SNOP		4
.L122:
	.loc 1 168 0
		SMOVIL		0, R42
		SMOVIL		-100, R44
		SMOVIL		-1, R45
		SADDA.M1		R45:R44,AR14,AR10
		SNOP		1
		SSTW		R42, *AR10
		SBR		.L54
		SNOP		6
.L57:
	.loc 1 170 0
		SMOVIL		0, R42
		SMOVIL		-104, R44
		SMOVIL		-1, R45
		SADDA.M1		R45:R44,AR14,AR10
		SNOP		1
		SSTW		R42, *AR10
		SBR		.L55
		SNOP		6
.L56:
	.loc 1 172 0 discriminator 2
		SMOVIL		-100, R44
		SMOVIL		-1, R45
		SADDA.M1		R45:R44,AR14,AR10
		SNOP		1
		SLDW		*AR10, R43
		SNOP		5
		SMOVIL		-120, R44
		SMOVIL		-1, R45
		SADDA.M1		R45:R44,AR14,AR10
		SNOP		1
		SLDW		*AR10, R42
		SNOP		5
		SMULIS.M1		R42,R43,R43
		SNOP		2
		SMOVIL		-104, R44
		SMOVIL		-1, R45
		SADDA.M1		R45:R44,AR14,AR10
		SNOP		1
		SLDW		*AR10, R42
		SNOP		5
		SADD.M1		R42,R43,R46
		SMOVIL		-172, R44
		SMOVIL		-1, R45
		SADDA.M1		R45:R44,AR14,AR10
		SNOP		1
		SSTW		R46, *AR10
		SBR		rand
		SMOVIL		.L123, R62
		SMOVIH		.L123, R62
		SMOVIH4.L		.L123, R63
		SNOP		4
.L123:
		SMOV.M1		R10, R42
		SFINTS32.M1		R42,R43
		SNOP		2
		SMOVIL		973082626, R42
		SMOVIH		973082626, R42
		SFMULS32.M1		R43, R42, R48
		SNOP		3
		SMOVIL.L		A, R46
		SMOVIH.L		A, R46
		SMOVIH4.L		A, R47
		SMOVIL		-172, R42
		SMOVIL		-1, R43
		SADDA.M1		R43:R42,AR14,AR10
		SNOP		1
		SLDW		*AR10, R38
		SNOP		5
		SMOVIL		-172, R44
		SMOVIL		-1, R45
		SADDA.M1		R45:R44,AR14,AR10
		SNOP		1
		SLDW		*AR10, R43
		SNOP		5
		SSHFAR		31, R43, R42
		SMOV.M1		R42, R39
		SADD.M1		R38,R38,R42
		SLTU		R42, R38, R44
		SADD.M1		R39,R39,R43
		SADD.M1		R43,R44,R44
		SMOV.M1		R44, R43
		SADD.M1		R42,R42,R44
		SLTU		R44, R42, R49
		SADD.M1		R43,R43,R45
		SADD.M1		R45,R49,R42
		SMOV.M1		R42, R45
		SMOV.M1		R44, R42
		SMOV.M1		R45, R43
	;no-op trunc di R43:R42 to pdi R43:R42
		SMVAGA36.M1		R47:R46, OR11
		SNOP		1
		SADDA.M1		R43:R42,OR11,OR11
		SNOP		1
		SMVAAGL.M1		OR11, R43:R42
		SNOP		1
		SMVAAGH.M1		OR11, R43:R42
		SNOP		1
		SMVAGA36.M1		R43:R42, AR10
		SNOP		1
		SSTW		R48, *AR10
	.loc 1 170 0 discriminator 2
		SMOVIL		-104, R44
		SMOVIL		-1, R45
		SADDA.M1		R45:R44,AR14,AR10
		SNOP		1
		SLDW		*AR10, R42
		SNOP		5
		SADD.M1		1,R42,R42
		SMOVIL		-104, R44
		SMOVIL		-1, R45
		SADDA.M1		R45:R44,AR14,AR10
		SNOP		1
		SSTW		R42, *AR10
.L55:
	.loc 1 170 0 is_stmt 0 discriminator 1
		SMOVIL		-104, R44
		SMOVIL		-1, R45
		SADDA.M1		R45:R44,AR14,AR10
		SNOP		1
		SLDW		*AR10, R43
		SNOP		5
		SMOVIL		-120, R44
		SMOVIL		-1, R45
		SADDA.M1		R45:R44,AR14,AR10
		SNOP		1
		SLDW		*AR10, R42
		SNOP		5
		SLT		R43, R42, R42
		SMOV.M1		R42, R0
	[R0]	SBR		.L56
		SNOP		6
	.loc 1 174 0 is_stmt 1
		SBR		rand
		SMOVIL		.L124, R62
		SMOVIH		.L124, R62
		SMOVIH4.L		.L124, R63
		SNOP		4
.L124:
		SMOV.M1		R10, R42
		SFINTS32.M1		R42,R43
		SNOP		2
		SMOVIL		973082626, R42
		SMOVIH		973082626, R42
		SFMULS32.M1		R43, R42, R48
		SNOP		3
		SMOVIL.L		b, R46
		SMOVIH.L		b, R46
		SMOVIH4.L		b, R47
		SMOVIL		-100, R42
		SMOVIL		-1, R43
		SADDA.M1		R43:R42,AR14,AR10
		SNOP		1
		SLDW		*AR10, R40
		SNOP		5
		SMOVIL		-100, R44
		SMOVIL		-1, R45
		SADDA.M1		R45:R44,AR14,AR10
		SNOP		1
		SLDW		*AR10, R42
		SNOP		5
		SSHFAR		31, R42, R42
		SMOV.M1		R42, R41
		SADD.M1		R40,R40,R42
		SLTU		R42, R40, R44
		SADD.M1		R41,R41,R43
		SADD.M1		R43,R44,R44
		SMOV.M1		R44, R43
		SADD.M1		R42,R42,R44
		SLTU		R44, R42, R49
		SADD.M1		R43,R43,R45
		SADD.M1		R45,R49,R42
		SMOV.M1		R42, R45
		SMOV.M1		R44, R42
		SMOV.M1		R45, R43
	;no-op trunc di R43:R42 to pdi R43:R42
		SMVAGA36.M1		R47:R46, OR11
		SNOP		1
		SADDA.M1		R43:R42,OR11,OR11
		SNOP		1
		SMVAAGL.M1		OR11, R43:R42
		SNOP		1
		SMVAAGH.M1		OR11, R43:R42
		SNOP		1
		SMVAGA36.M1		R43:R42, AR10
		SNOP		1
		SSTW		R48, *AR10
	.loc 1 168 0
		SMOVIL		-100, R44
		SMOVIL		-1, R45
		SADDA.M1		R45:R44,AR14,AR10
		SNOP		1
		SLDW		*AR10, R42
		SNOP		5
		SADD.M1		1,R42,R42
		SMOVIL		-100, R44
		SMOVIL		-1, R45
		SADDA.M1		R45:R44,AR14,AR10
		SNOP		1
		SSTW		R42, *AR10
.L54:
	.loc 1 168 0 is_stmt 0 discriminator 1
		SMOVIL		-100, R44
		SMOVIL		-1, R45
		SADDA.M1		R45:R44,AR14,AR10
		SNOP		1
		SLDW		*AR10, R43
		SNOP		5
		SMOVIL		-116, R44
		SMOVIL		-1, R45
		SADDA.M1		R45:R44,AR14,AR10
		SNOP		1
		SLDW		*AR10, R42
		SNOP		5
		SLT		R43, R42, R42
		SMOV.M1		R42, R0
	[R0]	SBR		.L57
		SNOP		6
	.loc 1 176 0 is_stmt 1
		SNOP		1
.L42:
	.loc 1 183 0
		SMOVIL		-68, R42
		SMOVIL		-1, R43
		SMOVIL		-72, R44
		SMOVIL		-1, R45
		SADDA.M1		R45:R44,AR14,OR11
		SNOP		1
		SADDA.M1		R43:R42,OR11,AR8
		SNOP		1
		SMOVIL		-80, R42
		SMOVIL		-1, R43
		SMOVIL		-72, R46
		SMOVIL		-1, R47
		SADDA.M1		R47:R46,AR14,OR11
		SNOP		1
		SADDA.M1		R43:R42,OR11,OR11
		SNOP		1
		SMVAAGL.M1		OR11, R45:R44
		SNOP		1
		SMVAAGH.M1		OR11, R45:R44
		SNOP		1
		SMOVIL		-84, R42
		SMOVIL		-1, R43
		SMOVIL		-72, R46
		SMOVIL		-1, R47
		SADDA.M1		R47:R46,AR14,OR11
		SNOP		1
		SADDA.M1		R43:R42,OR11,OR11
		SNOP		1
		SMVAAGL.M1		OR11, R43:R42
		SNOP		1
		SMVAAGH.M1		OR11, R43:R42
		SNOP		1
		SMVAGA36.M1		R45:R44, OR11
		SNOP		1
		SMVAAGL.M1		OR11, R11:R10
		SNOP		1
		SMVAAGH.M1		OR11, R11:R10
		SNOP		1
		SMVAGA36.M1		R43:R42, OR11
		SNOP		1
		SMVAAGL.M1		OR11, R13:R12
		SNOP		1
		SMVAAGH.M1		OR11, R13:R12
		SNOP		1
		SMOVIL		-116, R42
		SMOVIL		-1, R43
		SADDA.M1		R43:R42,AR14,AR10
		SNOP		1
		SLDW		*AR10, R14
		SNOP		5
		SMOVIL		-120, R42
		SMOVIL		-1, R43
		SADDA.M1		R43:R42,AR14,AR10
		SNOP		1
		SLDW		*AR10, R16
		SNOP		5
		SMOVIL.L		A, R18
		SMOVIH.L		A, R18
		SMOVIH4.L		A, R19
		SMOVIL.L		Q, R20
		SMOVIH.L		Q, R20
		SMOVIH4.L		Q, R21
		SMOVIL.L		R, R22
		SMOVIH.L		R, R22
		SMOVIH4.L		R, R23
		SMOVIL.L		u, R24
		SMOVIH.L		u, R24
		SMOVIH4.L		u, R25
		SBR		DSPF_sp_qrd_wrapper
		SMOVIL		.L125, R62
		SMOVIH		.L125, R62
		SMOVIH4.L		.L125, R63
		SNOP		4
.L125:
		SSTW		R10, *AR8
	.loc 1 184 0
		SMOVIL		-84, R42
		SMOVIL		-1, R43
		SMOVIL		-72, R44
		SMOVIL		-1, R45
		SADDA.M1		R45:R44,AR14,OR11
		SNOP		1
		SADDA.M1		R43:R42,OR11,OR11
		SNOP		1
		SMVAAGL.M1		OR11, R43:R42
		SNOP		1
		SMVAAGH.M1		OR11, R43:R42
		SNOP		1
		SMVAGA36.M1		R43:R42, AR10
		SNOP		1
		SLDW		*AR10, R45
		SNOP		5
		SMOVIL		-80, R42
		SMOVIL		-1, R43
		SMOVIL		-72, R46
		SMOVIL		-1, R47
		SADDA.M1		R47:R46,AR14,OR11
		SNOP		1
		SADDA.M1		R43:R42,OR11,OR11
		SNOP		1
		SMVAAGL.M1		OR11, R43:R42
		SNOP		1
		SMVAAGH.M1		OR11, R43:R42
		SNOP		1
		SMVAGA36.M1		R43:R42, AR10
		SNOP		1
		SLDW		*AR10, R44
		SNOP		5
		SMOVIL		-72, R42
		SMOVIL		-1, R43
		SMOVIL		-72, R46
		SMOVIL		-1, R47
		SADDA.M1		R47:R46,AR14,OR11
		SNOP		1
		SADDA.M1		R43:R42,OR11,OR11
		SNOP		1
		SMVAAGL.M1		OR11, R43:R42
		SNOP		1
		SMVAAGH.M1		OR11, R43:R42
		SNOP		1
		SSUB.M1		R44, R45, R44
		SMVAGA36.M1		R43:R42, AR10
		SNOP		1
		SSTW		R44, *AR10
	.loc 1 185 0
		SMOVIL		-68, R42
		SMOVIL		-1, R43
		SMOVIL		-72, R44
		SMOVIL		-1, R45
		SADDA.M1		R45:R44,AR14,OR11
		SNOP		1
		SADDA.M1		R43:R42,OR11,OR11
		SNOP		1
		SMVAAGL.M1		OR11, R43:R42
		SNOP		1
		SMVAAGH.M1		OR11, R43:R42
		SNOP		1
		SMVAGA36.M1		R43:R42, AR10
		SNOP		1
		SLDW		*AR10, R42
		SNOP		5
		SMOVIL		-1, R0
		SEQ		R0, R42, R42
		SMOV.M1		R42, R0
	[!R0]	SBR		.L58
		SNOP		6
	.loc 1 187 0
		SMOVIL.L		.LC6, R10
		SMOVIH.L		.LC6, R10
		SMOVIH4.L		.LC6, R11
		SBR		puts
		SMOVIL		.L126, R62
		SMOVIH		.L126, R62
		SMOVIH4.L		.L126, R63
		SNOP		4
.L126:
.L58:
	.loc 1 193 0
		SMOVIL		0, R42
		SMOVIL		-100, R44
		SMOVIL		-1, R45
		SADDA.M1		R45:R44,AR14,AR10
		SNOP		1
		SSTW		R42, *AR10
		SBR		.L59
		SNOP		6
.L67:
	.loc 1 195 0
		SMOVIL		0, R42
		SMOVIL		-104, R44
		SMOVIL		-1, R45
		SADDA.M1		R45:R44,AR14,AR10
		SNOP		1
		SSTW		R42, *AR10
		SBR		.L60
		SNOP		6
.L66:
	.loc 1 197 0
		SMOVIL		0, R42
		SMOVIH		0, R42
		SMOVIL		-92, R44
		SMOVIL		-1, R45
		SADDA.M1		R45:R44,AR14,AR10
		SNOP		1
		SSTW		R42, *AR10
	.loc 1 198 0
		SMOVIL		0, R42
		SMOVIL		-108, R44
		SMOVIL		-1, R45
		SADDA.M1		R45:R44,AR14,AR10
		SNOP		1
		SSTW		R42, *AR10
		SBR		.L61
		SNOP		6
.L62:
	.loc 1 200 0 discriminator 2
		SMOVIL		-100, R44
		SMOVIL		-1, R45
		SADDA.M1		R45:R44,AR14,AR10
		SNOP		1
		SLDW		*AR10, R43
		SNOP		5
		SMOVIL		-116, R44
		SMOVIL		-1, R45
		SADDA.M1		R45:R44,AR14,AR10
		SNOP		1
		SLDW		*AR10, R42
		SNOP		5
		SMULIS.M1		R42,R43,R43
		SNOP		2
		SMOVIL		-108, R44
		SMOVIL		-1, R45
		SADDA.M1		R45:R44,AR14,AR10
		SNOP		1
		SLDW		*AR10, R42
		SNOP		5
		SADD.M1		R42,R43,R42
		SMOVIL.L		Q, R46
		SMOVIH.L		Q, R46
		SMOVIH4.L		Q, R47
		SMOVIL		-184, R44
		SMOVIL		-1, R45
		SADDA.M1		R45:R44,AR14,AR10
		SNOP		1
		SSTW		R42, *AR10
		SSHFAR		31, R42, R42
		SMOVIL		-180, R44
		SMOVIL		-1, R45
		SADDA.M1		R45:R44,AR14,AR10
		SNOP		1
		SSTW		R42, *AR10
		SMOVIL		-184, R44
		SMOVIL		-1, R45
		SADDA.M1		R45:R44,AR14,AR10
		SNOP		1
		SLDW		*AR10, R48
		SNOP		5
		SMOVIL		-184, R44
		SMOVIL		-1, R45
		SADDA.M1		R45:R44,AR14,AR10
		SNOP		1
		SLDW		*AR10, R44
		SNOP		5
		SADD.M1		R44,R48,R42
		SMOVIL		-184, R48
		SMOVIL		-1, R49
		SADDA.M1		R49:R48,AR14,AR10
		SNOP		1
		SLDW		*AR10, R45
		SNOP		5
		SLTU		R42, R45, R44
		SMOVIL		-180, R48
		SMOVIL		-1, R49
		SADDA.M1		R49:R48,AR14,AR10
		SNOP		1
		SLDW		*AR10, R45
		SNOP		5
		SMOVIL		-180, R48
		SMOVIL		-1, R49
		SADDA.M1		R49:R48,AR14,AR10
		SNOP		1
		SLDW		*AR10, R48
		SNOP		5
		SADD.M1		R48,R45,R43
		SADD.M1		R43,R44,R44
		SMOV.M1		R44, R43
		SADD.M1		R42,R42,R44
		SLTU		R44, R42, R48
		SADD.M1		R43,R43,R45
		SADD.M1		R45,R48,R42
		SMOV.M1		R42, R45
		SMOV.M1		R44, R42
		SMOV.M1		R45, R43
	;no-op trunc di R43:R42 to pdi R43:R42
		SMVAGA36.M1		R47:R46, OR11
		SNOP		1
		SADDA.M1		R43:R42,OR11,OR11
		SNOP		1
		SMVAAGL.M1		OR11, R43:R42
		SNOP		1
		SMVAAGH.M1		OR11, R43:R42
		SNOP		1
		SMVAGA36.M1		R43:R42, AR10
		SNOP		1
		SLDW		*AR10, R48
		SNOP		5
		SMOVIL		-108, R44
		SMOVIL		-1, R45
		SADDA.M1		R45:R44,AR14,AR10
		SNOP		1
		SLDW		*AR10, R43
		SNOP		5
		SMOVIL		-120, R44
		SMOVIL		-1, R45
		SADDA.M1		R45:R44,AR14,AR10
		SNOP		1
		SLDW		*AR10, R42
		SNOP		5
		SMULIS.M1		R42,R43,R43
		SNOP		2
		SMOVIL		-104, R44
		SMOVIL		-1, R45
		SADDA.M1		R45:R44,AR14,AR10
		SNOP		1
		SLDW		*AR10, R42
		SNOP		5
		SADD.M1		R42,R43,R42
		SMOVIL.L		R, R46
		SMOVIH.L		R, R46
		SMOVIH4.L		R, R47
		SMOVIL		-192, R44
		SMOVIL		-1, R45
		SADDA.M1		R45:R44,AR14,AR10
		SNOP		1
		SSTW		R42, *AR10
		SSHFAR		31, R42, R42
		SMOVIL		-188, R44
		SMOVIL		-1, R45
		SADDA.M1		R45:R44,AR14,AR10
		SNOP		1
		SSTW		R42, *AR10
		SMOVIL		-192, R44
		SMOVIL		-1, R45
		SADDA.M1		R45:R44,AR14,AR10
		SNOP		1
		SLDW		*AR10, R49
		SNOP		5
		SMOVIL		-192, R44
		SMOVIL		-1, R45
		SADDA.M1		R45:R44,AR14,AR10
		SNOP		1
		SLDW		*AR10, R44
		SNOP		5
		SADD.M1		R44,R49,R42
		SMOVIL		-192, R50
		SMOVIL		-1, R51
		SADDA.M1		R51:R50,AR14,AR10
		SNOP		1
		SLDW		*AR10, R45
		SNOP		5
		SLTU		R42, R45, R44
		SMOVIL		-188, R50
		SMOVIL		-1, R51
		SADDA.M1		R51:R50,AR14,AR10
		SNOP		1
		SLDW		*AR10, R45
		SNOP		5
		SMOVIL		-188, R50
		SMOVIL		-1, R51
		SADDA.M1		R51:R50,AR14,AR10
		SNOP		1
		SLDW		*AR10, R49
		SNOP		5
		SADD.M1		R49,R45,R43
		SADD.M1		R43,R44,R44
		SMOV.M1		R44, R43
		SADD.M1		R42,R42,R44
		SLTU		R44, R42, R49
		SADD.M1		R43,R43,R45
		SADD.M1		R45,R49,R42
		SMOV.M1		R42, R45
		SMOV.M1		R44, R42
		SMOV.M1		R45, R43
	;no-op trunc di R43:R42 to pdi R43:R42
		SMVAGA36.M1		R47:R46, OR11
		SNOP		1
		SADDA.M1		R43:R42,OR11,OR11
		SNOP		1
		SMVAAGL.M1		OR11, R43:R42
		SNOP		1
		SMVAAGH.M1		OR11, R43:R42
		SNOP		1
		SMVAGA36.M1		R43:R42, AR10
		SNOP		1
		SLDW		*AR10, R42
		SNOP		5
		SFMULS32.M1		R48, R42, R42
		SNOP		3
		SMOVIL		-92, R44
		SMOVIL		-1, R45
		SADDA.M1		R45:R44,AR14,AR10
		SNOP		1
		SLDW		*AR10, R43
		SNOP		5
		SFADDS32.M1		R43, R42, R42
		SNOP		2
		SMOVIL		-92, R44
		SMOVIL		-1, R45
		SADDA.M1		R45:R44,AR14,AR10
		SNOP		1
		SSTW		R42, *AR10
	.loc 1 198 0 discriminator 2
		SMOVIL		-108, R44
		SMOVIL		-1, R45
		SADDA.M1		R45:R44,AR14,AR10
		SNOP		1
		SLDW		*AR10, R42
		SNOP		5
		SADD.M1		1,R42,R42
		SMOVIL		-108, R44
		SMOVIL		-1, R45
		SADDA.M1		R45:R44,AR14,AR10
		SNOP		1
		SSTW		R42, *AR10
.L61:
	.loc 1 198 0 is_stmt 0 discriminator 1
		SMOVIL		-108, R44
		SMOVIL		-1, R45
		SADDA.M1		R45:R44,AR14,AR10
		SNOP		1
		SLDW		*AR10, R43
		SNOP		5
		SMOVIL		-116, R44
		SMOVIL		-1, R45
		SADDA.M1		R45:R44,AR14,AR10
		SNOP		1
		SLDW		*AR10, R42
		SNOP		5
		SLT		R43, R42, R42
		SMOV.M1		R42, R0
	[R0]	SBR		.L62
		SNOP		6
	.loc 1 202 0 is_stmt 1
		SMOVIL		-100, R44
		SMOVIL		-1, R45
		SADDA.M1		R45:R44,AR14,AR10
		SNOP		1
		SLDW		*AR10, R43
		SNOP		5
		SMOVIL		-120, R44
		SMOVIL		-1, R45
		SADDA.M1		R45:R44,AR14,AR10
		SNOP		1
		SLDW		*AR10, R42
		SNOP		5
		SMULIS.M1		R42,R43,R43
		SNOP		2
		SMOVIL		-104, R44
		SMOVIL		-1, R45
		SADDA.M1		R45:R44,AR14,AR10
		SNOP		1
		SLDW		*AR10, R42
		SNOP		5
		SADD.M1		R42,R43,R42
		SMOVIL.L		A, R46
		SMOVIH.L		A, R46
		SMOVIH4.L		A, R47
		SMOVIL		-200, R44
		SMOVIL		-1, R45
		SADDA.M1		R45:R44,AR14,AR10
		SNOP		1
		SSTW		R42, *AR10
		SSHFAR		31, R42, R42
		SMOVIL		-196, R44
		SMOVIL		-1, R45
		SADDA.M1		R45:R44,AR14,AR10
		SNOP		1
		SSTW		R42, *AR10
		SMOVIL		-200, R44
		SMOVIL		-1, R45
		SADDA.M1		R45:R44,AR14,AR10
		SNOP		1
		SLDW		*AR10, R48
		SNOP		5
		SMOVIL		-200, R44
		SMOVIL		-1, R45
		SADDA.M1		R45:R44,AR14,AR10
		SNOP		1
		SLDW		*AR10, R44
		SNOP		5
		SADD.M1		R44,R48,R42
		SMOVIL		-200, R48
		SMOVIL		-1, R49
		SADDA.M1		R49:R48,AR14,AR10
		SNOP		1
		SLDW		*AR10, R45
		SNOP		5
		SLTU		R42, R45, R44
		SMOVIL		-196, R48
		SMOVIL		-1, R49
		SADDA.M1		R49:R48,AR14,AR10
		SNOP		1
		SLDW		*AR10, R45
		SNOP		5
		SMOVIL		-196, R48
		SMOVIL		-1, R49
		SADDA.M1		R49:R48,AR14,AR10
		SNOP		1
		SLDW		*AR10, R48
		SNOP		5
		SADD.M1		R48,R45,R43
		SADD.M1		R43,R44,R44
		SMOV.M1		R44, R43
		SADD.M1		R42,R42,R44
		SLTU		R44, R42, R48
		SADD.M1		R43,R43,R45
		SADD.M1		R45,R48,R42
		SMOV.M1		R42, R45
		SMOV.M1		R44, R42
		SMOV.M1		R45, R43
	;no-op trunc di R43:R42 to pdi R43:R42
		SMVAGA36.M1		R47:R46, OR11
		SNOP		1
		SADDA.M1		R43:R42,OR11,OR11
		SNOP		1
		SMVAAGL.M1		OR11, R43:R42
		SNOP		1
		SMVAAGH.M1		OR11, R43:R42
		SNOP		1
		SMVAGA36.M1		R43:R42, AR10
		SNOP		1
		SLDW		*AR10, R43
		SNOP		5
		SMOVIL		-92, R44
		SMOVIL		-1, R45
		SADDA.M1		R45:R44,AR14,AR10
		SNOP		1
		SLDW		*AR10, R42
		SNOP		5
		SFSUBS32.M1		R42, R43, R42
		SNOP		2
		SFSPDP32T.M1		R42, R43:R42
		SNOP		1
		SFABSD.M1		R43:R42, R43:R42
		SNOP		1
		SFDPSP32.M1		R43:R42, R42
		SNOP		2
		SMOVIL		-96, R44
		SMOVIL		-1, R45
		SADDA.M1		R45:R44,AR14,AR10
		SNOP		1
		SSTW		R42, *AR10
	.loc 1 203 0
		SMOVIL		-96, R44
		SMOVIL		-1, R45
		SADDA.M1		R45:R44,AR14,AR10
		SNOP		1
		SLDW		*AR10, R43
		SNOP		5
		SMOVIL		-128, R44
		SMOVIL		-1, R45
		SADDA.M1		R45:R44,AR14,AR10
		SNOP		1
		SLDW		*AR10, R42
		SNOP		5
		SFCMPGS32.M1		R43, R42, R42
		SMOV.M1		R42, R0
	[!R0]	SBR		.L112
		SNOP		6
.L107:
	.loc 1 205 0
		SMOVIL		0, R42
		SMOVIL		-88, R44
		SMOVIL		-1, R45
		SADDA.M1		R45:R44,AR14,AR10
		SNOP		1
		SSTW		R42, *AR10
	.loc 1 206 0
		SMOVIL		-96, R44
		SMOVIL		-1, R45
		SADDA.M1		R45:R44,AR14,AR10
		SNOP		1
		SLDW		*AR10, R42
		SNOP		5
		SFSPDP32T.M1		R42, R43:R42
		SNOP		1
		SMOVIL.L		.LC7, R44
		SMOVIH.L		.LC7, R44
		SMOVIH4.L		.LC7, R45
		SSTDW		R45:R44, *+AR15[1]
		SSTDW		R43:R42, *+AR15[2]
		SBR		printf
		SMOVIL		.L127, R62
		SMOVIH		.L127, R62
		SMOVIH4.L		.L127, R63
		SNOP		4
.L127:
	.loc 1 207 0
		SBR		.L65
		SNOP		6
.L112:
	.loc 1 195 0
		SMOVIL		-104, R44
		SMOVIL		-1, R45
		SADDA.M1		R45:R44,AR14,AR10
		SNOP		1
		SLDW		*AR10, R42
		SNOP		5
		SADD.M1		1,R42,R42
		SMOVIL		-104, R44
		SMOVIL		-1, R45
		SADDA.M1		R45:R44,AR14,AR10
		SNOP		1
		SSTW		R42, *AR10
.L60:
	.loc 1 195 0 is_stmt 0 discriminator 1
		SMOVIL		-104, R44
		SMOVIL		-1, R45
		SADDA.M1		R45:R44,AR14,AR10
		SNOP		1
		SLDW		*AR10, R43
		SNOP		5
		SMOVIL		-120, R44
		SMOVIL		-1, R45
		SADDA.M1		R45:R44,AR14,AR10
		SNOP		1
		SLDW		*AR10, R42
		SNOP		5
		SLT		R43, R42, R42
		SMOV.M1		R42, R0
	[R0]	SBR		.L66
		SNOP		6
.L65:
	.loc 1 193 0 is_stmt 1
		SMOVIL		-100, R44
		SMOVIL		-1, R45
		SADDA.M1		R45:R44,AR14,AR10
		SNOP		1
		SLDW		*AR10, R42
		SNOP		5
		SADD.M1		1,R42,R42
		SMOVIL		-100, R44
		SMOVIL		-1, R45
		SADDA.M1		R45:R44,AR14,AR10
		SNOP		1
		SSTW		R42, *AR10
.L59:
	.loc 1 193 0 is_stmt 0 discriminator 1
		SMOVIL		-100, R44
		SMOVIL		-1, R45
		SADDA.M1		R45:R44,AR14,AR10
		SNOP		1
		SLDW		*AR10, R43
		SNOP		5
		SMOVIL		-116, R44
		SMOVIL		-1, R45
		SADDA.M1		R45:R44,AR14,AR10
		SNOP		1
		SLDW		*AR10, R42
		SNOP		5
		SLT		R43, R42, R42
		SMOV.M1		R42, R0
	[R0]	SBR		.L67
		SNOP		6
	.loc 1 215 0 is_stmt 1
		SMOVIL		0, R42
		SMOVIL		-100, R44
		SMOVIL		-1, R45
		SADDA.M1		R45:R44,AR14,AR10
		SNOP		1
		SSTW		R42, *AR10
		SBR		.L68
		SNOP		6
.L77:
	.loc 1 217 0
		SMOVIL		0, R42
		SMOVIL		-104, R44
		SMOVIL		-1, R45
		SADDA.M1		R45:R44,AR14,AR10
		SNOP		1
		SSTW		R42, *AR10
		SBR		.L69
		SNOP		6
.L76:
	.loc 1 219 0
		SMOVIL		0, R42
		SMOVIH		0, R42
		SMOVIL		-92, R44
		SMOVIL		-1, R45
		SADDA.M1		R45:R44,AR14,AR10
		SNOP		1
		SSTW		R42, *AR10
	.loc 1 220 0
		SMOVIL		0, R42
		SMOVIL		-108, R44
		SMOVIL		-1, R45
		SADDA.M1		R45:R44,AR14,AR10
		SNOP		1
		SSTW		R42, *AR10
		SBR		.L70
		SNOP		6
.L71:
	.loc 1 222 0 discriminator 2
		SMOVIL		-100, R44
		SMOVIL		-1, R45
		SADDA.M1		R45:R44,AR14,AR10
		SNOP		1
		SLDW		*AR10, R43
		SNOP		5
		SMOVIL		-116, R44
		SMOVIL		-1, R45
		SADDA.M1		R45:R44,AR14,AR10
		SNOP		1
		SLDW		*AR10, R42
		SNOP		5
		SMULIS.M1		R42,R43,R43
		SNOP		2
		SMOVIL		-108, R44
		SMOVIL		-1, R45
		SADDA.M1		R45:R44,AR14,AR10
		SNOP		1
		SLDW		*AR10, R42
		SNOP		5
		SADD.M1		R42,R43,R42
		SMOVIL.L		Q, R46
		SMOVIH.L		Q, R46
		SMOVIH4.L		Q, R47
		SMOVIL		-208, R44
		SMOVIL		-1, R45
		SADDA.M1		R45:R44,AR14,AR10
		SNOP		1
		SSTW		R42, *AR10
		SSHFAR		31, R42, R42
		SMOVIL		-204, R44
		SMOVIL		-1, R45
		SADDA.M1		R45:R44,AR14,AR10
		SNOP		1
		SSTW		R42, *AR10
		SMOVIL		-208, R44
		SMOVIL		-1, R45
		SADDA.M1		R45:R44,AR14,AR10
		SNOP		1
		SLDW		*AR10, R48
		SNOP		5
		SMOVIL		-208, R44
		SMOVIL		-1, R45
		SADDA.M1		R45:R44,AR14,AR10
		SNOP		1
		SLDW		*AR10, R44
		SNOP		5
		SADD.M1		R44,R48,R42
		SMOVIL		-208, R48
		SMOVIL		-1, R49
		SADDA.M1		R49:R48,AR14,AR10
		SNOP		1
		SLDW		*AR10, R45
		SNOP		5
		SLTU		R42, R45, R44
		SMOVIL		-204, R48
		SMOVIL		-1, R49
		SADDA.M1		R49:R48,AR14,AR10
		SNOP		1
		SLDW		*AR10, R45
		SNOP		5
		SMOVIL		-204, R48
		SMOVIL		-1, R49
		SADDA.M1		R49:R48,AR14,AR10
		SNOP		1
		SLDW		*AR10, R48
		SNOP		5
		SADD.M1		R48,R45,R43
		SADD.M1		R43,R44,R44
		SMOV.M1		R44, R43
		SADD.M1		R42,R42,R44
		SLTU		R44, R42, R48
		SADD.M1		R43,R43,R45
		SADD.M1		R45,R48,R42
		SMOV.M1		R42, R45
		SMOV.M1		R44, R42
		SMOV.M1		R45, R43
	;no-op trunc di R43:R42 to pdi R43:R42
		SMVAGA36.M1		R47:R46, OR11
		SNOP		1
		SADDA.M1		R43:R42,OR11,OR11
		SNOP		1
		SMVAAGL.M1		OR11, R43:R42
		SNOP		1
		SMVAAGH.M1		OR11, R43:R42
		SNOP		1
		SMVAGA36.M1		R43:R42, AR10
		SNOP		1
		SLDW		*AR10, R48
		SNOP		5
		SMOVIL		-104, R44
		SMOVIL		-1, R45
		SADDA.M1		R45:R44,AR14,AR10
		SNOP		1
		SLDW		*AR10, R43
		SNOP		5
		SMOVIL		-116, R44
		SMOVIL		-1, R45
		SADDA.M1		R45:R44,AR14,AR10
		SNOP		1
		SLDW		*AR10, R42
		SNOP		5
		SMULIS.M1		R42,R43,R43
		SNOP		2
		SMOVIL		-108, R44
		SMOVIL		-1, R45
		SADDA.M1		R45:R44,AR14,AR10
		SNOP		1
		SLDW		*AR10, R42
		SNOP		5
		SADD.M1		R42,R43,R42
		SMOVIL.L		Q, R46
		SMOVIH.L		Q, R46
		SMOVIH4.L		Q, R47
		SMOVIL		-216, R44
		SMOVIL		-1, R45
		SADDA.M1		R45:R44,AR14,AR10
		SNOP		1
		SSTW		R42, *AR10
		SSHFAR		31, R42, R42
		SMOVIL		-212, R44
		SMOVIL		-1, R45
		SADDA.M1		R45:R44,AR14,AR10
		SNOP		1
		SSTW		R42, *AR10
		SMOVIL		-216, R44
		SMOVIL		-1, R45
		SADDA.M1		R45:R44,AR14,AR10
		SNOP		1
		SLDW		*AR10, R49
		SNOP		5
		SMOVIL		-216, R44
		SMOVIL		-1, R45
		SADDA.M1		R45:R44,AR14,AR10
		SNOP		1
		SLDW		*AR10, R44
		SNOP		5
		SADD.M1		R44,R49,R42
		SMOVIL		-216, R50
		SMOVIL		-1, R51
		SADDA.M1		R51:R50,AR14,AR10
		SNOP		1
		SLDW		*AR10, R45
		SNOP		5
		SLTU		R42, R45, R44
		SMOVIL		-212, R50
		SMOVIL		-1, R51
		SADDA.M1		R51:R50,AR14,AR10
		SNOP		1
		SLDW		*AR10, R45
		SNOP		5
		SMOVIL		-212, R50
		SMOVIL		-1, R51
		SADDA.M1		R51:R50,AR14,AR10
		SNOP		1
		SLDW		*AR10, R49
		SNOP		5
		SADD.M1		R49,R45,R43
		SADD.M1		R43,R44,R44
		SMOV.M1		R44, R43
		SADD.M1		R42,R42,R44
		SLTU		R44, R42, R49
		SADD.M1		R43,R43,R45
		SADD.M1		R45,R49,R42
		SMOV.M1		R42, R45
		SMOV.M1		R44, R42
		SMOV.M1		R45, R43
	;no-op trunc di R43:R42 to pdi R43:R42
		SMVAGA36.M1		R47:R46, OR11
		SNOP		1
		SADDA.M1		R43:R42,OR11,OR11
		SNOP		1
		SMVAAGL.M1		OR11, R43:R42
		SNOP		1
		SMVAAGH.M1		OR11, R43:R42
		SNOP		1
		SMVAGA36.M1		R43:R42, AR10
		SNOP		1
		SLDW		*AR10, R42
		SNOP		5
		SFMULS32.M1		R48, R42, R42
		SNOP		3
		SMOVIL		-92, R44
		SMOVIL		-1, R45
		SADDA.M1		R45:R44,AR14,AR10
		SNOP		1
		SLDW		*AR10, R43
		SNOP		5
		SFADDS32.M1		R43, R42, R42
		SNOP		2
		SMOVIL		-92, R44
		SMOVIL		-1, R45
		SADDA.M1		R45:R44,AR14,AR10
		SNOP		1
		SSTW		R42, *AR10
	.loc 1 220 0 discriminator 2
		SMOVIL		-108, R44
		SMOVIL		-1, R45
		SADDA.M1		R45:R44,AR14,AR10
		SNOP		1
		SLDW		*AR10, R42
		SNOP		5
		SADD.M1		1,R42,R42
		SMOVIL		-108, R44
		SMOVIL		-1, R45
		SADDA.M1		R45:R44,AR14,AR10
		SNOP		1
		SSTW		R42, *AR10
.L70:
	.loc 1 220 0 is_stmt 0 discriminator 1
		SMOVIL		-108, R44
		SMOVIL		-1, R45
		SADDA.M1		R45:R44,AR14,AR10
		SNOP		1
		SLDW		*AR10, R43
		SNOP		5
		SMOVIL		-116, R44
		SMOVIL		-1, R45
		SADDA.M1		R45:R44,AR14,AR10
		SNOP		1
		SLDW		*AR10, R42
		SNOP		5
		SLT		R43, R42, R42
		SMOV.M1		R42, R0
	[R0]	SBR		.L71
		SNOP		6
	.loc 1 224 0 is_stmt 1
		SMOVIL		-100, R44
		SMOVIL		-1, R45
		SADDA.M1		R45:R44,AR14,AR10
		SNOP		1
		SLDW		*AR10, R43
		SNOP		5
		SMOVIL		-104, R44
		SMOVIL		-1, R45
		SADDA.M1		R45:R44,AR14,AR10
		SNOP		1
		SLDW		*AR10, R42
		SNOP		5
		SEQ		R42, R43, R42
		SMOV.M1		R42, R0
	[!R0]	SBR		.L72
		SNOP		6
	.loc 1 226 0
		SMOVIL		-92, R44
		SMOVIL		-1, R45
		SADDA.M1		R45:R44,AR14,AR10
		SNOP		1
		SLDW		*AR10, R43
		SNOP		5
		SMOVIL		1065353216, R42
		SMOVIH		1065353216, R42
		SFSUBS32.M1		R42, R43, R42
		SNOP		2
		SFSPDP32T.M1		R42, R43:R42
		SNOP		1
		SFABSD.M1		R43:R42, R43:R42
		SNOP		1
		SFDPSP32.M1		R43:R42, R42
		SNOP		2
		SMOVIL		-96, R44
		SMOVIL		-1, R45
		SADDA.M1		R45:R44,AR14,AR10
		SNOP		1
		SSTW		R42, *AR10
		SBR		.L73
		SNOP		6
.L72:
	.loc 1 230 0
		SMOVIL		-92, R44
		SMOVIL		-1, R45
		SADDA.M1		R45:R44,AR14,AR10
		SNOP		1
		SLDW		*AR10, R42
		SNOP		5
		SFSPDP32T.M1		R42, R43:R42
		SNOP		1
		SFABSD.M1		R43:R42, R43:R42
		SNOP		1
		SFDPSP32.M1		R43:R42, R42
		SNOP		2
		SMOVIL		-96, R44
		SMOVIL		-1, R45
		SADDA.M1		R45:R44,AR14,AR10
		SNOP		1
		SSTW		R42, *AR10
.L73:
	.loc 1 232 0
		SMOVIL		-96, R44
		SMOVIL		-1, R45
		SADDA.M1		R45:R44,AR14,AR10
		SNOP		1
		SLDW		*AR10, R43
		SNOP		5
		SMOVIL		-128, R44
		SMOVIL		-1, R45
		SADDA.M1		R45:R44,AR14,AR10
		SNOP		1
		SLDW		*AR10, R42
		SNOP		5
		SFCMPGS32.M1		R43, R42, R42
		SMOV.M1		R42, R0
	[!R0]	SBR		.L74
		SNOP		6
.L108:
	.loc 1 234 0
		SMOVIL		0, R42
		SMOVIL		-88, R44
		SMOVIL		-1, R45
		SADDA.M1		R45:R44,AR14,AR10
		SNOP		1
		SSTW		R42, *AR10
.L74:
	.loc 1 217 0
		SMOVIL		-104, R44
		SMOVIL		-1, R45
		SADDA.M1		R45:R44,AR14,AR10
		SNOP		1
		SLDW		*AR10, R42
		SNOP		5
		SADD.M1		1,R42,R42
		SMOVIL		-104, R44
		SMOVIL		-1, R45
		SADDA.M1		R45:R44,AR14,AR10
		SNOP		1
		SSTW		R42, *AR10
.L69:
	.loc 1 217 0 is_stmt 0 discriminator 1
		SMOVIL		-104, R44
		SMOVIL		-1, R45
		SADDA.M1		R45:R44,AR14,AR10
		SNOP		1
		SLDW		*AR10, R43
		SNOP		5
		SMOVIL		-116, R44
		SMOVIL		-1, R45
		SADDA.M1		R45:R44,AR14,AR10
		SNOP		1
		SLDW		*AR10, R42
		SNOP		5
		SLT		R43, R42, R42
		SMOV.M1		R42, R0
	[R0]	SBR		.L76
		SNOP		6
	.loc 1 215 0 is_stmt 1
		SMOVIL		-100, R44
		SMOVIL		-1, R45
		SADDA.M1		R45:R44,AR14,AR10
		SNOP		1
		SLDW		*AR10, R42
		SNOP		5
		SADD.M1		1,R42,R42
		SMOVIL		-100, R44
		SMOVIL		-1, R45
		SADDA.M1		R45:R44,AR14,AR10
		SNOP		1
		SSTW		R42, *AR10
.L68:
	.loc 1 215 0 is_stmt 0 discriminator 1
		SMOVIL		-100, R44
		SMOVIL		-1, R45
		SADDA.M1		R45:R44,AR14,AR10
		SNOP		1
		SLDW		*AR10, R43
		SNOP		5
		SMOVIL		-116, R44
		SMOVIL		-1, R45
		SADDA.M1		R45:R44,AR14,AR10
		SNOP		1
		SLDW		*AR10, R42
		SNOP		5
		SLT		R43, R42, R42
		SMOV.M1		R42, R0
	[R0]	SBR		.L77
		SNOP		6
	.loc 1 242 0 is_stmt 1
		SMOVIL		-116, R44
		SMOVIL		-1, R45
		SADDA.M1		R45:R44,AR14,AR10
		SNOP		1
		SLDW		*AR10, R43
		SNOP		5
		SMOVIL		-120, R44
		SMOVIL		-1, R45
		SADDA.M1		R45:R44,AR14,AR10
		SNOP		1
		SLDW		*AR10, R42
		SNOP		5
		SEQ		R42, R43, R42
		SMOV.M1		R42, R0
	[!R0]	SBR		.L78
		SNOP		6
	.loc 1 244 0
		SMOVIL		1, R42
		SMOVIL		-112, R44
		SMOVIL		-1, R45
		SADDA.M1		R45:R44,AR14,AR10
		SNOP		1
		SSTW		R42, *AR10
	.loc 1 245 0
		SMOVIL		0, R42
		SMOVIL		-100, R44
		SMOVIL		-1, R45
		SADDA.M1		R45:R44,AR14,AR10
		SNOP		1
		SSTW		R42, *AR10
		SBR		.L79
		SNOP		6
.L82:
	.loc 1 247 0
		SMOVIL		-120, R44
		SMOVIL		-1, R45
		SADDA.M1		R45:R44,AR14,AR10
		SNOP		1
		SLDW		*AR10, R42
		SNOP		5
		SADD.M1		1,R42,R43
		SMOVIL		-100, R44
		SMOVIL		-1, R45
		SADDA.M1		R45:R44,AR14,AR10
		SNOP		1
		SLDW		*AR10, R42
		SNOP		5
		SMULIS.M1		R42,R43,R42
		SNOP		2
		SMOVIL.L		R, R46
		SMOVIH.L		R, R46
		SMOVIH4.L		R, R47
		SMOVIL		-224, R44
		SMOVIL		-1, R45
		SADDA.M1		R45:R44,AR14,AR10
		SNOP		1
		SSTW		R42, *AR10
		SSHFAR		31, R42, R42
		SMOVIL		-220, R44
		SMOVIL		-1, R45
		SADDA.M1		R45:R44,AR14,AR10
		SNOP		1
		SSTW		R42, *AR10
		SMOVIL		-224, R44
		SMOVIL		-1, R45
		SADDA.M1		R45:R44,AR14,AR10
		SNOP		1
		SLDW		*AR10, R48
		SNOP		5
		SMOVIL		-224, R44
		SMOVIL		-1, R45
		SADDA.M1		R45:R44,AR14,AR10
		SNOP		1
		SLDW		*AR10, R44
		SNOP		5
		SADD.M1		R44,R48,R42
		SMOVIL		-224, R48
		SMOVIL		-1, R49
		SADDA.M1		R49:R48,AR14,AR10
		SNOP		1
		SLDW		*AR10, R45
		SNOP		5
		SLTU		R42, R45, R44
		SMOVIL		-220, R48
		SMOVIL		-1, R49
		SADDA.M1		R49:R48,AR14,AR10
		SNOP		1
		SLDW		*AR10, R45
		SNOP		5
		SMOVIL		-220, R48
		SMOVIL		-1, R49
		SADDA.M1		R49:R48,AR14,AR10
		SNOP		1
		SLDW		*AR10, R48
		SNOP		5
		SADD.M1		R48,R45,R43
		SADD.M1		R43,R44,R44
		SMOV.M1		R44, R43
		SADD.M1		R42,R42,R44
		SLTU		R44, R42, R48
		SADD.M1		R43,R43,R45
		SADD.M1		R45,R48,R42
		SMOV.M1		R42, R45
		SMOV.M1		R44, R42
		SMOV.M1		R45, R43
	;no-op trunc di R43:R42 to pdi R43:R42
		SMVAGA36.M1		R47:R46, OR11
		SNOP		1
		SADDA.M1		R43:R42,OR11,OR11
		SNOP		1
		SMVAAGL.M1		OR11, R43:R42
		SNOP		1
		SMVAAGH.M1		OR11, R43:R42
		SNOP		1
		SMVAGA36.M1		R43:R42, AR10
		SNOP		1
		SLDW		*AR10, R44
		SNOP		5
		SMOVIL		-76, R42
		SMOVIL		-1, R43
		SMOVIL		-72, R46
		SMOVIL		-1, R47
		SADDA.M1		R47:R46,AR14,OR11
		SNOP		1
		SADDA.M1		R43:R42,OR11,OR11
		SNOP		1
		SMVAAGL.M1		OR11, R43:R42
		SNOP		1
		SMVAAGH.M1		OR11, R43:R42
		SNOP		1
		SFSPDP32T.M1		R44, R45:R44
		SNOP		1
		SFABSD.M1		R45:R44, R45:R44
		SNOP		1
		SFDPSP32.M1		R45:R44, R44
		SNOP		2
		SMVAGA36.M1		R43:R42, AR10
		SNOP		1
		SSTW		R44, *AR10
		SMOVIL		-76, R42
		SMOVIL		-1, R43
		SMOVIL		-72, R44
		SMOVIL		-1, R45
		SADDA.M1		R45:R44,AR14,OR11
		SNOP		1
		SADDA.M1		R43:R42,OR11,OR11
		SNOP		1
		SMVAAGL.M1		OR11, R43:R42
		SNOP		1
		SMVAAGH.M1		OR11, R43:R42
		SNOP		1
		SMVAGA36.M1		R43:R42, AR10
		SNOP		1
		SLDW		*AR10, R43
		SNOP		5
		SMOVIL		-124, R44
		SMOVIL		-1, R45
		SADDA.M1		R45:R44,AR14,AR10
		SNOP		1
		SLDW		*AR10, R42
		SNOP		5
		SFCMPLS32.M1		R43, R42, R42
		SMOV.M1		R42, R0
	[!R0]	SBR		.L80
		SNOP		6
.L109:
	.loc 1 249 0
		SMOVIL		0, R42
		SMOVIL		-112, R44
		SMOVIL		-1, R45
		SADDA.M1		R45:R44,AR14,AR10
		SNOP		1
		SSTW		R42, *AR10
.L80:
	.loc 1 245 0
		SMOVIL		-100, R44
		SMOVIL		-1, R45
		SADDA.M1		R45:R44,AR14,AR10
		SNOP		1
		SLDW		*AR10, R42
		SNOP		5
		SADD.M1		1,R42,R42
		SMOVIL		-100, R44
		SMOVIL		-1, R45
		SADDA.M1		R45:R44,AR14,AR10
		SNOP		1
		SSTW		R42, *AR10
.L79:
	.loc 1 245 0 is_stmt 0 discriminator 1
		SMOVIL		-100, R44
		SMOVIL		-1, R45
		SADDA.M1		R45:R44,AR14,AR10
		SNOP		1
		SLDW		*AR10, R43
		SNOP		5
		SMOVIL		-116, R44
		SMOVIL		-1, R45
		SADDA.M1		R45:R44,AR14,AR10
		SNOP		1
		SLDW		*AR10, R42
		SNOP		5
		SLT		R43, R42, R42
		SMOV.M1		R42, R0
	[R0]	SBR		.L82
		SNOP		6
	.loc 1 245 0
		SBR		.L83
		SNOP		6
.L78:
	.loc 1 255 0 is_stmt 1
		SMOVIL		0, R42
		SMOVIL		-112, R44
		SMOVIL		-1, R45
		SADDA.M1		R45:R44,AR14,AR10
		SNOP		1
		SSTW		R42, *AR10
.L83:
	.loc 1 261 0
		SMOVIL		-112, R44
		SMOVIL		-1, R45
		SADDA.M1		R45:R44,AR14,AR10
		SNOP		1
		SLDW		*AR10, R42
		SNOP		5
		SMOV.M1		R42, R0
	[!R0]	SBR		.L84
		SNOP		6
	.loc 1 263 0
		SMOVIL		-68, R42
		SMOVIL		-1, R43
		SMOVIL		-72, R44
		SMOVIL		-1, R45
		SADDA.M1		R45:R44,AR14,OR11
		SNOP		1
		SADDA.M1		R43:R42,OR11,AR8
		SNOP		1
		SMOVIL		-80, R42
		SMOVIL		-1, R43
		SMOVIL		-72, R46
		SMOVIL		-1, R47
		SADDA.M1		R47:R46,AR14,OR11
		SNOP		1
		SADDA.M1		R43:R42,OR11,OR11
		SNOP		1
		SMVAAGL.M1		OR11, R45:R44
		SNOP		1
		SMVAAGH.M1		OR11, R45:R44
		SNOP		1
		SMOVIL		-84, R42
		SMOVIL		-1, R43
		SMOVIL		-72, R46
		SMOVIL		-1, R47
		SADDA.M1		R47:R46,AR14,OR11
		SNOP		1
		SADDA.M1		R43:R42,OR11,OR11
		SNOP		1
		SMVAAGL.M1		OR11, R43:R42
		SNOP		1
		SMVAAGH.M1		OR11, R43:R42
		SNOP		1
		SMVAGA36.M1		R45:R44, OR11
		SNOP		1
		SMVAAGL.M1		OR11, R11:R10
		SNOP		1
		SMVAAGH.M1		OR11, R11:R10
		SNOP		1
		SMVAGA36.M1		R43:R42, OR11
		SNOP		1
		SMVAAGL.M1		OR11, R13:R12
		SNOP		1
		SMVAAGH.M1		OR11, R13:R12
		SNOP		1
		SMOVIL		-116, R42
		SMOVIL		-1, R43
		SADDA.M1		R43:R42,AR14,AR10
		SNOP		1
		SLDW		*AR10, R14
		SNOP		5
		SMOVIL		-120, R42
		SMOVIL		-1, R43
		SADDA.M1		R43:R42,AR14,AR10
		SNOP		1
		SLDW		*AR10, R16
		SNOP		5
		SMOVIL.L		Q, R18
		SMOVIH.L		Q, R18
		SMOVIH4.L		Q, R19
		SMOVIL.L		R, R20
		SMOVIH.L		R, R20
		SMOVIH4.L		R, R21
		SMOVIL.L		b, R22
		SMOVIH.L		b, R22
		SMOVIH4.L		b, R23
		SMOVIL.L		y, R24
		SMOVIH.L		y, R24
		SMOVIH4.L		y, R25
		SMOVIL.L		x, R26
		SMOVIH.L		x, R26
		SMOVIH4.L		x, R27
		SBR		DSPF_sp_qrd_solver_wrapper
		SMOVIL		.L128, R62
		SMOVIH		.L128, R62
		SMOVIH4.L		.L128, R63
		SNOP		4
.L128:
		SSTW		R10, *AR8
	.loc 1 264 0
		SMOVIL		-84, R42
		SMOVIL		-1, R43
		SMOVIL		-72, R44
		SMOVIL		-1, R45
		SADDA.M1		R45:R44,AR14,OR11
		SNOP		1
		SADDA.M1		R43:R42,OR11,OR11
		SNOP		1
		SMVAAGL.M1		OR11, R43:R42
		SNOP		1
		SMVAAGH.M1		OR11, R43:R42
		SNOP		1
		SMVAGA36.M1		R43:R42, AR10
		SNOP		1
		SLDW		*AR10, R44
		SNOP		5
		SMOVIL		-80, R42
		SMOVIL		-1, R43
		SMOVIL		-72, R46
		SMOVIL		-1, R47
		SADDA.M1		R47:R46,AR14,OR11
		SNOP		1
		SADDA.M1		R43:R42,OR11,OR11
		SNOP		1
		SMVAAGL.M1		OR11, R43:R42
		SNOP		1
		SMVAAGH.M1		OR11, R43:R42
		SNOP		1
		SMVAGA36.M1		R43:R42, AR10
		SNOP		1
		SLDW		*AR10, R42
		SNOP		5
		SSUB.M1		R42, R44, R42
		SMOVIL		-76, R44
		SMOVIL		-1, R45
		SADDA.M1		R45:R44,AR14,AR10
		SNOP		1
		SSTW		R42, *AR10
	.loc 1 266 0
		SMOVIL		-68, R42
		SMOVIL		-1, R43
		SMOVIL		-72, R44
		SMOVIL		-1, R45
		SADDA.M1		R45:R44,AR14,OR11
		SNOP		1
		SADDA.M1		R43:R42,OR11,OR11
		SNOP		1
		SMVAAGL.M1		OR11, R43:R42
		SNOP		1
		SMVAAGH.M1		OR11, R43:R42
		SNOP		1
		SMVAGA36.M1		R43:R42, AR10
		SNOP		1
		SLDW		*AR10, R42
		SNOP		5
		SMOVIL		-1, R0
		SEQ		R0, R42, R42
		SMOV.M1		R42, R0
	[!R0]	SBR		.L85
		SNOP		6
	.loc 1 268 0
		SMOVIL.L		.LC8, R10
		SMOVIH.L		.LC8, R10
		SMOVIH4.L		.LC8, R11
		SBR		puts
		SMOVIL		.L129, R62
		SMOVIH		.L129, R62
		SMOVIH4.L		.L129, R63
		SNOP		4
.L129:
.L85:
	.loc 1 274 0
		SMOVIL		0, R42
		SMOVIL		-100, R44
		SMOVIL		-1, R45
		SADDA.M1		R45:R44,AR14,AR10
		SNOP		1
		SSTW		R42, *AR10
		SBR		.L86
		SNOP		6
.L92:
	.loc 1 276 0
		SMOVIL		0, R42
		SMOVIH		0, R42
		SMOVIL		-92, R44
		SMOVIL		-1, R45
		SADDA.M1		R45:R44,AR14,AR10
		SNOP		1
		SSTW		R42, *AR10
	.loc 1 277 0
		SMOVIL		0, R42
		SMOVIL		-104, R44
		SMOVIL		-1, R45
		SADDA.M1		R45:R44,AR14,AR10
		SNOP		1
		SSTW		R42, *AR10
		SBR		.L87
		SNOP		6
.L88:
	.loc 1 279 0 discriminator 2
		SMOVIL		-100, R44
		SMOVIL		-1, R45
		SADDA.M1		R45:R44,AR14,AR10
		SNOP		1
		SLDW		*AR10, R43
		SNOP		5
		SMOVIL		-120, R44
		SMOVIL		-1, R45
		SADDA.M1		R45:R44,AR14,AR10
		SNOP		1
		SLDW		*AR10, R42
		SNOP		5
		SMULIS.M1		R42,R43,R43
		SNOP		2
		SMOVIL		-104, R44
		SMOVIL		-1, R45
		SADDA.M1		R45:R44,AR14,AR10
		SNOP		1
		SLDW		*AR10, R42
		SNOP		5
		SADD.M1		R42,R43,R42
		SMOVIL.L		A, R46
		SMOVIH.L		A, R46
		SMOVIH4.L		A, R47
		SMOVIL		-232, R44
		SMOVIL		-1, R45
		SADDA.M1		R45:R44,AR14,AR10
		SNOP		1
		SSTW		R42, *AR10
		SSHFAR		31, R42, R42
		SMOVIL		-228, R44
		SMOVIL		-1, R45
		SADDA.M1		R45:R44,AR14,AR10
		SNOP		1
		SSTW		R42, *AR10
		SMOVIL		-232, R44
		SMOVIL		-1, R45
		SADDA.M1		R45:R44,AR14,AR10
		SNOP		1
		SLDW		*AR10, R48
		SNOP		5
		SMOVIL		-232, R44
		SMOVIL		-1, R45
		SADDA.M1		R45:R44,AR14,AR10
		SNOP		1
		SLDW		*AR10, R44
		SNOP		5
		SADD.M1		R44,R48,R42
		SMOVIL		-232, R48
		SMOVIL		-1, R49
		SADDA.M1		R49:R48,AR14,AR10
		SNOP		1
		SLDW		*AR10, R45
		SNOP		5
		SLTU		R42, R45, R44
		SMOVIL		-228, R48
		SMOVIL		-1, R49
		SADDA.M1		R49:R48,AR14,AR10
		SNOP		1
		SLDW		*AR10, R45
		SNOP		5
		SMOVIL		-228, R48
		SMOVIL		-1, R49
		SADDA.M1		R49:R48,AR14,AR10
		SNOP		1
		SLDW		*AR10, R48
		SNOP		5
		SADD.M1		R48,R45,R43
		SADD.M1		R43,R44,R44
		SMOV.M1		R44, R43
		SADD.M1		R42,R42,R44
		SLTU		R44, R42, R48
		SADD.M1		R43,R43,R45
		SADD.M1		R45,R48,R42
		SMOV.M1		R42, R45
		SMOV.M1		R44, R42
		SMOV.M1		R45, R43
	;no-op trunc di R43:R42 to pdi R43:R42
		SMVAGA36.M1		R47:R46, OR11
		SNOP		1
		SADDA.M1		R43:R42,OR11,OR11
		SNOP		1
		SMVAAGL.M1		OR11, R43:R42
		SNOP		1
		SMVAAGH.M1		OR11, R43:R42
		SNOP		1
		SMVAGA36.M1		R43:R42, AR10
		SNOP		1
		SLDW		*AR10, R48
		SNOP		5
		SMOVIL.L		x, R46
		SMOVIH.L		x, R46
		SMOVIH4.L		x, R47
		SMOVIL		-104, R42
		SMOVIL		-1, R43
		SADDA.M1		R43:R42,AR14,AR10
		SNOP		1
		SLDW		*AR10, R44
		SNOP		5
		SMOVIL		-240, R42
		SMOVIL		-1, R43
		SADDA.M1		R43:R42,AR14,AR10
		SNOP		1
		SSTW		R44, *AR10
		SMOVIL		-104, R44
		SMOVIL		-1, R45
		SADDA.M1		R45:R44,AR14,AR10
		SNOP		1
		SLDW		*AR10, R42
		SNOP		5
		SSHFAR		31, R42, R42
		SMOVIL		-236, R44
		SMOVIL		-1, R45
		SADDA.M1		R45:R44,AR14,AR10
		SNOP		1
		SSTW		R42, *AR10
		SMOVIL		-240, R44
		SMOVIL		-1, R45
		SADDA.M1		R45:R44,AR14,AR10
		SNOP		1
		SLDW		*AR10, R49
		SNOP		5
		SMOVIL		-240, R44
		SMOVIL		-1, R45
		SADDA.M1		R45:R44,AR14,AR10
		SNOP		1
		SLDW		*AR10, R44
		SNOP		5
		SADD.M1		R44,R49,R42
		SMOVIL		-240, R50
		SMOVIL		-1, R51
		SADDA.M1		R51:R50,AR14,AR10
		SNOP		1
		SLDW		*AR10, R45
		SNOP		5
		SLTU		R42, R45, R44
		SMOVIL		-236, R50
		SMOVIL		-1, R51
		SADDA.M1		R51:R50,AR14,AR10
		SNOP		1
		SLDW		*AR10, R45
		SNOP		5
		SMOVIL		-236, R50
		SMOVIL		-1, R51
		SADDA.M1		R51:R50,AR14,AR10
		SNOP		1
		SLDW		*AR10, R49
		SNOP		5
		SADD.M1		R49,R45,R43
		SADD.M1		R43,R44,R44
		SMOV.M1		R44, R43
		SADD.M1		R42,R42,R44
		SLTU		R44, R42, R49
		SADD.M1		R43,R43,R45
		SADD.M1		R45,R49,R42
		SMOV.M1		R42, R45
		SMOV.M1		R44, R42
		SMOV.M1		R45, R43
	;no-op trunc di R43:R42 to pdi R43:R42
		SMVAGA36.M1		R47:R46, OR11
		SNOP		1
		SADDA.M1		R43:R42,OR11,OR11
		SNOP		1
		SMVAAGL.M1		OR11, R43:R42
		SNOP		1
		SMVAAGH.M1		OR11, R43:R42
		SNOP		1
		SMVAGA36.M1		R43:R42, AR10
		SNOP		1
		SLDW		*AR10, R42
		SNOP		5
		SFMULS32.M1		R48, R42, R42
		SNOP		3
		SMOVIL		-92, R44
		SMOVIL		-1, R45
		SADDA.M1		R45:R44,AR14,AR10
		SNOP		1
		SLDW		*AR10, R43
		SNOP		5
		SFADDS32.M1		R43, R42, R42
		SNOP		2
		SMOVIL		-92, R44
		SMOVIL		-1, R45
		SADDA.M1		R45:R44,AR14,AR10
		SNOP		1
		SSTW		R42, *AR10
	.loc 1 277 0 discriminator 2
		SMOVIL		-104, R44
		SMOVIL		-1, R45
		SADDA.M1		R45:R44,AR14,AR10
		SNOP		1
		SLDW		*AR10, R42
		SNOP		5
		SADD.M1		1,R42,R42
		SMOVIL		-104, R44
		SMOVIL		-1, R45
		SADDA.M1		R45:R44,AR14,AR10
		SNOP		1
		SSTW		R42, *AR10
.L87:
	.loc 1 277 0 is_stmt 0 discriminator 1
		SMOVIL		-104, R44
		SMOVIL		-1, R45
		SADDA.M1		R45:R44,AR14,AR10
		SNOP		1
		SLDW		*AR10, R43
		SNOP		5
		SMOVIL		-120, R44
		SMOVIL		-1, R45
		SADDA.M1		R45:R44,AR14,AR10
		SNOP		1
		SLDW		*AR10, R42
		SNOP		5
		SLT		R43, R42, R42
		SMOV.M1		R42, R0
	[R0]	SBR		.L88
		SNOP		6
	.loc 1 281 0 is_stmt 1
		SMOVIL.L		b, R46
		SMOVIH.L		b, R46
		SMOVIH4.L		b, R47
		SMOVIL		-100, R42
		SMOVIL		-1, R43
		SADDA.M1		R43:R42,AR14,AR10
		SNOP		1
		SLDW		*AR10, R44
		SNOP		5
		SMOVIL		-248, R42
		SMOVIL		-1, R43
		SADDA.M1		R43:R42,AR14,AR10
		SNOP		1
		SSTW		R44, *AR10
		SMOVIL		-100, R44
		SMOVIL		-1, R45
		SADDA.M1		R45:R44,AR14,AR10
		SNOP		1
		SLDW		*AR10, R42
		SNOP		5
		SSHFAR		31, R42, R42
		SMOVIL		-244, R44
		SMOVIL		-1, R45
		SADDA.M1		R45:R44,AR14,AR10
		SNOP		1
		SSTW		R42, *AR10
		SMOVIL		-248, R44
		SMOVIL		-1, R45
		SADDA.M1		R45:R44,AR14,AR10
		SNOP		1
		SLDW		*AR10, R48
		SNOP		5
		SMOVIL		-248, R44
		SMOVIL		-1, R45
		SADDA.M1		R45:R44,AR14,AR10
		SNOP		1
		SLDW		*AR10, R44
		SNOP		5
		SADD.M1		R44,R48,R42
		SMOVIL		-248, R48
		SMOVIL		-1, R49
		SADDA.M1		R49:R48,AR14,AR10
		SNOP		1
		SLDW		*AR10, R45
		SNOP		5
		SLTU		R42, R45, R44
		SMOVIL		-244, R48
		SMOVIL		-1, R49
		SADDA.M1		R49:R48,AR14,AR10
		SNOP		1
		SLDW		*AR10, R45
		SNOP		5
		SMOVIL		-244, R48
		SMOVIL		-1, R49
		SADDA.M1		R49:R48,AR14,AR10
		SNOP		1
		SLDW		*AR10, R48
		SNOP		5
		SADD.M1		R48,R45,R43
		SADD.M1		R43,R44,R44
		SMOV.M1		R44, R43
		SADD.M1		R42,R42,R44
		SLTU		R44, R42, R48
		SADD.M1		R43,R43,R45
		SADD.M1		R45,R48,R42
		SMOV.M1		R42, R45
		SMOV.M1		R44, R42
		SMOV.M1		R45, R43
	;no-op trunc di R43:R42 to pdi R43:R42
		SMVAGA36.M1		R47:R46, OR11
		SNOP		1
		SADDA.M1		R43:R42,OR11,OR11
		SNOP		1
		SMVAAGL.M1		OR11, R43:R42
		SNOP		1
		SMVAAGH.M1		OR11, R43:R42
		SNOP		1
		SMVAGA36.M1		R43:R42, AR10
		SNOP		1
		SLDW		*AR10, R43
		SNOP		5
		SMOVIL		-92, R44
		SMOVIL		-1, R45
		SADDA.M1		R45:R44,AR14,AR10
		SNOP		1
		SLDW		*AR10, R42
		SNOP		5
		SFSUBS32.M1		R42, R43, R42
		SNOP		2
		SFSPDP32T.M1		R42, R43:R42
		SNOP		1
		SFABSD.M1		R43:R42, R43:R42
		SNOP		1
		SFDPSP32.M1		R43:R42, R42
		SNOP		2
		SMOVIL		-96, R44
		SMOVIL		-1, R45
		SADDA.M1		R45:R44,AR14,AR10
		SNOP		1
		SSTW		R42, *AR10
	.loc 1 282 0
		SMOVIL		-96, R44
		SMOVIL		-1, R45
		SADDA.M1		R45:R44,AR14,AR10
		SNOP		1
		SLDW		*AR10, R43
		SNOP		5
		SMOVIL		-132, R44
		SMOVIL		-1, R45
		SADDA.M1		R45:R44,AR14,AR10
		SNOP		1
		SLDW		*AR10, R42
		SNOP		5
		SFCMPGS32.M1		R43, R42, R42
		SMOV.M1		R42, R0
	[!R0]	SBR		.L113
		SNOP		6
.L110:
	.loc 1 284 0
		SMOVIL		0, R42
		SMOVIL		-88, R44
		SMOVIL		-1, R45
		SADDA.M1		R45:R44,AR14,AR10
		SNOP		1
		SSTW		R42, *AR10
	.loc 1 285 0
		SMOVIL		-96, R44
		SMOVIL		-1, R45
		SADDA.M1		R45:R44,AR14,AR10
		SNOP		1
		SLDW		*AR10, R42
		SNOP		5
		SFSPDP32T.M1		R42, R43:R42
		SNOP		1
		SMOVIL.L		.LC9, R44
		SMOVIH.L		.LC9, R44
		SMOVIH4.L		.LC9, R45
		SSTDW		R45:R44, *+AR15[1]
		SSTDW		R43:R42, *+AR15[2]
		SBR		printf
		SMOVIL		.L130, R62
		SMOVIH		.L130, R62
		SMOVIH4.L		.L130, R63
		SNOP		4
.L130:
	.loc 1 286 0
		SBR		.L91
		SNOP		6
.L113:
	.loc 1 274 0
		SMOVIL		-100, R44
		SMOVIL		-1, R45
		SADDA.M1		R45:R44,AR14,AR10
		SNOP		1
		SLDW		*AR10, R42
		SNOP		5
		SADD.M1		1,R42,R42
		SMOVIL		-100, R44
		SMOVIL		-1, R45
		SADDA.M1		R45:R44,AR14,AR10
		SNOP		1
		SSTW		R42, *AR10
.L86:
	.loc 1 274 0 is_stmt 0 discriminator 1
		SMOVIL		-100, R44
		SMOVIL		-1, R45
		SADDA.M1		R45:R44,AR14,AR10
		SNOP		1
		SLDW		*AR10, R43
		SNOP		5
		SMOVIL		-116, R44
		SMOVIL		-1, R45
		SADDA.M1		R45:R44,AR14,AR10
		SNOP		1
		SLDW		*AR10, R42
		SNOP		5
		SLT		R43, R42, R42
		SMOV.M1		R42, R0
	[R0]	SBR		.L92
		SNOP		6
.L91:
	.loc 1 295 0 is_stmt 1
		SMOVIL		-68, R42
		SMOVIL		-1, R43
		SMOVIL		-72, R44
		SMOVIL		-1, R45
		SADDA.M1		R45:R44,AR14,OR11
		SNOP		1
		SADDA.M1		R43:R42,OR11,AR8
		SNOP		1
		SMOVIL		-80, R42
		SMOVIL		-1, R43
		SMOVIL		-72, R46
		SMOVIL		-1, R47
		SADDA.M1		R47:R46,AR14,OR11
		SNOP		1
		SADDA.M1		R43:R42,OR11,OR11
		SNOP		1
		SMVAAGL.M1		OR11, R45:R44
		SNOP		1
		SMVAAGH.M1		OR11, R45:R44
		SNOP		1
		SMOVIL		-84, R42
		SMOVIL		-1, R43
		SMOVIL		-72, R46
		SMOVIL		-1, R47
		SADDA.M1		R47:R46,AR14,OR11
		SNOP		1
		SADDA.M1		R43:R42,OR11,OR11
		SNOP		1
		SMVAAGL.M1		OR11, R43:R42
		SNOP		1
		SMVAAGH.M1		OR11, R43:R42
		SNOP		1
		SMVAGA36.M1		R45:R44, OR11
		SNOP		1
		SMVAAGL.M1		OR11, R11:R10
		SNOP		1
		SMVAAGH.M1		OR11, R11:R10
		SNOP		1
		SMVAGA36.M1		R43:R42, OR11
		SNOP		1
		SMVAAGL.M1		OR11, R13:R12
		SNOP		1
		SMVAAGH.M1		OR11, R13:R12
		SNOP		1
		SMOVIL		-116, R42
		SMOVIL		-1, R43
		SADDA.M1		R43:R42,AR14,AR10
		SNOP		1
		SLDW		*AR10, R14
		SNOP		5
		SMOVIL		-120, R42
		SMOVIL		-1, R43
		SADDA.M1		R43:R42,AR14,AR10
		SNOP		1
		SLDW		*AR10, R16
		SNOP		5
		SMOVIL.L		Q, R18
		SMOVIH.L		Q, R18
		SMOVIH4.L		Q, R19
		SMOVIL.L		R, R20
		SMOVIH.L		R, R20
		SMOVIH4.L		R, R21
		SMOVIL.L		inv_A, R22
		SMOVIH.L		inv_A, R22
		SMOVIH4.L		inv_A, R23
		SBR		DSPF_sp_qrd_inverse_wrapper
		SMOVIL		.L131, R62
		SMOVIH		.L131, R62
		SMOVIH4.L		.L131, R63
		SNOP		4
.L131:
		SSTW		R10, *AR8
	.loc 1 296 0
		SMOVIL		-84, R42
		SMOVIL		-1, R43
		SMOVIL		-72, R44
		SMOVIL		-1, R45
		SADDA.M1		R45:R44,AR14,OR11
		SNOP		1
		SADDA.M1		R43:R42,OR11,OR11
		SNOP		1
		SMVAAGL.M1		OR11, R43:R42
		SNOP		1
		SMVAAGH.M1		OR11, R43:R42
		SNOP		1
		SMVAGA36.M1		R43:R42, AR10
		SNOP		1
		SLDW		*AR10, R44
		SNOP		5
		SMOVIL		-80, R42
		SMOVIL		-1, R43
		SMOVIL		-72, R46
		SMOVIL		-1, R47
		SADDA.M1		R47:R46,AR14,OR11
		SNOP		1
		SADDA.M1		R43:R42,OR11,OR11
		SNOP		1
		SMVAAGL.M1		OR11, R43:R42
		SNOP		1
		SMVAAGH.M1		OR11, R43:R42
		SNOP		1
		SMVAGA36.M1		R43:R42, AR10
		SNOP		1
		SLDW		*AR10, R42
		SNOP		5
		SSUB.M1		R42, R44, R42
		SMOVIL		-80, R44
		SMOVIL		-1, R45
		SADDA.M1		R45:R44,AR14,AR10
		SNOP		1
		SSTW		R42, *AR10
	.loc 1 301 0
		SMOVIL		0, R42
		SMOVIL		-100, R44
		SMOVIL		-1, R45
		SADDA.M1		R45:R44,AR14,AR10
		SNOP		1
		SSTW		R42, *AR10
		SBR		.L93
		SNOP		6
.L103:
	.loc 1 303 0
		SMOVIL		0, R42
		SMOVIL		-104, R44
		SMOVIL		-1, R45
		SADDA.M1		R45:R44,AR14,AR10
		SNOP		1
		SSTW		R42, *AR10
		SBR		.L94
		SNOP		6
.L102:
	.loc 1 305 0
		SMOVIL		0, R42
		SMOVIH		0, R42
		SMOVIL		-92, R44
		SMOVIL		-1, R45
		SADDA.M1		R45:R44,AR14,AR10
		SNOP		1
		SSTW		R42, *AR10
	.loc 1 306 0
		SMOVIL		0, R42
		SMOVIL		-108, R44
		SMOVIL		-1, R45
		SADDA.M1		R45:R44,AR14,AR10
		SNOP		1
		SSTW		R42, *AR10
		SBR		.L95
		SNOP		6
.L96:
	.loc 1 308 0 discriminator 2
		SMOVIL		-100, R44
		SMOVIL		-1, R45
		SADDA.M1		R45:R44,AR14,AR10
		SNOP		1
		SLDW		*AR10, R43
		SNOP		5
		SMOVIL		-120, R44
		SMOVIL		-1, R45
		SADDA.M1		R45:R44,AR14,AR10
		SNOP		1
		SLDW		*AR10, R42
		SNOP		5
		SMULIS.M1		R42,R43,R43
		SNOP		2
		SMOVIL		-108, R44
		SMOVIL		-1, R45
		SADDA.M1		R45:R44,AR14,AR10
		SNOP		1
		SLDW		*AR10, R42
		SNOP		5
		SADD.M1		R42,R43,R42
		SMOVIL.L		inv_A, R46
		SMOVIH.L		inv_A, R46
		SMOVIH4.L		inv_A, R47
		SMOVIL		-256, R44
		SMOVIL		-1, R45
		SADDA.M1		R45:R44,AR14,AR10
		SNOP		1
		SSTW		R42, *AR10
		SSHFAR		31, R42, R42
		SMOVIL		-252, R44
		SMOVIL		-1, R45
		SADDA.M1		R45:R44,AR14,AR10
		SNOP		1
		SSTW		R42, *AR10
		SMOVIL		-256, R44
		SMOVIL		-1, R45
		SADDA.M1		R45:R44,AR14,AR10
		SNOP		1
		SLDW		*AR10, R48
		SNOP		5
		SMOVIL		-256, R44
		SMOVIL		-1, R45
		SADDA.M1		R45:R44,AR14,AR10
		SNOP		1
		SLDW		*AR10, R44
		SNOP		5
		SADD.M1		R44,R48,R42
		SMOVIL		-256, R48
		SMOVIL		-1, R49
		SADDA.M1		R49:R48,AR14,AR10
		SNOP		1
		SLDW		*AR10, R45
		SNOP		5
		SLTU		R42, R45, R44
		SMOVIL		-252, R48
		SMOVIL		-1, R49
		SADDA.M1		R49:R48,AR14,AR10
		SNOP		1
		SLDW		*AR10, R45
		SNOP		5
		SMOVIL		-252, R48
		SMOVIL		-1, R49
		SADDA.M1		R49:R48,AR14,AR10
		SNOP		1
		SLDW		*AR10, R48
		SNOP		5
		SADD.M1		R48,R45,R43
		SADD.M1		R43,R44,R44
		SMOV.M1		R44, R43
		SADD.M1		R42,R42,R44
		SLTU		R44, R42, R48
		SADD.M1		R43,R43,R45
		SADD.M1		R45,R48,R42
		SMOV.M1		R42, R45
		SMOV.M1		R44, R42
		SMOV.M1		R45, R43
	;no-op trunc di R43:R42 to pdi R43:R42
		SMVAGA36.M1		R47:R46, OR11
		SNOP		1
		SADDA.M1		R43:R42,OR11,OR11
		SNOP		1
		SMVAAGL.M1		OR11, R43:R42
		SNOP		1
		SMVAAGH.M1		OR11, R43:R42
		SNOP		1
		SMVAGA36.M1		R43:R42, AR10
		SNOP		1
		SLDW		*AR10, R48
		SNOP		5
		SMOVIL		-108, R44
		SMOVIL		-1, R45
		SADDA.M1		R45:R44,AR14,AR10
		SNOP		1
		SLDW		*AR10, R43
		SNOP		5
		SMOVIL		-120, R44
		SMOVIL		-1, R45
		SADDA.M1		R45:R44,AR14,AR10
		SNOP		1
		SLDW		*AR10, R42
		SNOP		5
		SMULIS.M1		R42,R43,R43
		SNOP		2
		SMOVIL		-104, R44
		SMOVIL		-1, R45
		SADDA.M1		R45:R44,AR14,AR10
		SNOP		1
		SLDW		*AR10, R42
		SNOP		5
		SADD.M1		R42,R43,R42
		SMOVIL.L		A, R46
		SMOVIH.L		A, R46
		SMOVIH4.L		A, R47
		SMOVIL		-264, R44
		SMOVIL		-1, R45
		SADDA.M1		R45:R44,AR14,AR10
		SNOP		1
		SSTW		R42, *AR10
		SSHFAR		31, R42, R42
		SMOVIL		-260, R44
		SMOVIL		-1, R45
		SADDA.M1		R45:R44,AR14,AR10
		SNOP		1
		SSTW		R42, *AR10
		SMOVIL		-264, R44
		SMOVIL		-1, R45
		SADDA.M1		R45:R44,AR14,AR10
		SNOP		1
		SLDW		*AR10, R49
		SNOP		5
		SMOVIL		-264, R44
		SMOVIL		-1, R45
		SADDA.M1		R45:R44,AR14,AR10
		SNOP		1
		SLDW		*AR10, R44
		SNOP		5
		SADD.M1		R44,R49,R42
		SMOVIL		-264, R50
		SMOVIL		-1, R51
		SADDA.M1		R51:R50,AR14,AR10
		SNOP		1
		SLDW		*AR10, R45
		SNOP		5
		SLTU		R42, R45, R44
		SMOVIL		-260, R50
		SMOVIL		-1, R51
		SADDA.M1		R51:R50,AR14,AR10
		SNOP		1
		SLDW		*AR10, R45
		SNOP		5
		SMOVIL		-260, R50
		SMOVIL		-1, R51
		SADDA.M1		R51:R50,AR14,AR10
		SNOP		1
		SLDW		*AR10, R49
		SNOP		5
		SADD.M1		R49,R45,R43
		SADD.M1		R43,R44,R44
		SMOV.M1		R44, R43
		SADD.M1		R42,R42,R44
		SLTU		R44, R42, R49
		SADD.M1		R43,R43,R45
		SADD.M1		R45,R49,R42
		SMOV.M1		R42, R45
		SMOV.M1		R44, R42
		SMOV.M1		R45, R43
	;no-op trunc di R43:R42 to pdi R43:R42
		SMVAGA36.M1		R47:R46, OR11
		SNOP		1
		SADDA.M1		R43:R42,OR11,OR11
		SNOP		1
		SMVAAGL.M1		OR11, R43:R42
		SNOP		1
		SMVAAGH.M1		OR11, R43:R42
		SNOP		1
		SMVAGA36.M1		R43:R42, AR10
		SNOP		1
		SLDW		*AR10, R42
		SNOP		5
		SFMULS32.M1		R48, R42, R42
		SNOP		3
		SMOVIL		-92, R44
		SMOVIL		-1, R45
		SADDA.M1		R45:R44,AR14,AR10
		SNOP		1
		SLDW		*AR10, R43
		SNOP		5
		SFADDS32.M1		R43, R42, R42
		SNOP		2
		SMOVIL		-92, R44
		SMOVIL		-1, R45
		SADDA.M1		R45:R44,AR14,AR10
		SNOP		1
		SSTW		R42, *AR10
	.loc 1 306 0 discriminator 2
		SMOVIL		-108, R44
		SMOVIL		-1, R45
		SADDA.M1		R45:R44,AR14,AR10
		SNOP		1
		SLDW		*AR10, R42
		SNOP		5
		SADD.M1		1,R42,R42
		SMOVIL		-108, R44
		SMOVIL		-1, R45
		SADDA.M1		R45:R44,AR14,AR10
		SNOP		1
		SSTW		R42, *AR10
.L95:
	.loc 1 306 0 is_stmt 0 discriminator 1
		SMOVIL		-108, R44
		SMOVIL		-1, R45
		SADDA.M1		R45:R44,AR14,AR10
		SNOP		1
		SLDW		*AR10, R43
		SNOP		5
		SMOVIL		-120, R44
		SMOVIL		-1, R45
		SADDA.M1		R45:R44,AR14,AR10
		SNOP		1
		SLDW		*AR10, R42
		SNOP		5
		SLT		R43, R42, R42
		SMOV.M1		R42, R0
	[R0]	SBR		.L96
		SNOP		6
	.loc 1 310 0 is_stmt 1
		SMOVIL		-100, R44
		SMOVIL		-1, R45
		SADDA.M1		R45:R44,AR14,AR10
		SNOP		1
		SLDW		*AR10, R43
		SNOP		5
		SMOVIL		-104, R44
		SMOVIL		-1, R45
		SADDA.M1		R45:R44,AR14,AR10
		SNOP		1
		SLDW		*AR10, R42
		SNOP		5
		SEQ		R42, R43, R42
		SMOV.M1		R42, R0
	[!R0]	SBR		.L97
		SNOP		6
	.loc 1 311 0
		SMOVIL		-92, R44
		SMOVIL		-1, R45
		SADDA.M1		R45:R44,AR14,AR10
		SNOP		1
		SLDW		*AR10, R43
		SNOP		5
		SMOVIL		1065353216, R42
		SMOVIH		1065353216, R42
		SFSUBS32.M1		R42, R43, R42
		SNOP		2
		SFSPDP32T.M1		R42, R43:R42
		SNOP		1
		SFABSD.M1		R43:R42, R43:R42
		SNOP		1
		SFDPSP32.M1		R43:R42, R42
		SNOP		2
		SMOVIL		-96, R44
		SMOVIL		-1, R45
		SADDA.M1		R45:R44,AR14,AR10
		SNOP		1
		SSTW		R42, *AR10
		SBR		.L98
		SNOP		6
.L97:
	.loc 1 313 0
		SMOVIL		-92, R44
		SMOVIL		-1, R45
		SADDA.M1		R45:R44,AR14,AR10
		SNOP		1
		SLDW		*AR10, R42
		SNOP		5
		SFSPDP32T.M1		R42, R43:R42
		SNOP		1
		SFABSD.M1		R43:R42, R43:R42
		SNOP		1
		SFDPSP32.M1		R43:R42, R42
		SNOP		2
		SMOVIL		-96, R44
		SMOVIL		-1, R45
		SADDA.M1		R45:R44,AR14,AR10
		SNOP		1
		SSTW		R42, *AR10
.L98:
	.loc 1 314 0
		SMOVIL		-64, R42
		SMOVIL		-1, R43
		SMOVIL		-72, R44
		SMOVIL		-1, R45
		SADDA.M1		R45:R44,AR14,OR11
		SNOP		1
		SADDA.M1		R43:R42,OR11,OR11
		SNOP		1
		SMVAAGL.M1		OR11, R43:R42
		SNOP		1
		SMVAAGH.M1		OR11, R43:R42
		SNOP		1
		SMOVIL		-96, R46
		SMOVIL		-1, R47
		SADDA.M1		R47:R46,AR14,AR10
		SNOP		1
		SLDW		*AR10, R44
		SNOP		5
		SMVAGA36.M1		R43:R42, AR10
		SNOP		1
		SLDW		*AR10, R42
		SNOP		5
		SFCMPGS32.M1		R44, R42, R42
		SMOV.M1		R42, R0
	[!R0]	SBR		.L114
		SNOP		6
.L111:
	.loc 1 316 0
		SMOVIL		0, R42
		SMOVIL		-88, R44
		SMOVIL		-1, R45
		SADDA.M1		R45:R44,AR14,AR10
		SNOP		1
		SSTW		R42, *AR10
	.loc 1 317 0
		SMOVIL		-96, R44
		SMOVIL		-1, R45
		SADDA.M1		R45:R44,AR14,AR10
		SNOP		1
		SLDW		*AR10, R42
		SNOP		5
		SFSPDP32T.M1		R42, R43:R42
		SNOP		1
		SMOVIL.L		.LC10, R44
		SMOVIH.L		.LC10, R44
		SMOVIH4.L		.LC10, R45
		SSTDW		R45:R44, *+AR15[1]
		SSTDW		R43:R42, *+AR15[2]
		SBR		printf
		SMOVIL		.L132, R62
		SMOVIH		.L132, R62
		SMOVIH4.L		.L132, R63
		SNOP		4
.L132:
	.loc 1 318 0
		SBR		.L101
		SNOP		6
.L114:
	.loc 1 303 0
		SMOVIL		-104, R44
		SMOVIL		-1, R45
		SADDA.M1		R45:R44,AR14,AR10
		SNOP		1
		SLDW		*AR10, R42
		SNOP		5
		SADD.M1		1,R42,R42
		SMOVIL		-104, R44
		SMOVIL		-1, R45
		SADDA.M1		R45:R44,AR14,AR10
		SNOP		1
		SSTW		R42, *AR10
.L94:
	.loc 1 303 0 is_stmt 0 discriminator 1
		SMOVIL		-104, R44
		SMOVIL		-1, R45
		SADDA.M1		R45:R44,AR14,AR10
		SNOP		1
		SLDW		*AR10, R43
		SNOP		5
		SMOVIL		-120, R44
		SMOVIL		-1, R45
		SADDA.M1		R45:R44,AR14,AR10
		SNOP		1
		SLDW		*AR10, R42
		SNOP		5
		SLT		R43, R42, R42
		SMOV.M1		R42, R0
	[R0]	SBR		.L102
		SNOP		6
.L101:
	.loc 1 301 0 is_stmt 1
		SMOVIL		-100, R44
		SMOVIL		-1, R45
		SADDA.M1		R45:R44,AR14,AR10
		SNOP		1
		SLDW		*AR10, R42
		SNOP		5
		SADD.M1		1,R42,R42
		SMOVIL		-100, R44
		SMOVIL		-1, R45
		SADDA.M1		R45:R44,AR14,AR10
		SNOP		1
		SSTW		R42, *AR10
.L93:
	.loc 1 301 0 is_stmt 0 discriminator 1
		SMOVIL		-100, R44
		SMOVIL		-1, R45
		SADDA.M1		R45:R44,AR14,AR10
		SNOP		1
		SLDW		*AR10, R43
		SNOP		5
		SMOVIL		-116, R44
		SMOVIL		-1, R45
		SADDA.M1		R45:R44,AR14,AR10
		SNOP		1
		SLDW		*AR10, R42
		SNOP		5
		SLT		R43, R42, R42
		SMOV.M1		R42, R0
	[R0]	SBR		.L103
		SNOP		6
.L84:
	.loc 1 324 0 is_stmt 1
		SMOVIL		-88, R44
		SMOVIL		-1, R45
		SADDA.M1		R45:R44,AR14,AR10
		SNOP		1
		SLDW		*AR10, R42
		SNOP		5
		SMOV.M1		R42, R0
	[!R0]	SBR		.L104
		SNOP		6
	.loc 1 326 0
		SMOVIL.L		.LC11, R42
		SMOVIH.L		.LC11, R42
		SMOVIH4.L		.LC11, R43
		SSTDW		R43:R42, *+AR15[1]
		SBR		printf
		SMOVIL		.L133, R62
		SMOVIH		.L133, R62
		SMOVIH4.L		.L133, R63
		SNOP		4
.L133:
	.loc 1 327 0
		SMOVIL.L		.LC12, R42
		SMOVIH.L		.LC12, R42
		SMOVIH4.L		.LC12, R43
		SSTDW		R43:R42, *+AR15[1]
		SMOVIL		-116, R44
		SMOVIL		-1, R45
		SADDA.M1		R45:R44,AR14,AR10
		SNOP		1
		SLDW		*AR10, R42
		SNOP		5
		SSTW		R42, *+AR15[4]
		SMOVIL		-120, R44
		SMOVIL		-1, R45
		SADDA.M1		R45:R44,AR14,AR10
		SNOP		1
		SLDW		*AR10, R42
		SNOP		5
		SSTW		R42, *+AR15[5]
		SMOVIL		-72, R42
		SMOVIL		-1, R43
		SMOVIL		-72, R44
		SMOVIL		-1, R45
		SADDA.M1		R45:R44,AR14,OR11
		SNOP		1
		SADDA.M1		R43:R42,OR11,OR11
		SNOP		1
		SMVAAGL.M1		OR11, R43:R42
		SNOP		1
		SMVAAGH.M1		OR11, R43:R42
		SNOP		1
		SMVAGA36.M1		R43:R42, AR10
		SNOP		1
		SLDW		*AR10, R42
		SNOP		5
		SSTW		R42, *+AR15[6]
		SMOVIL		-76, R44
		SMOVIL		-1, R45
		SADDA.M1		R45:R44,AR14,AR10
		SNOP		1
		SLDW		*AR10, R42
		SNOP		5
		SSTW		R42, *+AR15[7]
		SMOVIL		-80, R44
		SMOVIL		-1, R45
		SADDA.M1		R45:R44,AR14,AR10
		SNOP		1
		SLDW		*AR10, R42
		SNOP		5
		SSTW		R42, *+AR15[8]
		SBR		printf
		SMOVIL		.L134, R62
		SMOVIH		.L134, R62
		SMOVIH4.L		.L134, R63
		SNOP		4
.L134:
		SBR		.L105
		SNOP		6
.L104:
	.loc 1 331 0
		SMOVIL.L		.LC13, R42
		SMOVIH.L		.LC13, R42
		SMOVIH4.L		.LC13, R43
		SSTDW		R43:R42, *+AR15[1]
		SMOVIL		-116, R44
		SMOVIL		-1, R45
		SADDA.M1		R45:R44,AR14,AR10
		SNOP		1
		SLDW		*AR10, R42
		SNOP		5
		SSTW		R42, *+AR15[4]
		SMOVIL		-120, R44
		SMOVIL		-1, R45
		SADDA.M1		R45:R44,AR14,AR10
		SNOP		1
		SLDW		*AR10, R42
		SNOP		5
		SSTW		R42, *+AR15[5]
		SBR		printf
		SMOVIL		.L135, R62
		SMOVIH		.L135, R62
		SMOVIH4.L		.L135, R63
		SNOP		4
.L135:
.L105:
	.loc 1 133 0
		SMOVIL		-84, R44
		SMOVIL		-1, R45
		SADDA.M1		R45:R44,AR14,AR10
		SNOP		1
		SLDW		*AR10, R42
		SNOP		5
		SADD.M1		1,R42,R42
		SMOVIL		-84, R44
		SMOVIL		-1, R45
		SADDA.M1		R45:R44,AR14,AR10
		SNOP		1
		SSTW		R42, *AR10
.L41:
	.loc 1 133 0 is_stmt 0 discriminator 1
		SMOVIL		-84, R44
		SMOVIL		-1, R45
		SADDA.M1		R45:R44,AR14,AR10
		SNOP		1
		SLDW		*AR10, R42
		SNOP		5
		SMOVIL		3, R0
		SLT		R0, R42, R42
		SMOV.M1		R42, R0
	[!R0]	SBR		.L106
		SNOP		6
	.loc 1 335 0 is_stmt 1
		SLDDW		*+AR15[29], R31:R30
		SNOP		5
		SLDDW		*+AR15[30], R33:R32
		SNOP		5
		SLDDW		*+AR15[31], R35:R34
		SNOP		5
		SLDDW		*+AR15[32], R37:R36
		SNOP		5
		SLDDW		*+AR15[33], R39:R38
		SNOP		5
		SLDDW		*+AR15[34], R41:R40
		SNOP		5
		SLDDW		*+AR15[35], R7:R6
		SNOP		5
		SMVAGA36.M1		R7:R6, AR8
		SNOP		1
		SLDDW		*+AR15[36], R63:R62
		SNOP		5
		SADDA.M1		-16,AR14,AR15
		SNOP		1
		SLDDW		*++AR15[2], R7:R6
		SNOP		5
		SMVAGA36.M1		R7:R6, AR14
		SNOP		1
		SMVCGC.L		R63, BRReg
		SNOP		1
		SBR		R62
		SNOP		6
	.cfi_endproc
.LFE8:
	.size	testQr, .-testQr
.text;
.Letext0: