	.file	"qr.c"
.text;
.Ltext0:
	.cfi_sections	.debug_frame
	.section	.text.trival_qr,"ax",@progbits
	.align	2
	.global	trival_qr
	.type	trival_qr, @function
trival_qr:
.LFB0:
	.file 1 "../qr.c"
	.loc 1 5 0
	.cfi_startproc
		SMVAAGL.M1		AR14, R7:R6
		SNOP		1
		SMVAAGH.M1		AR14, R7:R6
		SNOP		1
		SSTDW		R7:R6, *AR15--[2]
.LCFI0:
	.cfi_def_cfa_offset 16
	.cfi_offset 14, 0
		SADDA.M1		16,AR15,AR14
.LCFI1:
	.cfi_def_cfa 14, 0
		SNOP		1
		SMOVIL		-272, R6
		SMOVIL		-1, R7
		SADDA.M1		R7:R6,AR15,AR15
		SNOP		1
		SSTDW		R63:R62, *+AR15[34]
		SSTDW		R41:R40, *+AR15[33]
		SSTDW		R39:R38, *+AR15[32]
		SSTDW		R37:R36, *+AR15[31]
		SSTDW		R35:R34, *+AR15[30]
		SSTDW		R33:R32, *+AR15[29]
		SSTDW		R31:R30, *+AR15[28]
	.cfi_offset 78, -16
	.cfi_offset 79, -12
	.cfi_offset 56, -24
	.cfi_offset 57, -20
	.cfi_offset 54, -32
	.cfi_offset 55, -28
	.cfi_offset 52, -40
	.cfi_offset 53, -36
	.cfi_offset 50, -48
	.cfi_offset 51, -44
	.cfi_offset 48, -56
	.cfi_offset 49, -52
	.cfi_offset 46, -64
	.cfi_offset 47, -60
		SMOVIL		-100, R42
		SMOVIL		-1, R43
		SADDA.M1		R43:R42,AR14,AR10
		SNOP		1
		SSTW		R10, *AR10
		SMOVIL		-104, R42
		SMOVIL		-1, R43
		SADDA.M1		R43:R42,AR14,AR10
		SNOP		1
		SSTW		R12, *AR10
		SSTDW		R15:R14, *-AR14[14]
		SSTDW		R17:R16, *-AR14[15]
		SMOVIL		-128, R42
		SMOVIL		-1, R43
		SADDA.M1		R43:R42,AR14,AR10
		SNOP		1
		SSTDW		R19:R18, *AR10
		SMOVIL		-136, R42
		SMOVIL		-1, R43
		SADDA.M1		R43:R42,AR14,AR10
		SNOP		1
		SSTDW		R21:R20, *AR10
	.loc 1 10 0
		SMOVIL		-100, R42
		SMOVIL		-1, R43
		SADDA.M1		R43:R42,AR14,AR10
		SNOP		1
		SLDW		*AR10, R44
		SNOP		5
		SMOVIL		-100, R42
		SMOVIL		-1, R43
		SADDA.M1		R43:R42,AR14,AR10
		SNOP		1
		SLDW		*AR10, R46
		SNOP		5
		SSHFAR		31, R46, R46
		SMOV.M1		R46, R45
		SMOVIL		-104, R46
		SMOVIL		-1, R47
		SADDA.M1		R47:R46,AR14,AR10
		SNOP		1
		SLDW		*AR10, R42
		SNOP		5
		SMOVIL		-104, R48
		SMOVIL		-1, R49
		SADDA.M1		R49:R48,AR14,AR10
		SNOP		1
		SLDW		*AR10, R46
		SNOP		5
		SSHFAR		31, R46, R46
		SMOV.M1		R46, R43
		SMULIS.M1		R42,R45,R47
		SNOP		2
		SMULIS.M1		R44,R43,R46
		SNOP		2
		SADD.M1		R46,R47,R46
		SMULU.M1		R42,R44,R45:R44
		SNOP		3
		SADD.M1		R45,R46,R42
		SMOV.M1		R42, R45
		SADD.M1		R44,R44,R42
		SLTU		R42, R44, R46
		SADD.M1		R45,R45,R43
		SADD.M1		R43,R46,R44
		SMOV.M1		R44, R43
		SADD.M1		R42,R42,R44
		SLTU		R44, R42, R46
		SADD.M1		R43,R43,R45
		SADD.M1		R45,R46,R42
		SMOV.M1		R42, R45
		SMOV.M1		R44, R42
		SMOV.M1		R45, R43
		SMOVIL		-128, R44
		SMOVIL		-1, R45
		SADDA.M1		R45:R44,AR14,AR10
		SNOP		1
		SLDDW		*AR10, R11:R10
		SNOP		5
		SLDDW		*-AR14[14], R13:R12
		SNOP		5
		SMOV.M1		R42, R14
		SMOV.M1		R43, R15
		SBR		memcpy
		SMOVIL		.L29, R62
		SMOVIH		.L29, R62
		SMOVIH4.L		.L29, R63
		SNOP		4
.L29:
	.loc 1 11 0
		SMOVIL		-100, R42
		SMOVIL		-1, R43
		SADDA.M1		R43:R42,AR14,AR10
		SNOP		1
		SLDW		*AR10, R44
		SNOP		5
		SMOVIL		-144, R42
		SMOVIL		-1, R43
		SADDA.M1		R43:R42,AR14,AR10
		SNOP		1
		SSTW		R44, *AR10
		SMOVIL		-100, R44
		SMOVIL		-1, R45
		SADDA.M1		R45:R44,AR14,AR10
		SNOP		1
		SLDW		*AR10, R42
		SNOP		5
		SSHFAR		31, R42, R42
		SMOVIL		-140, R44
		SMOVIL		-1, R45
		SADDA.M1		R45:R44,AR14,AR10
		SNOP		1
		SSTW		R42, *AR10
		SMOVIL		-100, R42
		SMOVIL		-1, R43
		SADDA.M1		R43:R42,AR14,AR10
		SNOP		1
		SLDW		*AR10, R44
		SNOP		5
		SMOVIL		-152, R42
		SMOVIL		-1, R43
		SADDA.M1		R43:R42,AR14,AR10
		SNOP		1
		SSTW		R44, *AR10
		SMOVIL		-100, R44
		SMOVIL		-1, R45
		SADDA.M1		R45:R44,AR14,AR10
		SNOP		1
		SLDW		*AR10, R42
		SNOP		5
		SSHFAR		31, R42, R42
		SMOVIL		-148, R44
		SMOVIL		-1, R45
		SADDA.M1		R45:R44,AR14,AR10
		SNOP		1
		SSTW		R42, *AR10
		SMOVIL		-140, R44
		SMOVIL		-1, R45
		SADDA.M1		R45:R44,AR14,AR10
		SNOP		1
		SLDW		*AR10, R42
		SNOP		5
		SMOVIL		-152, R44
		SMOVIL		-1, R45
		SADDA.M1		R45:R44,AR14,AR10
		SNOP		1
		SLDW		*AR10, R44
		SNOP		5
		SMULIS.M1		R44,R42,R43
		SNOP		2
		SMOVIL		-148, R44
		SMOVIL		-1, R45
		SADDA.M1		R45:R44,AR14,AR10
		SNOP		1
		SLDW		*AR10, R46
		SNOP		5
		SMOVIL		-144, R44
		SMOVIL		-1, R45
		SADDA.M1		R45:R44,AR14,AR10
		SNOP		1
		SLDW		*AR10, R44
		SNOP		5
		SMULIS.M1		R44,R46,R42
		SNOP		2
		SADD.M1		R42,R43,R42
		SMOVIL		-144, R46
		SMOVIL		-1, R47
		SADDA.M1		R47:R46,AR14,AR10
		SNOP		1
		SLDW		*AR10, R43
		SNOP		5
		SMOVIL		-152, R46
		SMOVIL		-1, R47
		SADDA.M1		R47:R46,AR14,AR10
		SNOP		1
		SLDW		*AR10, R46
		SNOP		5
		SMULU.M1		R46,R43,R45:R44
		SNOP		3
		SADD.M1		R45,R42,R42
		SMOV.M1		R42, R45
		SADD.M1		R44,R44,R42
		SLTU		R42, R44, R46
		SADD.M1		R45,R45,R43
		SADD.M1		R43,R46,R44
		SMOV.M1		R44, R43
		SADD.M1		R42,R42,R44
		SLTU		R44, R42, R46
		SADD.M1		R43,R43,R45
		SADD.M1		R45,R46,R42
		SMOV.M1		R42, R45
		SMOV.M1		R44, R42
		SMOV.M1		R45, R43
		SLDDW		*-AR14[15], R11:R10
		SNOP		5
		SMOVIL		0, R12
		SMOV.M1		R42, R14
		SMOV.M1		R43, R15
		SBR		memset
		SMOVIL		.L30, R62
		SMOVIH		.L30, R62
		SMOVIH4.L		.L30, R63
		SNOP		4
.L30:
	.loc 1 13 0
		SMOVIL		0, R42
		SMOVIL		-68, R44
		SMOVIL		-1, R45
		SADDA.M1		R45:R44,AR14,AR10
		SNOP		1
		SSTW		R42, *AR10
		SBR		.L2
		SNOP		6
.L3:
	.loc 1 15 0 discriminator 2
		SMOVIL		-100, R44
		SMOVIL		-1, R45
		SADDA.M1		R45:R44,AR14,AR10
		SNOP		1
		SLDW		*AR10, R42
		SNOP		5
		SADD.M1		1,R42,R43
		SMOVIL		-68, R44
		SMOVIL		-1, R45
		SADDA.M1		R45:R44,AR14,AR10
		SNOP		1
		SLDW		*AR10, R42
		SNOP		5
		SMULIS.M1		R42,R43,R42
		SNOP		2
		SMOVIL		-160, R44
		SMOVIL		-1, R45
		SADDA.M1		R45:R44,AR14,AR10
		SNOP		1
		SSTW		R42, *AR10
		SSHFAR		31, R42, R42
		SMOVIL		-156, R44
		SMOVIL		-1, R45
		SADDA.M1		R45:R44,AR14,AR10
		SNOP		1
		SSTW		R42, *AR10
		SMOVIL		-160, R44
		SMOVIL		-1, R45
		SADDA.M1		R45:R44,AR14,AR10
		SNOP		1
		SLDW		*AR10, R46
		SNOP		5
		SMOVIL		-160, R44
		SMOVIL		-1, R45
		SADDA.M1		R45:R44,AR14,AR10
		SNOP		1
		SLDW		*AR10, R44
		SNOP		5
		SADD.M1		R44,R46,R42
		SMOVIL		-160, R46
		SMOVIL		-1, R47
		SADDA.M1		R47:R46,AR14,AR10
		SNOP		1
		SLDW		*AR10, R45
		SNOP		5
		SLTU		R42, R45, R44
		SMOVIL		-156, R46
		SMOVIL		-1, R47
		SADDA.M1		R47:R46,AR14,AR10
		SNOP		1
		SLDW		*AR10, R45
		SNOP		5
		SMOVIL		-156, R46
		SMOVIL		-1, R47
		SADDA.M1		R47:R46,AR14,AR10
		SNOP		1
		SLDW		*AR10, R46
		SNOP		5
		SADD.M1		R46,R45,R43
		SADD.M1		R43,R44,R44
		SMOV.M1		R44, R43
		SADD.M1		R42,R42,R44
		SLTU		R44, R42, R46
		SADD.M1		R43,R43,R45
		SADD.M1		R45,R46,R42
		SMOV.M1		R42, R45
		SMOV.M1		R44, R42
		SMOV.M1		R45, R43
	;no-op trunc di R43:R42 to pdi R43:R42
		SLDDW		*-AR14[15], R45:R44
		SNOP		5
		SMVAGA36.M1		R45:R44, OR11
		SNOP		1
		SADDA.M1		R43:R42,OR11,OR11
		SNOP		1
		SMVAAGL.M1		OR11, R43:R42
		SNOP		1
		SMVAAGH.M1		OR11, R43:R42
		SNOP		1
		SMOVIL		1065353216, R44
		SMOVIH		1065353216, R44
		SMVAGA36.M1		R43:R42, AR10
		SNOP		1
		SSTW		R44, *AR10
	.loc 1 13 0 discriminator 2
		SMOVIL		-68, R44
		SMOVIL		-1, R45
		SADDA.M1		R45:R44,AR14,AR10
		SNOP		1
		SLDW		*AR10, R42
		SNOP		5
		SADD.M1		1,R42,R42
		SMOVIL		-68, R44
		SMOVIL		-1, R45
		SADDA.M1		R45:R44,AR14,AR10
		SNOP		1
		SSTW		R42, *AR10
.L2:
	.loc 1 13 0 is_stmt 0 discriminator 1
		SMOVIL		-68, R44
		SMOVIL		-1, R45
		SADDA.M1		R45:R44,AR14,AR10
		SNOP		1
		SLDW		*AR10, R43
		SNOP		5
		SMOVIL		-100, R44
		SMOVIL		-1, R45
		SADDA.M1		R45:R44,AR14,AR10
		SNOP		1
		SLDW		*AR10, R42
		SNOP		5
		SLT		R43, R42, R42
		SMOV.M1		R42, R0
	[R0]	SBR		.L3
		SNOP		6
	.loc 1 18 0 is_stmt 1
		SMOVIL		-100, R44
		SMOVIL		-1, R45
		SADDA.M1		R45:R44,AR14,AR10
		SNOP		1
		SLDW		*AR10, R43
		SNOP		5
		SMOVIL		-104, R44
		SMOVIL		-1, R45
		SADDA.M1		R45:R44,AR14,AR10
		SNOP		1
		SLDW		*AR10, R42
		SNOP		5
		SLT		R42, R43, R42
		SMOV.M1		R42, R0
	[R0]	SBR		.L4
		SNOP		6
	.loc 1 20 0
		SMOVIL		-100, R44
		SMOVIL		-1, R45
		SADDA.M1		R45:R44,AR14,AR10
		SNOP		1
		SLDW		*AR10, R42
		SNOP		5
		SADD.M1		-2,R42,R42
		SMOVIL		-84, R44
		SMOVIL		-1, R45
		SADDA.M1		R45:R44,AR14,AR10
		SNOP		1
		SSTW		R42, *AR10
		SBR		.L5
		SNOP		6
.L4:
	.loc 1 24 0
		SMOVIL		-104, R44
		SMOVIL		-1, R45
		SADDA.M1		R45:R44,AR14,AR10
		SNOP		1
		SLDW		*AR10, R42
		SNOP		5
		SADD.M1		-1,R42,R42
		SMOVIL		-84, R44
		SMOVIL		-1, R45
		SADDA.M1		R45:R44,AR14,AR10
		SNOP		1
		SSTW		R42, *AR10
.L5:
	.loc 1 26 0
		SMOVIL		0, R42
		SMOVIL		-72, R44
		SMOVIL		-1, R45
		SADDA.M1		R45:R44,AR14,AR10
		SNOP		1
		SSTW		R42, *AR10
		SBR		.L6
		SNOP		6
.L26:
	.loc 1 28 0
		SMOVIL		0, R42
		SMOVIH		0, R42
		SMOVIL		-92, R44
		SMOVIL		-1, R45
		SADDA.M1		R45:R44,AR14,AR10
		SNOP		1
		SSTW		R42, *AR10
	.loc 1 29 0
		SMOVIL		-72, R44
		SMOVIL		-1, R45
		SADDA.M1		R45:R44,AR14,AR10
		SNOP		1
		SLDW		*AR10, R42
		SNOP		5
		SMOVIL		-68, R44
		SMOVIL		-1, R45
		SADDA.M1		R45:R44,AR14,AR10
		SNOP		1
		SSTW		R42, *AR10
		SBR		.L7
		SNOP		6
.L8:
	.loc 1 31 0 discriminator 2
		SMOVIL		-68, R44
		SMOVIL		-1, R45
		SADDA.M1		R45:R44,AR14,AR10
		SNOP		1
		SLDW		*AR10, R43
		SNOP		5
		SMOVIL		-104, R44
		SMOVIL		-1, R45
		SADDA.M1		R45:R44,AR14,AR10
		SNOP		1
		SLDW		*AR10, R42
		SNOP		5
		SMULIS.M1		R42,R43,R43
		SNOP		2
		SMOVIL		-72, R44
		SMOVIL		-1, R45
		SADDA.M1		R45:R44,AR14,AR10
		SNOP		1
		SLDW		*AR10, R42
		SNOP		5
		SADD.M1		R42,R43,R42
		SMOV.M1		R42, R30
		SSHFAR		31, R42, R42
		SMOV.M1		R42, R31
		SADD.M1		R30,R30,R42
		SLTU		R42, R30, R44
		SADD.M1		R31,R31,R43
		SADD.M1		R43,R44,R44
		SMOV.M1		R44, R43
		SADD.M1		R42,R42,R44
		SLTU		R44, R42, R46
		SADD.M1		R43,R43,R45
		SADD.M1		R45,R46,R42
		SMOV.M1		R42, R45
		SMOV.M1		R44, R42
		SMOV.M1		R45, R43
	;no-op trunc di R43:R42 to pdi R43:R42
		SMOVIL		-128, R46
		SMOVIL		-1, R47
		SADDA.M1		R47:R46,AR14,AR10
		SNOP		1
		SLDDW		*AR10, R45:R44
		SNOP		5
		SMVAGA36.M1		R45:R44, OR11
		SNOP		1
		SADDA.M1		R43:R42,OR11,OR11
		SNOP		1
		SMVAAGL.M1		OR11, R43:R42
		SNOP		1
		SMVAAGH.M1		OR11, R43:R42
		SNOP		1
		SMVAGA36.M1		R43:R42, AR10
		SNOP		1
		SLDW		*AR10, R46
		SNOP		5
		SMOVIL		-68, R44
		SMOVIL		-1, R45
		SADDA.M1		R45:R44,AR14,AR10
		SNOP		1
		SLDW		*AR10, R43
		SNOP		5
		SMOVIL		-104, R44
		SMOVIL		-1, R45
		SADDA.M1		R45:R44,AR14,AR10
		SNOP		1
		SLDW		*AR10, R42
		SNOP		5
		SMULIS.M1		R42,R43,R43
		SNOP		2
		SMOVIL		-72, R44
		SMOVIL		-1, R45
		SADDA.M1		R45:R44,AR14,AR10
		SNOP		1
		SLDW		*AR10, R42
		SNOP		5
		SADD.M1		R42,R43,R42
		SMOV.M1		R42, R32
		SSHFAR		31, R42, R42
		SMOV.M1		R42, R33
		SADD.M1		R32,R32,R42
		SLTU		R42, R32, R44
		SADD.M1		R33,R33,R43
		SADD.M1		R43,R44,R44
		SMOV.M1		R44, R43
		SADD.M1		R42,R42,R44
		SLTU		R44, R42, R47
		SADD.M1		R43,R43,R45
		SADD.M1		R45,R47,R42
		SMOV.M1		R42, R45
		SMOV.M1		R44, R42
		SMOV.M1		R45, R43
	;no-op trunc di R43:R42 to pdi R43:R42
		SMOVIL		-128, R48
		SMOVIL		-1, R49
		SADDA.M1		R49:R48,AR14,AR10
		SNOP		1
		SLDDW		*AR10, R45:R44
		SNOP		5
		SMVAGA36.M1		R45:R44, OR11
		SNOP		1
		SADDA.M1		R43:R42,OR11,OR11
		SNOP		1
		SMVAAGL.M1		OR11, R43:R42
		SNOP		1
		SMVAAGH.M1		OR11, R43:R42
		SNOP		1
		SMVAGA36.M1		R43:R42, AR10
		SNOP		1
		SLDW		*AR10, R42
		SNOP		5
		SFMULS32.M1		R46, R42, R42
		SNOP		3
		SMOVIL		-92, R44
		SMOVIL		-1, R45
		SADDA.M1		R45:R44,AR14,AR10
		SNOP		1
		SLDW		*AR10, R43
		SNOP		5
		SFADDS32.M1		R43, R42, R42
		SNOP		2
		SMOVIL		-92, R44
		SMOVIL		-1, R45
		SADDA.M1		R45:R44,AR14,AR10
		SNOP		1
		SSTW		R42, *AR10
	.loc 1 29 0 discriminator 2
		SMOVIL		-68, R44
		SMOVIL		-1, R45
		SADDA.M1		R45:R44,AR14,AR10
		SNOP		1
		SLDW		*AR10, R42
		SNOP		5
		SADD.M1		1,R42,R42
		SMOVIL		-68, R44
		SMOVIL		-1, R45
		SADDA.M1		R45:R44,AR14,AR10
		SNOP		1
		SSTW		R42, *AR10
.L7:
	.loc 1 29 0 is_stmt 0 discriminator 1
		SMOVIL		-68, R44
		SMOVIL		-1, R45
		SADDA.M1		R45:R44,AR14,AR10
		SNOP		1
		SLDW		*AR10, R43
		SNOP		5
		SMOVIL		-100, R44
		SMOVIL		-1, R45
		SADDA.M1		R45:R44,AR14,AR10
		SNOP		1
		SLDW		*AR10, R42
		SNOP		5
		SLT		R43, R42, R42
		SMOV.M1		R42, R0
	[R0]	SBR		.L8
		SNOP		6
	.loc 1 33 0 is_stmt 1
		SMOVIL		-92, R44
		SMOVIL		-1, R45
		SADDA.M1		R45:R44,AR14,AR10
		SNOP		1
		SLDW		*AR10, R43
		SNOP		5
		SMOVIL		0, R42
		SMOVIH		0, R42
		SFCMPES32.M1		R43, R42, R42
		SMOV.M1		R42, R0
	[R0]	SBR		.L9
		SNOP		6
.LBB2:
	.loc 1 35 0
		SMOVIL		-92, R44
		SMOVIL		-1, R45
		SADDA.M1		R45:R44,AR14,AR10
		SNOP		1
		SLDW		*AR10, R42
		SNOP		5
		SFSPDP32T.M1		R42, R43:R42
		SNOP		1
		SMOV.M1		R42, R10
		SMOV.M1		R43, R11
		SBR		sqrt
		SMOVIL		.L31, R62
		SMOVIH		.L31, R62
		SMOVIH4.L		.L31, R63
		SNOP		4
.L31:
		SMOV.M1		R10, R42
		SMOV.M1		R11, R43
		SFDPSP32.M1		R43:R42, R42
		SNOP		2
		SMOVIL		-88, R44
		SMOVIL		-1, R45
		SADDA.M1		R45:R44,AR14,AR10
		SNOP		1
		SSTW		R42, *AR10
	.loc 1 36 0
		SMOVIL		-104, R44
		SMOVIL		-1, R45
		SADDA.M1		R45:R44,AR14,AR10
		SNOP		1
		SLDW		*AR10, R42
		SNOP		5
		SADD.M1		1,R42,R43
		SMOVIL		-72, R44
		SMOVIL		-1, R45
		SADDA.M1		R45:R44,AR14,AR10
		SNOP		1
		SLDW		*AR10, R42
		SNOP		5
		SMULIS.M1		R42,R43,R42
		SNOP		2
		SMOV.M1		R42, R34
		SSHFAR		31, R42, R42
		SMOV.M1		R42, R35
		SADD.M1		R34,R34,R42
		SLTU		R42, R34, R44
		SADD.M1		R35,R35,R43
		SADD.M1		R43,R44,R44
		SMOV.M1		R44, R43
		SADD.M1		R42,R42,R44
		SLTU		R44, R42, R46
		SADD.M1		R43,R43,R45
		SADD.M1		R45,R46,R42
		SMOV.M1		R42, R45
		SMOV.M1		R44, R42
		SMOV.M1		R45, R43
	;no-op trunc di R43:R42 to pdi R43:R42
		SMOVIL		-128, R46
		SMOVIL		-1, R47
		SADDA.M1		R47:R46,AR14,AR10
		SNOP		1
		SLDDW		*AR10, R45:R44
		SNOP		5
		SMVAGA36.M1		R45:R44, OR11
		SNOP		1
		SADDA.M1		R43:R42,OR11,OR11
		SNOP		1
		SMVAAGL.M1		OR11, R43:R42
		SNOP		1
		SMVAAGH.M1		OR11, R43:R42
		SNOP		1
		SMVAGA36.M1		R43:R42, AR10
		SNOP		1
		SLDW		*AR10, R44
		SNOP		5
		SMOVIL		0, R43
		SMOVIH		0, R43
		SFCMPGS32.M1		R44, R43, R42
		SMOV.M1		R42, R0
	[!R0]	SFCMPES32.M1		R44, R43, R0
		SMOV.M1		R0, R42
		SMOV.M1		R42, R0
	[!R0]	SBR		.L10
		SNOP		6
.L28:
	.loc 1 38 0
		SMOVIL		-88, R44
		SMOVIL		-1, R45
		SADDA.M1		R45:R44,AR14,AR10
		SNOP		1
		SLDW		*AR10, R43
		SNOP		5
		SMOVIL		-2147483648, R42
		SMOVIH		-2147483648, R42
		SXOR		R42, R43, R42
		SMOVIL		-88, R44
		SMOVIL		-1, R45
		SADDA.M1		R45:R44,AR14,AR10
		SNOP		1
		SSTW		R42, *AR10
.L10:
	.loc 1 40 0
		SMOVIL		-72, R42
		SMOVIL		-1, R43
		SADDA.M1		R43:R42,AR14,AR10
		SNOP		1
		SLDW		*AR10, R36
		SNOP		5
		SMOVIL		-72, R44
		SMOVIL		-1, R45
		SADDA.M1		R45:R44,AR14,AR10
		SNOP		1
		SLDW		*AR10, R42
		SNOP		5
		SSHFAR		31, R42, R42
		SMOV.M1		R42, R37
		SADD.M1		R36,R36,R42
		SLTU		R42, R36, R44
		SADD.M1		R37,R37,R43
		SADD.M1		R43,R44,R44
		SMOV.M1		R44, R43
		SADD.M1		R42,R42,R44
		SLTU		R44, R42, R46
		SADD.M1		R43,R43,R45
		SADD.M1		R45,R46,R42
		SMOV.M1		R42, R45
		SMOV.M1		R44, R42
		SMOV.M1		R45, R43
	;no-op trunc di R43:R42 to pdi R43:R42
		SMOVIL		-136, R46
		SMOVIL		-1, R47
		SADDA.M1		R47:R46,AR14,AR10
		SNOP		1
		SLDDW		*AR10, R45:R44
		SNOP		5
		SMVAGA36.M1		R45:R44, OR11
		SNOP		1
		SADDA.M1		R43:R42,OR11,OR11
		SNOP		1
		SMVAAGL.M1		OR11, R47:R46
		SNOP		1
		SMVAAGH.M1		OR11, R47:R46
		SNOP		1
		SMOVIL		-104, R44
		SMOVIL		-1, R45
		SADDA.M1		R45:R44,AR14,AR10
		SNOP		1
		SLDW		*AR10, R42
		SNOP		5
		SADD.M1		1,R42,R43
		SMOVIL		-72, R44
		SMOVIL		-1, R45
		SADDA.M1		R45:R44,AR14,AR10
		SNOP		1
		SLDW		*AR10, R42
		SNOP		5
		SMULIS.M1		R42,R43,R42
		SNOP		2
		SMOV.M1		R42, R38
		SSHFAR		31, R42, R42
		SMOV.M1		R42, R39
		SADD.M1		R38,R38,R42
		SLTU		R42, R38, R44
		SADD.M1		R39,R39,R43
		SADD.M1		R43,R44,R44
		SMOV.M1		R44, R43
		SADD.M1		R42,R42,R44
		SLTU		R44, R42, R48
		SADD.M1		R43,R43,R45
		SADD.M1		R45,R48,R42
		SMOV.M1		R42, R45
		SMOV.M1		R44, R42
		SMOV.M1		R45, R43
	;no-op trunc di R43:R42 to pdi R43:R42
		SMOVIL		-128, R48
		SMOVIL		-1, R49
		SADDA.M1		R49:R48,AR14,AR10
		SNOP		1
		SLDDW		*AR10, R45:R44
		SNOP		5
		SMVAGA36.M1		R45:R44, OR11
		SNOP		1
		SADDA.M1		R43:R42,OR11,OR11
		SNOP		1
		SMVAAGL.M1		OR11, R43:R42
		SNOP		1
		SMVAAGH.M1		OR11, R43:R42
		SNOP		1
		SMVAGA36.M1		R43:R42, AR10
		SNOP		1
		SLDW		*AR10, R43
		SNOP		5
		SMOVIL		-88, R44
		SMOVIL		-1, R45
		SADDA.M1		R45:R44,AR14,AR10
		SNOP		1
		SLDW		*AR10, R42
		SNOP		5
		SFADDS32.M1		R43, R42, R42
		SNOP		2
		SMVAGA36.M1		R47:R46, AR10
		SNOP		1
		SSTW		R42, *AR10
	.loc 1 41 0
		SMOVIL		-104, R44
		SMOVIL		-1, R45
		SADDA.M1		R45:R44,AR14,AR10
		SNOP		1
		SLDW		*AR10, R42
		SNOP		5
		SADD.M1		1,R42,R43
		SMOVIL		-72, R44
		SMOVIL		-1, R45
		SADDA.M1		R45:R44,AR14,AR10
		SNOP		1
		SLDW		*AR10, R42
		SNOP		5
		SMULIS.M1		R42,R43,R42
		SNOP		2
		SMOV.M1		R42, R40
		SSHFAR		31, R42, R42
		SMOV.M1		R42, R41
		SADD.M1		R40,R40,R42
		SLTU		R42, R40, R44
		SADD.M1		R41,R41,R43
		SADD.M1		R43,R44,R44
		SMOV.M1		R44, R43
		SADD.M1		R42,R42,R44
		SLTU		R44, R42, R46
		SADD.M1		R43,R43,R45
		SADD.M1		R45,R46,R42
		SMOV.M1		R42, R45
		SMOV.M1		R44, R42
		SMOV.M1		R45, R43
	;no-op trunc di R43:R42 to pdi R43:R42
		SMOVIL		-128, R46
		SMOVIL		-1, R47
		SADDA.M1		R47:R46,AR14,AR10
		SNOP		1
		SLDDW		*AR10, R45:R44
		SNOP		5
		SMVAGA36.M1		R45:R44, OR11
		SNOP		1
		SADDA.M1		R43:R42,OR11,OR11
		SNOP		1
		SMVAAGL.M1		OR11, R43:R42
		SNOP		1
		SMVAAGH.M1		OR11, R43:R42
		SNOP		1
		SMOVIL		-88, R46
		SMOVIL		-1, R47
		SADDA.M1		R47:R46,AR14,AR10
		SNOP		1
		SLDW		*AR10, R45
		SNOP		5
		SMOVIL		-2147483648, R44
		SMOVIH		-2147483648, R44
		SXOR		R44, R45, R44
		SMVAGA36.M1		R43:R42, AR10
		SNOP		1
		SSTW		R44, *AR10
	.loc 1 43 0
		SMOVIL		-72, R44
		SMOVIL		-1, R45
		SADDA.M1		R45:R44,AR14,AR10
		SNOP		1
		SLDW		*AR10, R42
		SNOP		5
		SADD.M1		1,R42,R42
		SMOVIL		-68, R44
		SMOVIL		-1, R45
		SADDA.M1		R45:R44,AR14,AR10
		SNOP		1
		SSTW		R42, *AR10
		SBR		.L12
		SNOP		6
.L13:
	.loc 1 45 0 discriminator 2
		SMOVIL		-68, R42
		SMOVIL		-1, R43
		SADDA.M1		R43:R42,AR14,AR10
		SNOP		1
		SLDW		*AR10, R44
		SNOP		5
		SMOVIL		-168, R42
		SMOVIL		-1, R43
		SADDA.M1		R43:R42,AR14,AR10
		SNOP		1
		SSTW		R44, *AR10
		SMOVIL		-68, R44
		SMOVIL		-1, R45
		SADDA.M1		R45:R44,AR14,AR10
		SNOP		1
		SLDW		*AR10, R42
		SNOP		5
		SSHFAR		31, R42, R42
		SMOVIL		-164, R44
		SMOVIL		-1, R45
		SADDA.M1		R45:R44,AR14,AR10
		SNOP		1
		SSTW		R42, *AR10
		SMOVIL		-168, R44
		SMOVIL		-1, R45
		SADDA.M1		R45:R44,AR14,AR10
		SNOP		1
		SLDW		*AR10, R46
		SNOP		5
		SMOVIL		-168, R44
		SMOVIL		-1, R45
		SADDA.M1		R45:R44,AR14,AR10
		SNOP		1
		SLDW		*AR10, R44
		SNOP		5
		SADD.M1		R44,R46,R42
		SMOVIL		-168, R46
		SMOVIL		-1, R47
		SADDA.M1		R47:R46,AR14,AR10
		SNOP		1
		SLDW		*AR10, R45
		SNOP		5
		SLTU		R42, R45, R44
		SMOVIL		-164, R46
		SMOVIL		-1, R47
		SADDA.M1		R47:R46,AR14,AR10
		SNOP		1
		SLDW		*AR10, R45
		SNOP		5
		SMOVIL		-164, R46
		SMOVIL		-1, R47
		SADDA.M1		R47:R46,AR14,AR10
		SNOP		1
		SLDW		*AR10, R46
		SNOP		5
		SADD.M1		R46,R45,R43
		SADD.M1		R43,R44,R44
		SMOV.M1		R44, R43
		SADD.M1		R42,R42,R44
		SLTU		R44, R42, R46
		SADD.M1		R43,R43,R45
		SADD.M1		R45,R46,R42
		SMOV.M1		R42, R45
		SMOV.M1		R44, R42
		SMOV.M1		R45, R43
	;no-op trunc di R43:R42 to pdi R43:R42
		SMOVIL		-136, R46
		SMOVIL		-1, R47
		SADDA.M1		R47:R46,AR14,AR10
		SNOP		1
		SLDDW		*AR10, R45:R44
		SNOP		5
		SMVAGA36.M1		R45:R44, OR11
		SNOP		1
		SADDA.M1		R43:R42,OR11,OR11
		SNOP		1
		SMVAAGL.M1		OR11, R47:R46
		SNOP		1
		SMVAAGH.M1		OR11, R47:R46
		SNOP		1
		SMOVIL		-68, R44
		SMOVIL		-1, R45
		SADDA.M1		R45:R44,AR14,AR10
		SNOP		1
		SLDW		*AR10, R43
		SNOP		5
		SMOVIL		-104, R44
		SMOVIL		-1, R45
		SADDA.M1		R45:R44,AR14,AR10
		SNOP		1
		SLDW		*AR10, R42
		SNOP		5
		SMULIS.M1		R42,R43,R43
		SNOP		2
		SMOVIL		-72, R44
		SMOVIL		-1, R45
		SADDA.M1		R45:R44,AR14,AR10
		SNOP		1
		SLDW		*AR10, R42
		SNOP		5
		SADD.M1		R42,R43,R42
		SMOVIL		-176, R44
		SMOVIL		-1, R45
		SADDA.M1		R45:R44,AR14,AR10
		SNOP		1
		SSTW		R42, *AR10
		SSHFAR		31, R42, R42
		SMOVIL		-172, R44
		SMOVIL		-1, R45
		SADDA.M1		R45:R44,AR14,AR10
		SNOP		1
		SSTW		R42, *AR10
		SMOVIL		-176, R44
		SMOVIL		-1, R45
		SADDA.M1		R45:R44,AR14,AR10
		SNOP		1
		SLDW		*AR10, R48
		SNOP		5
		SMOVIL		-176, R44
		SMOVIL		-1, R45
		SADDA.M1		R45:R44,AR14,AR10
		SNOP		1
		SLDW		*AR10, R44
		SNOP		5
		SADD.M1		R44,R48,R42
		SMOVIL		-176, R48
		SMOVIL		-1, R49
		SADDA.M1		R49:R48,AR14,AR10
		SNOP		1
		SLDW		*AR10, R45
		SNOP		5
		SLTU		R42, R45, R44
		SMOVIL		-172, R48
		SMOVIL		-1, R49
		SADDA.M1		R49:R48,AR14,AR10
		SNOP		1
		SLDW		*AR10, R45
		SNOP		5
		SMOVIL		-172, R48
		SMOVIL		-1, R49
		SADDA.M1		R49:R48,AR14,AR10
		SNOP		1
		SLDW		*AR10, R48
		SNOP		5
		SADD.M1		R48,R45,R43
		SADD.M1		R43,R44,R44
		SMOV.M1		R44, R43
		SADD.M1		R42,R42,R44
		SLTU		R44, R42, R48
		SADD.M1		R43,R43,R45
		SADD.M1		R45,R48,R42
		SMOV.M1		R42, R45
		SMOV.M1		R44, R42
		SMOV.M1		R45, R43
	;no-op trunc di R43:R42 to pdi R43:R42
		SMOVIL		-128, R48
		SMOVIL		-1, R49
		SADDA.M1		R49:R48,AR14,AR10
		SNOP		1
		SLDDW		*AR10, R45:R44
		SNOP		5
		SMVAGA36.M1		R45:R44, OR11
		SNOP		1
		SADDA.M1		R43:R42,OR11,OR11
		SNOP		1
		SMVAAGL.M1		OR11, R43:R42
		SNOP		1
		SMVAAGH.M1		OR11, R43:R42
		SNOP		1
		SMVAGA36.M1		R43:R42, AR10
		SNOP		1
		SLDW		*AR10, R42
		SNOP		5
		SMVAGA36.M1		R47:R46, AR10
		SNOP		1
		SSTW		R42, *AR10
	.loc 1 46 0 discriminator 2
		SMOVIL		-68, R44
		SMOVIL		-1, R45
		SADDA.M1		R45:R44,AR14,AR10
		SNOP		1
		SLDW		*AR10, R43
		SNOP		5
		SMOVIL		-104, R44
		SMOVIL		-1, R45
		SADDA.M1		R45:R44,AR14,AR10
		SNOP		1
		SLDW		*AR10, R42
		SNOP		5
		SMULIS.M1		R42,R43,R43
		SNOP		2
		SMOVIL		-72, R44
		SMOVIL		-1, R45
		SADDA.M1		R45:R44,AR14,AR10
		SNOP		1
		SLDW		*AR10, R42
		SNOP		5
		SADD.M1		R42,R43,R42
		SMOVIL		-184, R44
		SMOVIL		-1, R45
		SADDA.M1		R45:R44,AR14,AR10
		SNOP		1
		SSTW		R42, *AR10
		SSHFAR		31, R42, R42
		SMOVIL		-180, R44
		SMOVIL		-1, R45
		SADDA.M1		R45:R44,AR14,AR10
		SNOP		1
		SSTW		R42, *AR10
		SMOVIL		-184, R44
		SMOVIL		-1, R45
		SADDA.M1		R45:R44,AR14,AR10
		SNOP		1
		SLDW		*AR10, R46
		SNOP		5
		SMOVIL		-184, R44
		SMOVIL		-1, R45
		SADDA.M1		R45:R44,AR14,AR10
		SNOP		1
		SLDW		*AR10, R44
		SNOP		5
		SADD.M1		R44,R46,R42
		SMOVIL		-184, R46
		SMOVIL		-1, R47
		SADDA.M1		R47:R46,AR14,AR10
		SNOP		1
		SLDW		*AR10, R45
		SNOP		5
		SLTU		R42, R45, R44
		SMOVIL		-180, R46
		SMOVIL		-1, R47
		SADDA.M1		R47:R46,AR14,AR10
		SNOP		1
		SLDW		*AR10, R45
		SNOP		5
		SMOVIL		-180, R46
		SMOVIL		-1, R47
		SADDA.M1		R47:R46,AR14,AR10
		SNOP		1
		SLDW		*AR10, R46
		SNOP		5
		SADD.M1		R46,R45,R43
		SADD.M1		R43,R44,R44
		SMOV.M1		R44, R43
		SADD.M1		R42,R42,R44
		SLTU		R44, R42, R46
		SADD.M1		R43,R43,R45
		SADD.M1		R45,R46,R42
		SMOV.M1		R42, R45
		SMOV.M1		R44, R42
		SMOV.M1		R45, R43
	;no-op trunc di R43:R42 to pdi R43:R42
		SMOVIL		-128, R46
		SMOVIL		-1, R47
		SADDA.M1		R47:R46,AR14,AR10
		SNOP		1
		SLDDW		*AR10, R45:R44
		SNOP		5
		SMVAGA36.M1		R45:R44, OR11
		SNOP		1
		SADDA.M1		R43:R42,OR11,OR11
		SNOP		1
		SMVAAGL.M1		OR11, R43:R42
		SNOP		1
		SMVAAGH.M1		OR11, R43:R42
		SNOP		1
		SMOVIL		0, R44
		SMOVIH		0, R44
		SMVAGA36.M1		R43:R42, AR10
		SNOP		1
		SSTW		R44, *AR10
	.loc 1 43 0 discriminator 2
		SMOVIL		-68, R44
		SMOVIL		-1, R45
		SADDA.M1		R45:R44,AR14,AR10
		SNOP		1
		SLDW		*AR10, R42
		SNOP		5
		SADD.M1		1,R42,R42
		SMOVIL		-68, R44
		SMOVIL		-1, R45
		SADDA.M1		R45:R44,AR14,AR10
		SNOP		1
		SSTW		R42, *AR10
.L12:
	.loc 1 43 0 is_stmt 0 discriminator 1
		SMOVIL		-68, R44
		SMOVIL		-1, R45
		SADDA.M1		R45:R44,AR14,AR10
		SNOP		1
		SLDW		*AR10, R43
		SNOP		5
		SMOVIL		-100, R44
		SMOVIL		-1, R45
		SADDA.M1		R45:R44,AR14,AR10
		SNOP		1
		SLDW		*AR10, R42
		SNOP		5
		SLT		R43, R42, R42
		SMOV.M1		R42, R0
	[R0]	SBR		.L13
		SNOP		6
	.loc 1 48 0 is_stmt 1
		SMOVIL		-72, R42
		SMOVIL		-1, R43
		SADDA.M1		R43:R42,AR14,AR10
		SNOP		1
		SLDW		*AR10, R44
		SNOP		5
		SMOVIL		-192, R42
		SMOVIL		-1, R43
		SADDA.M1		R43:R42,AR14,AR10
		SNOP		1
		SSTW		R44, *AR10
		SMOVIL		-72, R44
		SMOVIL		-1, R45
		SADDA.M1		R45:R44,AR14,AR10
		SNOP		1
		SLDW		*AR10, R42
		SNOP		5
		SSHFAR		31, R42, R42
		SMOVIL		-188, R44
		SMOVIL		-1, R45
		SADDA.M1		R45:R44,AR14,AR10
		SNOP		1
		SSTW		R42, *AR10
		SMOVIL		-192, R44
		SMOVIL		-1, R45
		SADDA.M1		R45:R44,AR14,AR10
		SNOP		1
		SLDW		*AR10, R46
		SNOP		5
		SMOVIL		-192, R44
		SMOVIL		-1, R45
		SADDA.M1		R45:R44,AR14,AR10
		SNOP		1
		SLDW		*AR10, R44
		SNOP		5
		SADD.M1		R44,R46,R42
		SMOVIL		-192, R46
		SMOVIL		-1, R47
		SADDA.M1		R47:R46,AR14,AR10
		SNOP		1
		SLDW		*AR10, R45
		SNOP		5
		SLTU		R42, R45, R44
		SMOVIL		-188, R46
		SMOVIL		-1, R47
		SADDA.M1		R47:R46,AR14,AR10
		SNOP		1
		SLDW		*AR10, R45
		SNOP		5
		SMOVIL		-188, R46
		SMOVIL		-1, R47
		SADDA.M1		R47:R46,AR14,AR10
		SNOP		1
		SLDW		*AR10, R46
		SNOP		5
		SADD.M1		R46,R45,R43
		SADD.M1		R43,R44,R44
		SMOV.M1		R44, R43
		SADD.M1		R42,R42,R44
		SLTU		R44, R42, R46
		SADD.M1		R43,R43,R45
		SADD.M1		R45,R46,R42
		SMOV.M1		R42, R45
		SMOV.M1		R44, R42
		SMOV.M1		R45, R43
	;no-op trunc di R43:R42 to pdi R43:R42
		SMOVIL		-136, R46
		SMOVIL		-1, R47
		SADDA.M1		R47:R46,AR14,AR10
		SNOP		1
		SLDDW		*AR10, R45:R44
		SNOP		5
		SMVAGA36.M1		R45:R44, OR11
		SNOP		1
		SADDA.M1		R43:R42,OR11,OR11
		SNOP		1
		SMVAAGL.M1		OR11, R43:R42
		SNOP		1
		SMVAAGH.M1		OR11, R43:R42
		SNOP		1
		SMVAGA36.M1		R43:R42, AR10
		SNOP		1
		SLDW		*AR10, R43
		SNOP		5
		SMOVIL		-88, R44
		SMOVIL		-1, R45
		SADDA.M1		R45:R44,AR14,AR10
		SNOP		1
		SLDW		*AR10, R42
		SNOP		5
		SFMULS32.M1		R43, R42, R43
		SNOP		3
		SMOVIL		0, R42
		SMOVIH		0, R42
		SFCMPES32.M1		R43, R42, R42
		SMOV.M1		R42, R0
	[R0]	SBR		.L9
		SNOP		6
	.loc 1 50 0
		SMOVIL		-72, R42
		SMOVIL		-1, R43
		SADDA.M1		R43:R42,AR14,AR10
		SNOP		1
		SLDW		*AR10, R44
		SNOP		5
		SMOVIL		-200, R42
		SMOVIL		-1, R43
		SADDA.M1		R43:R42,AR14,AR10
		SNOP		1
		SSTW		R44, *AR10
		SMOVIL		-72, R44
		SMOVIL		-1, R45
		SADDA.M1		R45:R44,AR14,AR10
		SNOP		1
		SLDW		*AR10, R42
		SNOP		5
		SSHFAR		31, R42, R42
		SMOVIL		-196, R44
		SMOVIL		-1, R45
		SADDA.M1		R45:R44,AR14,AR10
		SNOP		1
		SSTW		R42, *AR10
		SMOVIL		-200, R44
		SMOVIL		-1, R45
		SADDA.M1		R45:R44,AR14,AR10
		SNOP		1
		SLDW		*AR10, R46
		SNOP		5
		SMOVIL		-200, R44
		SMOVIL		-1, R45
		SADDA.M1		R45:R44,AR14,AR10
		SNOP		1
		SLDW		*AR10, R44
		SNOP		5
		SADD.M1		R44,R46,R42
		SMOVIL		-200, R46
		SMOVIL		-1, R47
		SADDA.M1		R47:R46,AR14,AR10
		SNOP		1
		SLDW		*AR10, R45
		SNOP		5
		SLTU		R42, R45, R44
		SMOVIL		-196, R46
		SMOVIL		-1, R47
		SADDA.M1		R47:R46,AR14,AR10
		SNOP		1
		SLDW		*AR10, R45
		SNOP		5
		SMOVIL		-196, R46
		SMOVIL		-1, R47
		SADDA.M1		R47:R46,AR14,AR10
		SNOP		1
		SLDW		*AR10, R46
		SNOP		5
		SADD.M1		R46,R45,R43
		SADD.M1		R43,R44,R44
		SMOV.M1		R44, R43
		SADD.M1		R42,R42,R44
		SLTU		R44, R42, R46
		SADD.M1		R43,R43,R45
		SADD.M1		R45,R46,R42
		SMOV.M1		R42, R45
		SMOV.M1		R44, R42
		SMOV.M1		R45, R43
	;no-op trunc di R43:R42 to pdi R43:R42
		SMOVIL		-136, R46
		SMOVIL		-1, R47
		SADDA.M1		R47:R46,AR14,AR10
		SNOP		1
		SLDDW		*AR10, R45:R44
		SNOP		5
		SMVAGA36.M1		R45:R44, OR11
		SNOP		1
		SADDA.M1		R43:R42,OR11,OR11
		SNOP		1
		SMVAAGL.M1		OR11, R43:R42
		SNOP		1
		SMVAAGH.M1		OR11, R43:R42
		SNOP		1
		SMVAGA36.M1		R43:R42, AR10
		SNOP		1
		SLDW		*AR10, R43
		SNOP		5
		SMOVIL		-88, R44
		SMOVIL		-1, R45
		SADDA.M1		R45:R44,AR14,AR10
		SNOP		1
		SLDW		*AR10, R42
		SNOP		5
		SFMULS32.M1		R43, R42, R43
		SNOP		3
		SMOVIL		1065353216, R46
		SMOVIH		1065353216, R46
		SMOVIL		1073741824, R45
		SMOVIH		1073741824, R45
		SFRCPS32.M1		R43, R42
		SFMULS32.M1		R43, R42, R44
		SNOP		3
		SFSUBS32.M1		R44, R45, R44
		SNOP		2
		SFMULS32.M1		R42, R44, R42
		SNOP		3
		SFMULS32.M1		R43, R42, R44
		SNOP		3
		SFSUBS32.M1		R44, R45, R44
		SNOP		2
		SFMULS32.M1		R42, R44, R42
		SNOP		3
		SFMULS32.M1		R46, R42, R42
		SNOP		3
		SMOVIL		-96, R44
		SMOVIL		-1, R45
		SADDA.M1		R45:R44,AR14,AR10
		SNOP		1
		SSTW		R42, *AR10
	.loc 1 52 0
		SMOVIL		-72, R44
		SMOVIL		-1, R45
		SADDA.M1		R45:R44,AR14,AR10
		SNOP		1
		SLDW		*AR10, R42
		SNOP		5
		SADD.M1		1,R42,R42
		SMOVIL		-76, R44
		SMOVIL		-1, R45
		SADDA.M1		R45:R44,AR14,AR10
		SNOP		1
		SSTW		R42, *AR10
		SBR		.L14
		SNOP		6
.L19:
	.loc 1 54 0
		SMOVIL		0, R42
		SMOVIH		0, R42
		SMOVIL		-92, R44
		SMOVIL		-1, R45
		SADDA.M1		R45:R44,AR14,AR10
		SNOP		1
		SSTW		R42, *AR10
	.loc 1 55 0
		SMOVIL		-72, R44
		SMOVIL		-1, R45
		SADDA.M1		R45:R44,AR14,AR10
		SNOP		1
		SLDW		*AR10, R42
		SNOP		5
		SMOVIL		-80, R44
		SMOVIL		-1, R45
		SADDA.M1		R45:R44,AR14,AR10
		SNOP		1
		SSTW		R42, *AR10
		SBR		.L15
		SNOP		6
.L16:
	.loc 1 57 0 discriminator 2
		SMOVIL		-80, R42
		SMOVIL		-1, R43
		SADDA.M1		R43:R42,AR14,AR10
		SNOP		1
		SLDW		*AR10, R44
		SNOP		5
		SMOVIL		-208, R42
		SMOVIL		-1, R43
		SADDA.M1		R43:R42,AR14,AR10
		SNOP		1
		SSTW		R44, *AR10
		SMOVIL		-80, R44
		SMOVIL		-1, R45
		SADDA.M1		R45:R44,AR14,AR10
		SNOP		1
		SLDW		*AR10, R42
		SNOP		5
		SSHFAR		31, R42, R42
		SMOVIL		-204, R44
		SMOVIL		-1, R45
		SADDA.M1		R45:R44,AR14,AR10
		SNOP		1
		SSTW		R42, *AR10
		SMOVIL		-208, R44
		SMOVIL		-1, R45
		SADDA.M1		R45:R44,AR14,AR10
		SNOP		1
		SLDW		*AR10, R46
		SNOP		5
		SMOVIL		-208, R44
		SMOVIL		-1, R45
		SADDA.M1		R45:R44,AR14,AR10
		SNOP		1
		SLDW		*AR10, R44
		SNOP		5
		SADD.M1		R44,R46,R42
		SMOVIL		-208, R46
		SMOVIL		-1, R47
		SADDA.M1		R47:R46,AR14,AR10
		SNOP		1
		SLDW		*AR10, R45
		SNOP		5
		SLTU		R42, R45, R44
		SMOVIL		-204, R46
		SMOVIL		-1, R47
		SADDA.M1		R47:R46,AR14,AR10
		SNOP		1
		SLDW		*AR10, R45
		SNOP		5
		SMOVIL		-204, R46
		SMOVIL		-1, R47
		SADDA.M1		R47:R46,AR14,AR10
		SNOP		1
		SLDW		*AR10, R46
		SNOP		5
		SADD.M1		R46,R45,R43
		SADD.M1		R43,R44,R44
		SMOV.M1		R44, R43
		SADD.M1		R42,R42,R44
		SLTU		R44, R42, R46
		SADD.M1		R43,R43,R45
		SADD.M1		R45,R46,R42
		SMOV.M1		R42, R45
		SMOV.M1		R44, R42
		SMOV.M1		R45, R43
	;no-op trunc di R43:R42 to pdi R43:R42
		SMOVIL		-136, R46
		SMOVIL		-1, R47
		SADDA.M1		R47:R46,AR14,AR10
		SNOP		1
		SLDDW		*AR10, R45:R44
		SNOP		5
		SMVAGA36.M1		R45:R44, OR11
		SNOP		1
		SADDA.M1		R43:R42,OR11,OR11
		SNOP		1
		SMVAAGL.M1		OR11, R43:R42
		SNOP		1
		SMVAAGH.M1		OR11, R43:R42
		SNOP		1
		SMVAGA36.M1		R43:R42, AR10
		SNOP		1
		SLDW		*AR10, R46
		SNOP		5
		SMOVIL		-80, R44
		SMOVIL		-1, R45
		SADDA.M1		R45:R44,AR14,AR10
		SNOP		1
		SLDW		*AR10, R43
		SNOP		5
		SMOVIL		-104, R44
		SMOVIL		-1, R45
		SADDA.M1		R45:R44,AR14,AR10
		SNOP		1
		SLDW		*AR10, R42
		SNOP		5
		SMULIS.M1		R42,R43,R43
		SNOP		2
		SMOVIL		-76, R44
		SMOVIL		-1, R45
		SADDA.M1		R45:R44,AR14,AR10
		SNOP		1
		SLDW		*AR10, R42
		SNOP		5
		SADD.M1		R42,R43,R42
		SMOVIL		-216, R44
		SMOVIL		-1, R45
		SADDA.M1		R45:R44,AR14,AR10
		SNOP		1
		SSTW		R42, *AR10
		SSHFAR		31, R42, R42
		SMOVIL		-212, R44
		SMOVIL		-1, R45
		SADDA.M1		R45:R44,AR14,AR10
		SNOP		1
		SSTW		R42, *AR10
		SMOVIL		-216, R44
		SMOVIL		-1, R45
		SADDA.M1		R45:R44,AR14,AR10
		SNOP		1
		SLDW		*AR10, R47
		SNOP		5
		SMOVIL		-216, R44
		SMOVIL		-1, R45
		SADDA.M1		R45:R44,AR14,AR10
		SNOP		1
		SLDW		*AR10, R44
		SNOP		5
		SADD.M1		R44,R47,R42
		SMOVIL		-216, R48
		SMOVIL		-1, R49
		SADDA.M1		R49:R48,AR14,AR10
		SNOP		1
		SLDW		*AR10, R45
		SNOP		5
		SLTU		R42, R45, R44
		SMOVIL		-212, R48
		SMOVIL		-1, R49
		SADDA.M1		R49:R48,AR14,AR10
		SNOP		1
		SLDW		*AR10, R45
		SNOP		5
		SMOVIL		-212, R48
		SMOVIL		-1, R49
		SADDA.M1		R49:R48,AR14,AR10
		SNOP		1
		SLDW		*AR10, R47
		SNOP		5
		SADD.M1		R47,R45,R43
		SADD.M1		R43,R44,R44
		SMOV.M1		R44, R43
		SADD.M1		R42,R42,R44
		SLTU		R44, R42, R47
		SADD.M1		R43,R43,R45
		SADD.M1		R45,R47,R42
		SMOV.M1		R42, R45
		SMOV.M1		R44, R42
		SMOV.M1		R45, R43
	;no-op trunc di R43:R42 to pdi R43:R42
		SMOVIL		-128, R48
		SMOVIL		-1, R49
		SADDA.M1		R49:R48,AR14,AR10
		SNOP		1
		SLDDW		*AR10, R45:R44
		SNOP		5
		SMVAGA36.M1		R45:R44, OR11
		SNOP		1
		SADDA.M1		R43:R42,OR11,OR11
		SNOP		1
		SMVAAGL.M1		OR11, R43:R42
		SNOP		1
		SMVAAGH.M1		OR11, R43:R42
		SNOP		1
		SMVAGA36.M1		R43:R42, AR10
		SNOP		1
		SLDW		*AR10, R42
		SNOP		5
		SFMULS32.M1		R46, R42, R42
		SNOP		3
		SMOVIL		-92, R44
		SMOVIL		-1, R45
		SADDA.M1		R45:R44,AR14,AR10
		SNOP		1
		SLDW		*AR10, R43
		SNOP		5
		SFADDS32.M1		R43, R42, R42
		SNOP		2
		SMOVIL		-92, R44
		SMOVIL		-1, R45
		SADDA.M1		R45:R44,AR14,AR10
		SNOP		1
		SSTW		R42, *AR10
	.loc 1 55 0 discriminator 2
		SMOVIL		-80, R44
		SMOVIL		-1, R45
		SADDA.M1		R45:R44,AR14,AR10
		SNOP		1
		SLDW		*AR10, R42
		SNOP		5
		SADD.M1		1,R42,R42
		SMOVIL		-80, R44
		SMOVIL		-1, R45
		SADDA.M1		R45:R44,AR14,AR10
		SNOP		1
		SSTW		R42, *AR10
.L15:
	.loc 1 55 0 is_stmt 0 discriminator 1
		SMOVIL		-80, R44
		SMOVIL		-1, R45
		SADDA.M1		R45:R44,AR14,AR10
		SNOP		1
		SLDW		*AR10, R43
		SNOP		5
		SMOVIL		-100, R44
		SMOVIL		-1, R45
		SADDA.M1		R45:R44,AR14,AR10
		SNOP		1
		SLDW		*AR10, R42
		SNOP		5
		SLT		R43, R42, R42
		SMOV.M1		R42, R0
	[R0]	SBR		.L16
		SNOP		6
	.loc 1 59 0 is_stmt 1
		SMOVIL		-92, R44
		SMOVIL		-1, R45
		SADDA.M1		R45:R44,AR14,AR10
		SNOP		1
		SLDW		*AR10, R43
		SNOP		5
		SMOVIL		-96, R44
		SMOVIL		-1, R45
		SADDA.M1		R45:R44,AR14,AR10
		SNOP		1
		SLDW		*AR10, R42
		SNOP		5
		SFMULS32.M1		R43, R42, R42
		SNOP		3
		SMOVIL		-92, R44
		SMOVIL		-1, R45
		SADDA.M1		R45:R44,AR14,AR10
		SNOP		1
		SSTW		R42, *AR10
	.loc 1 60 0
		SMOVIL		-72, R44
		SMOVIL		-1, R45
		SADDA.M1		R45:R44,AR14,AR10
		SNOP		1
		SLDW		*AR10, R42
		SNOP		5
		SMOVIL		-80, R44
		SMOVIL		-1, R45
		SADDA.M1		R45:R44,AR14,AR10
		SNOP		1
		SSTW		R42, *AR10
		SBR		.L17
		SNOP		6
.L18:
	.loc 1 62 0 discriminator 2
		SMOVIL		-80, R44
		SMOVIL		-1, R45
		SADDA.M1		R45:R44,AR14,AR10
		SNOP		1
		SLDW		*AR10, R43
		SNOP		5
		SMOVIL		-104, R44
		SMOVIL		-1, R45
		SADDA.M1		R45:R44,AR14,AR10
		SNOP		1
		SLDW		*AR10, R42
		SNOP		5
		SMULIS.M1		R42,R43,R43
		SNOP		2
		SMOVIL		-76, R44
		SMOVIL		-1, R45
		SADDA.M1		R45:R44,AR14,AR10
		SNOP		1
		SLDW		*AR10, R42
		SNOP		5
		SADD.M1		R42,R43,R42
		SMOVIL		-224, R44
		SMOVIL		-1, R45
		SADDA.M1		R45:R44,AR14,AR10
		SNOP		1
		SSTW		R42, *AR10
		SSHFAR		31, R42, R42
		SMOVIL		-220, R44
		SMOVIL		-1, R45
		SADDA.M1		R45:R44,AR14,AR10
		SNOP		1
		SSTW		R42, *AR10
		SMOVIL		-224, R44
		SMOVIL		-1, R45
		SADDA.M1		R45:R44,AR14,AR10
		SNOP		1
		SLDW		*AR10, R46
		SNOP		5
		SMOVIL		-224, R44
		SMOVIL		-1, R45
		SADDA.M1		R45:R44,AR14,AR10
		SNOP		1
		SLDW		*AR10, R44
		SNOP		5
		SADD.M1		R44,R46,R42
		SMOVIL		-224, R46
		SMOVIL		-1, R47
		SADDA.M1		R47:R46,AR14,AR10
		SNOP		1
		SLDW		*AR10, R45
		SNOP		5
		SLTU		R42, R45, R44
		SMOVIL		-220, R46
		SMOVIL		-1, R47
		SADDA.M1		R47:R46,AR14,AR10
		SNOP		1
		SLDW		*AR10, R45
		SNOP		5
		SMOVIL		-220, R46
		SMOVIL		-1, R47
		SADDA.M1		R47:R46,AR14,AR10
		SNOP		1
		SLDW		*AR10, R46
		SNOP		5
		SADD.M1		R46,R45,R43
		SADD.M1		R43,R44,R44
		SMOV.M1		R44, R43
		SADD.M1		R42,R42,R44
		SLTU		R44, R42, R46
		SADD.M1		R43,R43,R45
		SADD.M1		R45,R46,R42
		SMOV.M1		R42, R45
		SMOV.M1		R44, R42
		SMOV.M1		R45, R43
	;no-op trunc di R43:R42 to pdi R43:R42
		SMOVIL		-128, R46
		SMOVIL		-1, R47
		SADDA.M1		R47:R46,AR14,AR10
		SNOP		1
		SLDDW		*AR10, R45:R44
		SNOP		5
		SMVAGA36.M1		R45:R44, OR11
		SNOP		1
		SADDA.M1		R43:R42,OR11,OR11
		SNOP		1
		SMVAAGL.M1		OR11, R47:R46
		SNOP		1
		SMVAAGH.M1		OR11, R47:R46
		SNOP		1
		SMOVIL		-80, R44
		SMOVIL		-1, R45
		SADDA.M1		R45:R44,AR14,AR10
		SNOP		1
		SLDW		*AR10, R43
		SNOP		5
		SMOVIL		-104, R44
		SMOVIL		-1, R45
		SADDA.M1		R45:R44,AR14,AR10
		SNOP		1
		SLDW		*AR10, R42
		SNOP		5
		SMULIS.M1		R42,R43,R43
		SNOP		2
		SMOVIL		-76, R44
		SMOVIL		-1, R45
		SADDA.M1		R45:R44,AR14,AR10
		SNOP		1
		SLDW		*AR10, R42
		SNOP		5
		SADD.M1		R42,R43,R42
		SMOVIL		-232, R44
		SMOVIL		-1, R45
		SADDA.M1		R45:R44,AR14,AR10
		SNOP		1
		SSTW		R42, *AR10
		SSHFAR		31, R42, R42
		SMOVIL		-228, R44
		SMOVIL		-1, R45
		SADDA.M1		R45:R44,AR14,AR10
		SNOP		1
		SSTW		R42, *AR10
		SMOVIL		-232, R44
		SMOVIL		-1, R45
		SADDA.M1		R45:R44,AR14,AR10
		SNOP		1
		SLDW		*AR10, R48
		SNOP		5
		SMOVIL		-232, R44
		SMOVIL		-1, R45
		SADDA.M1		R45:R44,AR14,AR10
		SNOP		1
		SLDW		*AR10, R44
		SNOP		5
		SADD.M1		R44,R48,R42
		SMOVIL		-232, R48
		SMOVIL		-1, R49
		SADDA.M1		R49:R48,AR14,AR10
		SNOP		1
		SLDW		*AR10, R45
		SNOP		5
		SLTU		R42, R45, R44
		SMOVIL		-228, R48
		SMOVIL		-1, R49
		SADDA.M1		R49:R48,AR14,AR10
		SNOP		1
		SLDW		*AR10, R45
		SNOP		5
		SMOVIL		-228, R48
		SMOVIL		-1, R49
		SADDA.M1		R49:R48,AR14,AR10
		SNOP		1
		SLDW		*AR10, R48
		SNOP		5
		SADD.M1		R48,R45,R43
		SADD.M1		R43,R44,R44
		SMOV.M1		R44, R43
		SADD.M1		R42,R42,R44
		SLTU		R44, R42, R48
		SADD.M1		R43,R43,R45
		SADD.M1		R45,R48,R42
		SMOV.M1		R42, R45
		SMOV.M1		R44, R42
		SMOV.M1		R45, R43
	;no-op trunc di R43:R42 to pdi R43:R42
		SMOVIL		-128, R48
		SMOVIL		-1, R49
		SADDA.M1		R49:R48,AR14,AR10
		SNOP		1
		SLDDW		*AR10, R45:R44
		SNOP		5
		SMVAGA36.M1		R45:R44, OR11
		SNOP		1
		SADDA.M1		R43:R42,OR11,OR11
		SNOP		1
		SMVAAGL.M1		OR11, R43:R42
		SNOP		1
		SMVAAGH.M1		OR11, R43:R42
		SNOP		1
		SMVAGA36.M1		R43:R42, AR10
		SNOP		1
		SLDW		*AR10, R48
		SNOP		5
		SMOVIL		-80, R42
		SMOVIL		-1, R43
		SADDA.M1		R43:R42,AR14,AR10
		SNOP		1
		SLDW		*AR10, R44
		SNOP		5
		SMOVIL		-240, R42
		SMOVIL		-1, R43
		SADDA.M1		R43:R42,AR14,AR10
		SNOP		1
		SSTW		R44, *AR10
		SMOVIL		-80, R44
		SMOVIL		-1, R45
		SADDA.M1		R45:R44,AR14,AR10
		SNOP		1
		SLDW		*AR10, R42
		SNOP		5
		SSHFAR		31, R42, R42
		SMOVIL		-236, R44
		SMOVIL		-1, R45
		SADDA.M1		R45:R44,AR14,AR10
		SNOP		1
		SSTW		R42, *AR10
		SMOVIL		-240, R44
		SMOVIL		-1, R45
		SADDA.M1		R45:R44,AR14,AR10
		SNOP		1
		SLDW		*AR10, R49
		SNOP		5
		SMOVIL		-240, R44
		SMOVIL		-1, R45
		SADDA.M1		R45:R44,AR14,AR10
		SNOP		1
		SLDW		*AR10, R44
		SNOP		5
		SADD.M1		R44,R49,R42
		SMOVIL		-240, R50
		SMOVIL		-1, R51
		SADDA.M1		R51:R50,AR14,AR10
		SNOP		1
		SLDW		*AR10, R45
		SNOP		5
		SLTU		R42, R45, R44
		SMOVIL		-236, R50
		SMOVIL		-1, R51
		SADDA.M1		R51:R50,AR14,AR10
		SNOP		1
		SLDW		*AR10, R45
		SNOP		5
		SMOVIL		-236, R50
		SMOVIL		-1, R51
		SADDA.M1		R51:R50,AR14,AR10
		SNOP		1
		SLDW		*AR10, R49
		SNOP		5
		SADD.M1		R49,R45,R43
		SADD.M1		R43,R44,R44
		SMOV.M1		R44, R43
		SADD.M1		R42,R42,R44
		SLTU		R44, R42, R49
		SADD.M1		R43,R43,R45
		SADD.M1		R45,R49,R42
		SMOV.M1		R42, R45
		SMOV.M1		R44, R42
		SMOV.M1		R45, R43
	;no-op trunc di R43:R42 to pdi R43:R42
		SMOVIL		-136, R50
		SMOVIL		-1, R51
		SADDA.M1		R51:R50,AR14,AR10
		SNOP		1
		SLDDW		*AR10, R45:R44
		SNOP		5
		SMVAGA36.M1		R45:R44, OR11
		SNOP		1
		SADDA.M1		R43:R42,OR11,OR11
		SNOP		1
		SMVAAGL.M1		OR11, R43:R42
		SNOP		1
		SMVAAGH.M1		OR11, R43:R42
		SNOP		1
		SMVAGA36.M1		R43:R42, AR10
		SNOP		1
		SLDW		*AR10, R43
		SNOP		5
		SMOVIL		-92, R44
		SMOVIL		-1, R45
		SADDA.M1		R45:R44,AR14,AR10
		SNOP		1
		SLDW		*AR10, R42
		SNOP		5
		SFMULS32.M1		R43, R42, R42
		SNOP		3
		SFSUBS32.M1		R42, R48, R42
		SNOP		2
		SMVAGA36.M1		R47:R46, AR10
		SNOP		1
		SSTW		R42, *AR10
	.loc 1 60 0 discriminator 2
		SMOVIL		-80, R44
		SMOVIL		-1, R45
		SADDA.M1		R45:R44,AR14,AR10
		SNOP		1
		SLDW		*AR10, R42
		SNOP		5
		SADD.M1		1,R42,R42
		SMOVIL		-80, R44
		SMOVIL		-1, R45
		SADDA.M1		R45:R44,AR14,AR10
		SNOP		1
		SSTW		R42, *AR10
.L17:
	.loc 1 60 0 is_stmt 0 discriminator 1
		SMOVIL		-80, R44
		SMOVIL		-1, R45
		SADDA.M1		R45:R44,AR14,AR10
		SNOP		1
		SLDW		*AR10, R43
		SNOP		5
		SMOVIL		-100, R44
		SMOVIL		-1, R45
		SADDA.M1		R45:R44,AR14,AR10
		SNOP		1
		SLDW		*AR10, R42
		SNOP		5
		SLT		R43, R42, R42
		SMOV.M1		R42, R0
	[R0]	SBR		.L18
		SNOP		6
	.loc 1 52 0 is_stmt 1
		SMOVIL		-76, R44
		SMOVIL		-1, R45
		SADDA.M1		R45:R44,AR14,AR10
		SNOP		1
		SLDW		*AR10, R42
		SNOP		5
		SADD.M1		1,R42,R42
		SMOVIL		-76, R44
		SMOVIL		-1, R45
		SADDA.M1		R45:R44,AR14,AR10
		SNOP		1
		SSTW		R42, *AR10
.L14:
	.loc 1 52 0 is_stmt 0 discriminator 1
		SMOVIL		-76, R44
		SMOVIL		-1, R45
		SADDA.M1		R45:R44,AR14,AR10
		SNOP		1
		SLDW		*AR10, R43
		SNOP		5
		SMOVIL		-104, R44
		SMOVIL		-1, R45
		SADDA.M1		R45:R44,AR14,AR10
		SNOP		1
		SLDW		*AR10, R42
		SNOP		5
		SLT		R43, R42, R42
		SMOV.M1		R42, R0
	[R0]	SBR		.L19
		SNOP		6
	.loc 1 66 0 is_stmt 1
		SMOVIL		0, R42
		SMOVIL		-76, R44
		SMOVIL		-1, R45
		SADDA.M1		R45:R44,AR14,AR10
		SNOP		1
		SSTW		R42, *AR10
		SBR		.L20
		SNOP		6
.L25:
	.loc 1 68 0
		SMOVIL		0, R42
		SMOVIH		0, R42
		SMOVIL		-92, R44
		SMOVIL		-1, R45
		SADDA.M1		R45:R44,AR14,AR10
		SNOP		1
		SSTW		R42, *AR10
	.loc 1 69 0
		SMOVIL		-72, R44
		SMOVIL		-1, R45
		SADDA.M1		R45:R44,AR14,AR10
		SNOP		1
		SLDW		*AR10, R42
		SNOP		5
		SMOVIL		-80, R44
		SMOVIL		-1, R45
		SADDA.M1		R45:R44,AR14,AR10
		SNOP		1
		SSTW		R42, *AR10
		SBR		.L21
		SNOP		6
.L22:
	.loc 1 71 0 discriminator 2
		SMOVIL		-80, R42
		SMOVIL		-1, R43
		SADDA.M1		R43:R42,AR14,AR10
		SNOP		1
		SLDW		*AR10, R44
		SNOP		5
		SMOVIL		-248, R42
		SMOVIL		-1, R43
		SADDA.M1		R43:R42,AR14,AR10
		SNOP		1
		SSTW		R44, *AR10
		SMOVIL		-80, R44
		SMOVIL		-1, R45
		SADDA.M1		R45:R44,AR14,AR10
		SNOP		1
		SLDW		*AR10, R42
		SNOP		5
		SSHFAR		31, R42, R42
		SMOVIL		-244, R44
		SMOVIL		-1, R45
		SADDA.M1		R45:R44,AR14,AR10
		SNOP		1
		SSTW		R42, *AR10
		SMOVIL		-248, R44
		SMOVIL		-1, R45
		SADDA.M1		R45:R44,AR14,AR10
		SNOP		1
		SLDW		*AR10, R46
		SNOP		5
		SMOVIL		-248, R44
		SMOVIL		-1, R45
		SADDA.M1		R45:R44,AR14,AR10
		SNOP		1
		SLDW		*AR10, R44
		SNOP		5
		SADD.M1		R44,R46,R42
		SMOVIL		-248, R46
		SMOVIL		-1, R47
		SADDA.M1		R47:R46,AR14,AR10
		SNOP		1
		SLDW		*AR10, R45
		SNOP		5
		SLTU		R42, R45, R44
		SMOVIL		-244, R46
		SMOVIL		-1, R47
		SADDA.M1		R47:R46,AR14,AR10
		SNOP		1
		SLDW		*AR10, R45
		SNOP		5
		SMOVIL		-244, R46
		SMOVIL		-1, R47
		SADDA.M1		R47:R46,AR14,AR10
		SNOP		1
		SLDW		*AR10, R46
		SNOP		5
		SADD.M1		R46,R45,R43
		SADD.M1		R43,R44,R44
		SMOV.M1		R44, R43
		SADD.M1		R42,R42,R44
		SLTU		R44, R42, R46
		SADD.M1		R43,R43,R45
		SADD.M1		R45,R46,R42
		SMOV.M1		R42, R45
		SMOV.M1		R44, R42
		SMOV.M1		R45, R43
	;no-op trunc di R43:R42 to pdi R43:R42
		SMOVIL		-136, R46
		SMOVIL		-1, R47
		SADDA.M1		R47:R46,AR14,AR10
		SNOP		1
		SLDDW		*AR10, R45:R44
		SNOP		5
		SMVAGA36.M1		R45:R44, OR11
		SNOP		1
		SADDA.M1		R43:R42,OR11,OR11
		SNOP		1
		SMVAAGL.M1		OR11, R43:R42
		SNOP		1
		SMVAAGH.M1		OR11, R43:R42
		SNOP		1
		SMVAGA36.M1		R43:R42, AR10
		SNOP		1
		SLDW		*AR10, R46
		SNOP		5
		SMOVIL		-76, R44
		SMOVIL		-1, R45
		SADDA.M1		R45:R44,AR14,AR10
		SNOP		1
		SLDW		*AR10, R43
		SNOP		5
		SMOVIL		-100, R44
		SMOVIL		-1, R45
		SADDA.M1		R45:R44,AR14,AR10
		SNOP		1
		SLDW		*AR10, R42
		SNOP		5
		SMULIS.M1		R42,R43,R43
		SNOP		2
		SMOVIL		-80, R44
		SMOVIL		-1, R45
		SADDA.M1		R45:R44,AR14,AR10
		SNOP		1
		SLDW		*AR10, R42
		SNOP		5
		SADD.M1		R42,R43,R42
		SMOVIL		-256, R44
		SMOVIL		-1, R45
		SADDA.M1		R45:R44,AR14,AR10
		SNOP		1
		SSTW		R42, *AR10
		SSHFAR		31, R42, R42
		SMOVIL		-252, R44
		SMOVIL		-1, R45
		SADDA.M1		R45:R44,AR14,AR10
		SNOP		1
		SSTW		R42, *AR10
		SMOVIL		-256, R44
		SMOVIL		-1, R45
		SADDA.M1		R45:R44,AR14,AR10
		SNOP		1
		SLDW		*AR10, R47
		SNOP		5
		SMOVIL		-256, R44
		SMOVIL		-1, R45
		SADDA.M1		R45:R44,AR14,AR10
		SNOP		1
		SLDW		*AR10, R44
		SNOP		5
		SADD.M1		R44,R47,R42
		SMOVIL		-256, R48
		SMOVIL		-1, R49
		SADDA.M1		R49:R48,AR14,AR10
		SNOP		1
		SLDW		*AR10, R45
		SNOP		5
		SLTU		R42, R45, R44
		SMOVIL		-252, R48
		SMOVIL		-1, R49
		SADDA.M1		R49:R48,AR14,AR10
		SNOP		1
		SLDW		*AR10, R45
		SNOP		5
		SMOVIL		-252, R48
		SMOVIL		-1, R49
		SADDA.M1		R49:R48,AR14,AR10
		SNOP		1
		SLDW		*AR10, R47
		SNOP		5
		SADD.M1		R47,R45,R43
		SADD.M1		R43,R44,R44
		SMOV.M1		R44, R43
		SADD.M1		R42,R42,R44
		SLTU		R44, R42, R47
		SADD.M1		R43,R43,R45
		SADD.M1		R45,R47,R42
		SMOV.M1		R42, R45
		SMOV.M1		R44, R42
		SMOV.M1		R45, R43
	;no-op trunc di R43:R42 to pdi R43:R42
		SLDDW		*-AR14[15], R45:R44
		SNOP		5
		SMVAGA36.M1		R45:R44, OR11
		SNOP		1
		SADDA.M1		R43:R42,OR11,OR11
		SNOP		1
		SMVAAGL.M1		OR11, R43:R42
		SNOP		1
		SMVAAGH.M1		OR11, R43:R42
		SNOP		1
		SMVAGA36.M1		R43:R42, AR10
		SNOP		1
		SLDW		*AR10, R42
		SNOP		5
		SFMULS32.M1		R46, R42, R42
		SNOP		3
		SMOVIL		-92, R44
		SMOVIL		-1, R45
		SADDA.M1		R45:R44,AR14,AR10
		SNOP		1
		SLDW		*AR10, R43
		SNOP		5
		SFADDS32.M1		R43, R42, R42
		SNOP		2
		SMOVIL		-92, R44
		SMOVIL		-1, R45
		SADDA.M1		R45:R44,AR14,AR10
		SNOP		1
		SSTW		R42, *AR10
	.loc 1 69 0 discriminator 2
		SMOVIL		-80, R44
		SMOVIL		-1, R45
		SADDA.M1		R45:R44,AR14,AR10
		SNOP		1
		SLDW		*AR10, R42
		SNOP		5
		SADD.M1		1,R42,R42
		SMOVIL		-80, R44
		SMOVIL		-1, R45
		SADDA.M1		R45:R44,AR14,AR10
		SNOP		1
		SSTW		R42, *AR10
.L21:
	.loc 1 69 0 is_stmt 0 discriminator 1
		SMOVIL		-80, R44
		SMOVIL		-1, R45
		SADDA.M1		R45:R44,AR14,AR10
		SNOP		1
		SLDW		*AR10, R43
		SNOP		5
		SMOVIL		-100, R44
		SMOVIL		-1, R45
		SADDA.M1		R45:R44,AR14,AR10
		SNOP		1
		SLDW		*AR10, R42
		SNOP		5
		SLT		R43, R42, R42
		SMOV.M1		R42, R0
	[R0]	SBR		.L22
		SNOP		6
	.loc 1 73 0 is_stmt 1
		SMOVIL		-92, R44
		SMOVIL		-1, R45
		SADDA.M1		R45:R44,AR14,AR10
		SNOP		1
		SLDW		*AR10, R43
		SNOP		5
		SMOVIL		-96, R44
		SMOVIL		-1, R45
		SADDA.M1		R45:R44,AR14,AR10
		SNOP		1
		SLDW		*AR10, R42
		SNOP		5
		SFMULS32.M1		R43, R42, R42
		SNOP		3
		SMOVIL		-92, R44
		SMOVIL		-1, R45
		SADDA.M1		R45:R44,AR14,AR10
		SNOP		1
		SSTW		R42, *AR10
	.loc 1 74 0
		SMOVIL		-72, R44
		SMOVIL		-1, R45
		SADDA.M1		R45:R44,AR14,AR10
		SNOP		1
		SLDW		*AR10, R42
		SNOP		5
		SMOVIL		-80, R44
		SMOVIL		-1, R45
		SADDA.M1		R45:R44,AR14,AR10
		SNOP		1
		SSTW		R42, *AR10
		SBR		.L23
		SNOP		6
.L24:
	.loc 1 76 0 discriminator 2
		SMOVIL		-76, R44
		SMOVIL		-1, R45
		SADDA.M1		R45:R44,AR14,AR10
		SNOP		1
		SLDW		*AR10, R43
		SNOP		5
		SMOVIL		-100, R44
		SMOVIL		-1, R45
		SADDA.M1		R45:R44,AR14,AR10
		SNOP		1
		SLDW		*AR10, R42
		SNOP		5
		SMULIS.M1		R42,R43,R43
		SNOP		2
		SMOVIL		-80, R44
		SMOVIL		-1, R45
		SADDA.M1		R45:R44,AR14,AR10
		SNOP		1
		SLDW		*AR10, R42
		SNOP		5
		SADD.M1		R42,R43,R42
		SMOVIL		-264, R44
		SMOVIL		-1, R45
		SADDA.M1		R45:R44,AR14,AR10
		SNOP		1
		SSTW		R42, *AR10
		SSHFAR		31, R42, R42
		SMOVIL		-260, R44
		SMOVIL		-1, R45
		SADDA.M1		R45:R44,AR14,AR10
		SNOP		1
		SSTW		R42, *AR10
		SMOVIL		-264, R44
		SMOVIL		-1, R45
		SADDA.M1		R45:R44,AR14,AR10
		SNOP		1
		SLDW		*AR10, R46
		SNOP		5
		SMOVIL		-264, R44
		SMOVIL		-1, R45
		SADDA.M1		R45:R44,AR14,AR10
		SNOP		1
		SLDW		*AR10, R44
		SNOP		5
		SADD.M1		R44,R46,R42
		SMOVIL		-264, R46
		SMOVIL		-1, R47
		SADDA.M1		R47:R46,AR14,AR10
		SNOP		1
		SLDW		*AR10, R45
		SNOP		5
		SLTU		R42, R45, R44
		SMOVIL		-260, R46
		SMOVIL		-1, R47
		SADDA.M1		R47:R46,AR14,AR10
		SNOP		1
		SLDW		*AR10, R45
		SNOP		5
		SMOVIL		-260, R46
		SMOVIL		-1, R47
		SADDA.M1		R47:R46,AR14,AR10
		SNOP		1
		SLDW		*AR10, R46
		SNOP		5
		SADD.M1		R46,R45,R43
		SADD.M1		R43,R44,R44
		SMOV.M1		R44, R43
		SADD.M1		R42,R42,R44
		SLTU		R44, R42, R46
		SADD.M1		R43,R43,R45
		SADD.M1		R45,R46,R42
		SMOV.M1		R42, R45
		SMOV.M1		R44, R42
		SMOV.M1		R45, R43
	;no-op trunc di R43:R42 to pdi R43:R42
		SLDDW		*-AR14[15], R45:R44
		SNOP		5
		SMVAGA36.M1		R45:R44, OR11
		SNOP		1
		SADDA.M1		R43:R42,OR11,OR11
		SNOP		1
		SMVAAGL.M1		OR11, R47:R46
		SNOP		1
		SMVAAGH.M1		OR11, R47:R46
		SNOP		1
		SMOVIL		-76, R44
		SMOVIL		-1, R45
		SADDA.M1		R45:R44,AR14,AR10
		SNOP		1
		SLDW		*AR10, R43
		SNOP		5
		SMOVIL		-100, R44
		SMOVIL		-1, R45
		SADDA.M1		R45:R44,AR14,AR10
		SNOP		1
		SLDW		*AR10, R42
		SNOP		5
		SMULIS.M1		R42,R43,R43
		SNOP		2
		SMOVIL		-80, R44
		SMOVIL		-1, R45
		SADDA.M1		R45:R44,AR14,AR10
		SNOP		1
		SLDW		*AR10, R42
		SNOP		5
		SADD.M1		R42,R43,R42
		SMOVIL		-272, R44
		SMOVIL		-1, R45
		SADDA.M1		R45:R44,AR14,AR10
		SNOP		1
		SSTW		R42, *AR10
		SSHFAR		31, R42, R42
		SMOVIL		-268, R44
		SMOVIL		-1, R45
		SADDA.M1		R45:R44,AR14,AR10
		SNOP		1
		SSTW		R42, *AR10
		SMOVIL		-272, R44
		SMOVIL		-1, R45
		SADDA.M1		R45:R44,AR14,AR10
		SNOP		1
		SLDW		*AR10, R48
		SNOP		5
		SMOVIL		-272, R44
		SMOVIL		-1, R45
		SADDA.M1		R45:R44,AR14,AR10
		SNOP		1
		SLDW		*AR10, R44
		SNOP		5
		SADD.M1		R44,R48,R42
		SMOVIL		-272, R48
		SMOVIL		-1, R49
		SADDA.M1		R49:R48,AR14,AR10
		SNOP		1
		SLDW		*AR10, R45
		SNOP		5
		SLTU		R42, R45, R44
		SMOVIL		-268, R48
		SMOVIL		-1, R49
		SADDA.M1		R49:R48,AR14,AR10
		SNOP		1
		SLDW		*AR10, R45
		SNOP		5
		SMOVIL		-268, R48
		SMOVIL		-1, R49
		SADDA.M1		R49:R48,AR14,AR10
		SNOP		1
		SLDW		*AR10, R48
		SNOP		5
		SADD.M1		R48,R45,R43
		SADD.M1		R43,R44,R44
		SMOV.M1		R44, R43
		SADD.M1		R42,R42,R44
		SLTU		R44, R42, R48
		SADD.M1		R43,R43,R45
		SADD.M1		R45,R48,R42
		SMOV.M1		R42, R45
		SMOV.M1		R44, R42
		SMOV.M1		R45, R43
	;no-op trunc di R43:R42 to pdi R43:R42
		SLDDW		*-AR14[15], R45:R44
		SNOP		5
		SMVAGA36.M1		R45:R44, OR11
		SNOP		1
		SADDA.M1		R43:R42,OR11,OR11
		SNOP		1
		SMVAAGL.M1		OR11, R43:R42
		SNOP		1
		SMVAAGH.M1		OR11, R43:R42
		SNOP		1
		SMVAGA36.M1		R43:R42, AR10
		SNOP		1
		SLDW		*AR10, R48
		SNOP		5
		SMOVIL		-80, R42
		SMOVIL		-1, R43
		SADDA.M1		R43:R42,AR14,AR10
		SNOP		1
		SLDW		*AR10, R44
		SNOP		5
		SMOVIL		-280, R42
		SMOVIL		-1, R43
		SADDA.M1		R43:R42,AR14,AR10
		SNOP		1
		SSTW		R44, *AR10
		SMOVIL		-80, R44
		SMOVIL		-1, R45
		SADDA.M1		R45:R44,AR14,AR10
		SNOP		1
		SLDW		*AR10, R42
		SNOP		5
		SSHFAR		31, R42, R42
		SMOVIL		-276, R44
		SMOVIL		-1, R45
		SADDA.M1		R45:R44,AR14,AR10
		SNOP		1
		SSTW		R42, *AR10
		SMOVIL		-280, R44
		SMOVIL		-1, R45
		SADDA.M1		R45:R44,AR14,AR10
		SNOP		1
		SLDW		*AR10, R49
		SNOP		5
		SMOVIL		-280, R44
		SMOVIL		-1, R45
		SADDA.M1		R45:R44,AR14,AR10
		SNOP		1
		SLDW		*AR10, R44
		SNOP		5
		SADD.M1		R44,R49,R42
		SMOVIL		-280, R50
		SMOVIL		-1, R51
		SADDA.M1		R51:R50,AR14,AR10
		SNOP		1
		SLDW		*AR10, R45
		SNOP		5
		SLTU		R42, R45, R44
		SMOVIL		-276, R50
		SMOVIL		-1, R51
		SADDA.M1		R51:R50,AR14,AR10
		SNOP		1
		SLDW		*AR10, R45
		SNOP		5
		SMOVIL		-276, R50
		SMOVIL		-1, R51
		SADDA.M1		R51:R50,AR14,AR10
		SNOP		1
		SLDW		*AR10, R49
		SNOP		5
		SADD.M1		R49,R45,R43
		SADD.M1		R43,R44,R44
		SMOV.M1		R44, R43
		SADD.M1		R42,R42,R44
		SLTU		R44, R42, R49
		SADD.M1		R43,R43,R45
		SADD.M1		R45,R49,R42
		SMOV.M1		R42, R45
		SMOV.M1		R44, R42
		SMOV.M1		R45, R43
	;no-op trunc di R43:R42 to pdi R43:R42
		SMOVIL		-136, R50
		SMOVIL		-1, R51
		SADDA.M1		R51:R50,AR14,AR10
		SNOP		1
		SLDDW		*AR10, R45:R44
		SNOP		5
		SMVAGA36.M1		R45:R44, OR11
		SNOP		1
		SADDA.M1		R43:R42,OR11,OR11
		SNOP		1
		SMVAAGL.M1		OR11, R43:R42
		SNOP		1
		SMVAAGH.M1		OR11, R43:R42
		SNOP		1
		SMVAGA36.M1		R43:R42, AR10
		SNOP		1
		SLDW		*AR10, R43
		SNOP		5
		SMOVIL		-92, R44
		SMOVIL		-1, R45
		SADDA.M1		R45:R44,AR14,AR10
		SNOP		1
		SLDW		*AR10, R42
		SNOP		5
		SFMULS32.M1		R43, R42, R42
		SNOP		3
		SFSUBS32.M1		R42, R48, R42
		SNOP		2
		SMVAGA36.M1		R47:R46, AR10
		SNOP		1
		SSTW		R42, *AR10
	.loc 1 74 0 discriminator 2
		SMOVIL		-80, R44
		SMOVIL		-1, R45
		SADDA.M1		R45:R44,AR14,AR10
		SNOP		1
		SLDW		*AR10, R42
		SNOP		5
		SADD.M1		1,R42,R42
		SMOVIL		-80, R44
		SMOVIL		-1, R45
		SADDA.M1		R45:R44,AR14,AR10
		SNOP		1
		SSTW		R42, *AR10
.L23:
	.loc 1 74 0 is_stmt 0 discriminator 1
		SMOVIL		-80, R44
		SMOVIL		-1, R45
		SADDA.M1		R45:R44,AR14,AR10
		SNOP		1
		SLDW		*AR10, R43
		SNOP		5
		SMOVIL		-100, R44
		SMOVIL		-1, R45
		SADDA.M1		R45:R44,AR14,AR10
		SNOP		1
		SLDW		*AR10, R42
		SNOP		5
		SLT		R43, R42, R42
		SMOV.M1		R42, R0
	[R0]	SBR		.L24
		SNOP		6
	.loc 1 66 0 is_stmt 1
		SMOVIL		-76, R44
		SMOVIL		-1, R45
		SADDA.M1		R45:R44,AR14,AR10
		SNOP		1
		SLDW		*AR10, R42
		SNOP		5
		SADD.M1		1,R42,R42
		SMOVIL		-76, R44
		SMOVIL		-1, R45
		SADDA.M1		R45:R44,AR14,AR10
		SNOP		1
		SSTW		R42, *AR10
.L20:
	.loc 1 66 0 is_stmt 0 discriminator 1
		SMOVIL		-76, R44
		SMOVIL		-1, R45
		SADDA.M1		R45:R44,AR14,AR10
		SNOP		1
		SLDW		*AR10, R43
		SNOP		5
		SMOVIL		-100, R44
		SMOVIL		-1, R45
		SADDA.M1		R45:R44,AR14,AR10
		SNOP		1
		SLDW		*AR10, R42
		SNOP		5
		SLT		R43, R42, R42
		SMOV.M1		R42, R0
	[R0]	SBR		.L25
		SNOP		6
.L9:
.LBE2:
	.loc 1 26 0 is_stmt 1
		SMOVIL		-72, R44
		SMOVIL		-1, R45
		SADDA.M1		R45:R44,AR14,AR10
		SNOP		1
		SLDW		*AR10, R42
		SNOP		5
		SADD.M1		1,R42,R42
		SMOVIL		-72, R44
		SMOVIL		-1, R45
		SADDA.M1		R45:R44,AR14,AR10
		SNOP		1
		SSTW		R42, *AR10
.L6:
	.loc 1 26 0 is_stmt 0 discriminator 1
		SMOVIL		-72, R44
		SMOVIL		-1, R45
		SADDA.M1		R45:R44,AR14,AR10
		SNOP		1
		SLDW		*AR10, R43
		SNOP		5
		SMOVIL		-84, R44
		SMOVIL		-1, R45
		SADDA.M1		R45:R44,AR14,AR10
		SNOP		1
		SLDW		*AR10, R42
		SNOP		5
		SLT		R42, R43, R42
		SMOV.M1		R42, R0
	[!R0]	SBR		.L26
		SNOP		6
	.loc 1 83 0 is_stmt 1
		SMOVIL		0, R42
	.loc 1 84 0
		SMOV.M1		R42, R10
		SLDDW		*+AR15[28], R31:R30
		SNOP		5
		SLDDW		*+AR15[29], R33:R32
		SNOP		5
		SLDDW		*+AR15[30], R35:R34
		SNOP		5
		SLDDW		*+AR15[31], R37:R36
		SNOP		5
		SLDDW		*+AR15[32], R39:R38
		SNOP		5
		SLDDW		*+AR15[33], R41:R40
		SNOP		5
		SLDDW		*+AR15[34], R63:R62
		SNOP		5
		SADDA.M1		-16,AR14,AR15
		SNOP		1
		SLDDW		*++AR15[2], R7:R6
		SNOP		5
		SMVAGA36.M1		R7:R6, AR14
		SNOP		1
		SMVCGC.L		R63, BRReg
		SNOP		1
		SBR		R62
		SNOP		6
	.cfi_endproc
.LFE0:
	.size	trival_qr, .-trival_qr
	.section	.text.vector_qr,"ax",@progbits
	.align	2
	.global	vector_qr
	.type	vector_qr, @function
vector_qr:
.LFB1:
	.loc 1 87 0
	.cfi_startproc
		SMOVIL		128, R6
		SMOVIL		0, R7
		SSUBA.L		R7:R6, AR7, AR7
		SNOP		2
		SMVAAGL.M1		AR14, R7:R6
		SNOP		1
		SMVAAGH.M1		AR14, R7:R6
		SNOP		1
		SSTDW		R7:R6, *AR15--[2]
.LCFI2:
	.cfi_def_cfa_offset 16
	.cfi_offset 14, 0
		SADDA.M1		16,AR15,AR14
.LCFI3:
	.cfi_def_cfa 14, 0
		SNOP		1
		SMOVIL		-392, R6
		SMOVIL		-1, R7
		SADDA.M1		R7:R6,AR15,AR15
		SNOP		1
		SSTDW		R63:R62, *+AR15[49]
		SSTDW		R41:R40, *+AR15[48]
		SSTDW		R39:R38, *+AR15[47]
		SSTDW		R37:R36, *+AR15[46]
		SSTDW		R35:R34, *+AR15[45]
		SSTDW		R33:R32, *+AR15[44]
		SSTDW		R31:R30, *+AR15[43]
	.cfi_offset 78, -16
	.cfi_offset 79, -12
	.cfi_offset 56, -24
	.cfi_offset 57, -20
	.cfi_offset 54, -32
	.cfi_offset 55, -28
	.cfi_offset 52, -40
	.cfi_offset 53, -36
	.cfi_offset 50, -48
	.cfi_offset 51, -44
	.cfi_offset 48, -56
	.cfi_offset 49, -52
	.cfi_offset 46, -64
	.cfi_offset 47, -60
		SMOVIL		-124, R46
		SMOVIL		-1, R47
		SMOVIL		-64, R42
		SMOVIL		-1, R43
		SADDA.M1		R43:R42,AR14,OR11
		SNOP		1
		SADDA.M1		R47:R46,OR11,OR11
		SNOP		1
		SMVAAGL.M1		OR11, R47:R46
		SNOP		1
		SMVAAGH.M1		OR11, R47:R46
		SNOP		1
		SMVAGA36.M1		R47:R46, AR10
		SNOP		1
		SSTW		R10, *AR10
		SMOVIL		-128, R46
		SMOVIL		-1, R47
		SMOVIL		-64, R42
		SMOVIL		-1, R43
		SADDA.M1		R43:R42,AR14,OR11
		SNOP		1
		SADDA.M1		R47:R46,OR11,OR11
		SNOP		1
		SMVAAGL.M1		OR11, R47:R46
		SNOP		1
		SMVAAGH.M1		OR11, R47:R46
		SNOP		1
		SMVAGA36.M1		R47:R46, AR10
		SNOP		1
		SSTW		R12, *AR10
		SMOVIL		-136, R46
		SMOVIL		-1, R47
		SMOVIL		-64, R42
		SMOVIL		-1, R43
		SADDA.M1		R43:R42,AR14,OR11
		SNOP		1
		SADDA.M1		R47:R46,OR11,OR11
		SNOP		1
		SMVAAGL.M1		OR11, R47:R46
		SNOP		1
		SMVAAGH.M1		OR11, R47:R46
		SNOP		1
		SMVAGA36.M1		R47:R46, AR10
		SNOP		1
		SSTDW		R15:R14, *AR10
		SMOVIL		-144, R46
		SMOVIL		-1, R47
		SMOVIL		-64, R42
		SMOVIL		-1, R43
		SADDA.M1		R43:R42,AR14,OR11
		SNOP		1
		SADDA.M1		R47:R46,OR11,OR11
		SNOP		1
		SMVAAGL.M1		OR11, R47:R46
		SNOP		1
		SMVAAGH.M1		OR11, R47:R46
		SNOP		1
		SMVAGA36.M1		R47:R46, AR10
		SNOP		1
		SSTDW		R17:R16, *AR10
		SMOVIL		-152, R46
		SMOVIL		-1, R47
		SMOVIL		-64, R42
		SMOVIL		-1, R43
		SADDA.M1		R43:R42,AR14,OR11
		SNOP		1
		SADDA.M1		R47:R46,OR11,OR11
		SNOP		1
		SMVAAGL.M1		OR11, R47:R46
		SNOP		1
		SMVAAGH.M1		OR11, R47:R46
		SNOP		1
		SMVAGA36.M1		R47:R46, AR10
		SNOP		1
		SSTDW		R19:R18, *AR10
		SMOVIL		-160, R46
		SMOVIL		-1, R47
		SMOVIL		-64, R42
		SMOVIL		-1, R43
		SADDA.M1		R43:R42,AR14,OR11
		SNOP		1
		SADDA.M1		R47:R46,OR11,OR11
		SNOP		1
		SMVAAGL.M1		OR11, R47:R46
		SNOP		1
		SMVAAGH.M1		OR11, R47:R46
		SNOP		1
		SMVAGA36.M1		R47:R46, AR10
		SNOP		1
		SSTDW		R21:R20, *AR10
	.loc 1 88 0
		SMOVIL		1073741824, R46
		SMOVIH		1073741824, R46
		SMOVIL		0, R47
		SSTDW		R47:R46, *-AR14[13]
	.loc 1 89 0
		SMOVIL		1073872896, R46
		SMOVIH		1073872896, R46
		SMOVIL		0, R47
		SSTDW		R47:R46, *-AR14[14]
	.loc 1 97 0
		SMOVIL		-124, R46
		SMOVIL		-1, R47
		SMOVIL		-64, R42
		SMOVIL		-1, R43
		SADDA.M1		R43:R42,AR14,OR11
		SNOP		1
		SADDA.M1		R47:R46,OR11,OR11
		SNOP		1
		SMVAAGL.M1		OR11, R47:R46
		SNOP		1
		SMVAAGH.M1		OR11, R47:R46
		SNOP		1
		SMVAGA36.M1		R47:R46, AR10
		SNOP		1
		SLDW		*AR10, R44
		SNOP		5
		SMVAGA36.M1		R47:R46, AR10
		SNOP		1
		SLDW		*AR10, R46
		SNOP		5
		SSHFAR		31, R46, R46
		SMOV.M1		R46, R45
		SMOVIL		-128, R46
		SMOVIL		-1, R47
		SMOVIL		-64, R42
		SMOVIL		-1, R43
		SADDA.M1		R43:R42,AR14,OR11
		SNOP		1
		SADDA.M1		R47:R46,OR11,OR11
		SNOP		1
		SMVAAGL.M1		OR11, R47:R46
		SNOP		1
		SMVAAGH.M1		OR11, R47:R46
		SNOP		1
		SMVAGA36.M1		R47:R46, AR10
		SNOP		1
		SLDW		*AR10, R42
		SNOP		5
		SMVAGA36.M1		R47:R46, AR10
		SNOP		1
		SLDW		*AR10, R46
		SNOP		5
		SSHFAR		31, R46, R46
		SMOV.M1		R46, R43
		SMULIS.M1		R42,R45,R47
		SNOP		2
		SMULIS.M1		R44,R43,R46
		SNOP		2
		SADD.M1		R46,R47,R46
		SMULU.M1		R42,R44,R45:R44
		SNOP		3
		SADD.M1		R45,R46,R42
		SMOV.M1		R42, R45
		SADD.M1		R44,R44,R42
		SLTU		R42, R44, R46
		SADD.M1		R45,R45,R43
		SADD.M1		R43,R46,R44
		SMOV.M1		R44, R43
		SADD.M1		R42,R42,R44
		SLTU		R44, R42, R46
		SADD.M1		R43,R43,R45
		SADD.M1		R45,R46,R42
		SMOV.M1		R42, R45
		SMOV.M1		R44, R42
		SMOV.M1		R45, R43
		SMOVIL		-152, R44
		SMOVIL		-1, R45
		SMOVIL		-64, R48
		SMOVIL		-1, R49
		SADDA.M1		R49:R48,AR14,OR11
		SNOP		1
		SADDA.M1		R45:R44,OR11,OR11
		SNOP		1
		SMVAAGL.M1		OR11, R47:R46
		SNOP		1
		SMVAAGH.M1		OR11, R47:R46
		SNOP		1
		SMOVIL		-136, R44
		SMOVIL		-1, R45
		SMOVIL		-64, R48
		SMOVIL		-1, R49
		SADDA.M1		R49:R48,AR14,OR11
		SNOP		1
		SADDA.M1		R45:R44,OR11,OR11
		SNOP		1
		SMVAAGL.M1		OR11, R45:R44
		SNOP		1
		SMVAAGH.M1		OR11, R45:R44
		SNOP		1
		SMVAGA36.M1		R47:R46, AR10
		SNOP		1
		SLDDW		*AR10, R11:R10
		SNOP		5
		SMVAGA36.M1		R45:R44, AR10
		SNOP		1
		SLDDW		*AR10, R13:R12
		SNOP		5
		SMOV.M1		R42, R14
		SMOV.M1		R43, R15
		SBR		memcpy
		SMOVIL		.L60, R62
		SMOVIH		.L60, R62
		SMOVIH4.L		.L60, R63
		SNOP		4
.L60:
	.loc 1 98 0
		SMOVIL		-124, R42
		SMOVIL		-1, R43
		SMOVIL		-64, R44
		SMOVIL		-1, R45
		SADDA.M1		R45:R44,AR14,OR11
		SNOP		1
		SADDA.M1		R43:R42,OR11,OR11
		SNOP		1
		SMVAAGL.M1		OR11, R43:R42
		SNOP		1
		SMVAAGH.M1		OR11, R43:R42
		SNOP		1
		SMVAGA36.M1		R43:R42, AR10
		SNOP		1
		SLDW		*AR10, R46
		SNOP		5
		SMOVIL		-232, R44
		SMOVIL		-1, R45
		SADDA.M1		R45:R44,AR14,AR10
		SNOP		1
		SSTW		R46, *AR10
		SMVAGA36.M1		R43:R42, AR10
		SNOP		1
		SLDW		*AR10, R42
		SNOP		5
		SSHFAR		31, R42, R42
		SMOVIL		-228, R44
		SMOVIL		-1, R45
		SADDA.M1		R45:R44,AR14,AR10
		SNOP		1
		SSTW		R42, *AR10
		SMOVIL		-124, R42
		SMOVIL		-1, R43
		SMOVIL		-64, R44
		SMOVIL		-1, R45
		SADDA.M1		R45:R44,AR14,OR11
		SNOP		1
		SADDA.M1		R43:R42,OR11,OR11
		SNOP		1
		SMVAAGL.M1		OR11, R43:R42
		SNOP		1
		SMVAAGH.M1		OR11, R43:R42
		SNOP		1
		SMVAGA36.M1		R43:R42, AR10
		SNOP		1
		SLDW		*AR10, R46
		SNOP		5
		SMOVIL		-240, R44
		SMOVIL		-1, R45
		SADDA.M1		R45:R44,AR14,AR10
		SNOP		1
		SSTW		R46, *AR10
		SMVAGA36.M1		R43:R42, AR10
		SNOP		1
		SLDW		*AR10, R42
		SNOP		5
		SSHFAR		31, R42, R42
		SMOVIL		-236, R44
		SMOVIL		-1, R45
		SADDA.M1		R45:R44,AR14,AR10
		SNOP		1
		SSTW		R42, *AR10
		SMOVIL		-228, R44
		SMOVIL		-1, R45
		SADDA.M1		R45:R44,AR14,AR10
		SNOP		1
		SLDW		*AR10, R42
		SNOP		5
		SMOVIL		-240, R44
		SMOVIL		-1, R45
		SADDA.M1		R45:R44,AR14,AR10
		SNOP		1
		SLDW		*AR10, R44
		SNOP		5
		SMULIS.M1		R44,R42,R43
		SNOP		2
		SMOVIL		-236, R44
		SMOVIL		-1, R45
		SADDA.M1		R45:R44,AR14,AR10
		SNOP		1
		SLDW		*AR10, R46
		SNOP		5
		SMOVIL		-232, R44
		SMOVIL		-1, R45
		SADDA.M1		R45:R44,AR14,AR10
		SNOP		1
		SLDW		*AR10, R44
		SNOP		5
		SMULIS.M1		R44,R46,R42
		SNOP		2
		SADD.M1		R42,R43,R42
		SMOVIL		-232, R46
		SMOVIL		-1, R47
		SADDA.M1		R47:R46,AR14,AR10
		SNOP		1
		SLDW		*AR10, R43
		SNOP		5
		SMOVIL		-240, R46
		SMOVIL		-1, R47
		SADDA.M1		R47:R46,AR14,AR10
		SNOP		1
		SLDW		*AR10, R46
		SNOP		5
		SMULU.M1		R46,R43,R45:R44
		SNOP		3
		SADD.M1		R45,R42,R42
		SMOV.M1		R42, R45
		SADD.M1		R44,R44,R42
		SLTU		R42, R44, R46
		SADD.M1		R45,R45,R43
		SADD.M1		R43,R46,R44
		SMOV.M1		R44, R43
		SADD.M1		R42,R42,R44
		SLTU		R44, R42, R46
		SADD.M1		R43,R43,R45
		SADD.M1		R45,R46,R42
		SMOV.M1		R42, R45
		SMOV.M1		R44, R42
		SMOV.M1		R45, R43
		SMOVIL		-144, R44
		SMOVIL		-1, R45
		SMOVIL		-64, R48
		SMOVIL		-1, R49
		SADDA.M1		R49:R48,AR14,OR11
		SNOP		1
		SADDA.M1		R45:R44,OR11,OR11
		SNOP		1
		SMVAAGL.M1		OR11, R45:R44
		SNOP		1
		SMVAAGH.M1		OR11, R45:R44
		SNOP		1
		SMVAGA36.M1		R45:R44, AR10
		SNOP		1
		SLDDW		*AR10, R11:R10
		SNOP		5
		SMOVIL		0, R12
		SMOV.M1		R42, R14
		SMOV.M1		R43, R15
		SBR		memset
		SMOVIL		.L61, R62
		SMOVIH		.L61, R62
		SMOVIH4.L		.L61, R63
		SNOP		4
.L61:
	.loc 1 102 0
		SMOVIL		0, R42
		SMOVIL		-68, R44
		SMOVIL		-1, R45
		SADDA.M1		R45:R44,AR14,AR10
		SNOP		1
		SSTW		R42, *AR10
		SBR		.L33
		SNOP		6
.L34:
	.loc 1 104 0 discriminator 2
		SMOVIL		-124, R42
		SMOVIL		-1, R43
		SMOVIL		-64, R44
		SMOVIL		-1, R45
		SADDA.M1		R45:R44,AR14,OR11
		SNOP		1
		SADDA.M1		R43:R42,OR11,OR11
		SNOP		1
		SMVAAGL.M1		OR11, R43:R42
		SNOP		1
		SMVAAGH.M1		OR11, R43:R42
		SNOP		1
		SMVAGA36.M1		R43:R42, AR10
		SNOP		1
		SLDW		*AR10, R42
		SNOP		5
		SADD.M1		1,R42,R43
		SMOVIL		-68, R44
		SMOVIL		-1, R45
		SADDA.M1		R45:R44,AR14,AR10
		SNOP		1
		SLDW		*AR10, R42
		SNOP		5
		SMULIS.M1		R42,R43,R42
		SNOP		2
		SMOVIL		-248, R44
		SMOVIL		-1, R45
		SADDA.M1		R45:R44,AR14,AR10
		SNOP		1
		SSTW		R42, *AR10
		SSHFAR		31, R42, R42
		SMOVIL		-244, R44
		SMOVIL		-1, R45
		SADDA.M1		R45:R44,AR14,AR10
		SNOP		1
		SSTW		R42, *AR10
		SMOVIL		-248, R44
		SMOVIL		-1, R45
		SADDA.M1		R45:R44,AR14,AR10
		SNOP		1
		SLDW		*AR10, R46
		SNOP		5
		SMOVIL		-248, R44
		SMOVIL		-1, R45
		SADDA.M1		R45:R44,AR14,AR10
		SNOP		1
		SLDW		*AR10, R44
		SNOP		5
		SADD.M1		R44,R46,R42
		SMOVIL		-248, R46
		SMOVIL		-1, R47
		SADDA.M1		R47:R46,AR14,AR10
		SNOP		1
		SLDW		*AR10, R45
		SNOP		5
		SLTU		R42, R45, R44
		SMOVIL		-244, R46
		SMOVIL		-1, R47
		SADDA.M1		R47:R46,AR14,AR10
		SNOP		1
		SLDW		*AR10, R45
		SNOP		5
		SMOVIL		-244, R46
		SMOVIL		-1, R47
		SADDA.M1		R47:R46,AR14,AR10
		SNOP		1
		SLDW		*AR10, R46
		SNOP		5
		SADD.M1		R46,R45,R43
		SADD.M1		R43,R44,R44
		SMOV.M1		R44, R43
		SADD.M1		R42,R42,R44
		SLTU		R44, R42, R46
		SADD.M1		R43,R43,R45
		SADD.M1		R45,R46,R42
		SMOV.M1		R42, R45
		SMOV.M1		R44, R42
		SMOV.M1		R45, R43
		SMOVIL		-144, R44
		SMOVIL		-1, R45
		SMOVIL		-64, R48
		SMOVIL		-1, R49
		SADDA.M1		R49:R48,AR14,OR11
		SNOP		1
		SADDA.M1		R45:R44,OR11,OR11
		SNOP		1
		SMVAAGL.M1		OR11, R45:R44
		SNOP		1
		SMVAAGH.M1		OR11, R45:R44
		SNOP		1
	;no-op trunc di R43:R42 to pdi R43:R42
		SMVAGA36.M1		R45:R44, AR10
		SNOP		1
		SLDDW		*AR10, R45:R44
		SNOP		5
		SMVAGA36.M1		R45:R44, OR11
		SNOP		1
		SADDA.M1		R43:R42,OR11,OR11
		SNOP		1
		SMVAAGL.M1		OR11, R43:R42
		SNOP		1
		SMVAAGH.M1		OR11, R43:R42
		SNOP		1
		SMOVIL		1065353216, R44
		SMOVIH		1065353216, R44
		SMVAGA36.M1		R43:R42, AR10
		SNOP		1
		SSTW		R44, *AR10
	.loc 1 102 0 discriminator 2
		SMOVIL		-68, R44
		SMOVIL		-1, R45
		SADDA.M1		R45:R44,AR14,AR10
		SNOP		1
		SLDW		*AR10, R42
		SNOP		5
		SADD.M1		1,R42,R42
		SMOVIL		-68, R44
		SMOVIL		-1, R45
		SADDA.M1		R45:R44,AR14,AR10
		SNOP		1
		SSTW		R42, *AR10
.L33:
	.loc 1 102 0 is_stmt 0 discriminator 1
		SMOVIL		-124, R42
		SMOVIL		-1, R43
		SMOVIL		-64, R44
		SMOVIL		-1, R45
		SADDA.M1		R45:R44,AR14,OR11
		SNOP		1
		SADDA.M1		R43:R42,OR11,OR11
		SNOP		1
		SMVAAGL.M1		OR11, R43:R42
		SNOP		1
		SMVAAGH.M1		OR11, R43:R42
		SNOP		1
		SMOVIL		-68, R46
		SMOVIL		-1, R47
		SADDA.M1		R47:R46,AR14,AR10
		SNOP		1
		SLDW		*AR10, R44
		SNOP		5
		SMVAGA36.M1		R43:R42, AR10
		SNOP		1
		SLDW		*AR10, R42
		SNOP		5
		SLT		R44, R42, R42
		SMOV.M1		R42, R0
	[R0]	SBR		.L34
		SNOP		6
	.loc 1 107 0 is_stmt 1
		SMOVIL		-124, R42
		SMOVIL		-1, R43
		SMOVIL		-64, R46
		SMOVIL		-1, R47
		SADDA.M1		R47:R46,AR14,OR11
		SNOP		1
		SADDA.M1		R43:R42,OR11,OR11
		SNOP		1
		SMVAAGL.M1		OR11, R45:R44
		SNOP		1
		SMVAAGH.M1		OR11, R45:R44
		SNOP		1
		SMOVIL		-128, R42
		SMOVIL		-1, R43
		SMOVIL		-64, R46
		SMOVIL		-1, R47
		SADDA.M1		R47:R46,AR14,OR11
		SNOP		1
		SADDA.M1		R43:R42,OR11,OR11
		SNOP		1
		SMVAAGL.M1		OR11, R43:R42
		SNOP		1
		SMVAAGH.M1		OR11, R43:R42
		SNOP		1
		SMVAGA36.M1		R45:R44, AR10
		SNOP		1
		SLDW		*AR10, R44
		SNOP		5
		SMVAGA36.M1		R43:R42, AR10
		SNOP		1
		SLDW		*AR10, R42
		SNOP		5
		SLT		R42, R44, R42
		SMOV.M1		R42, R0
	[R0]	SBR		.L35
		SNOP		6
	.loc 1 109 0
		SMOVIL		-124, R42
		SMOVIL		-1, R43
		SMOVIL		-64, R44
		SMOVIL		-1, R45
		SADDA.M1		R45:R44,AR14,OR11
		SNOP		1
		SADDA.M1		R43:R42,OR11,OR11
		SNOP		1
		SMVAAGL.M1		OR11, R43:R42
		SNOP		1
		SMVAAGH.M1		OR11, R43:R42
		SNOP		1
		SMVAGA36.M1		R43:R42, AR10
		SNOP		1
		SLDW		*AR10, R42
		SNOP		5
		SADD.M1		-2,R42,R42
		SMOVIL		-84, R44
		SMOVIL		-1, R45
		SADDA.M1		R45:R44,AR14,AR10
		SNOP		1
		SSTW		R42, *AR10
		SBR		.L36
		SNOP		6
.L35:
	.loc 1 113 0
		SMOVIL		-128, R42
		SMOVIL		-1, R43
		SMOVIL		-64, R44
		SMOVIL		-1, R45
		SADDA.M1		R45:R44,AR14,OR11
		SNOP		1
		SADDA.M1		R43:R42,OR11,OR11
		SNOP		1
		SMVAAGL.M1		OR11, R43:R42
		SNOP		1
		SMVAAGH.M1		OR11, R43:R42
		SNOP		1
		SMVAGA36.M1		R43:R42, AR10
		SNOP		1
		SLDW		*AR10, R42
		SNOP		5
		SADD.M1		-1,R42,R42
		SMOVIL		-84, R44
		SMOVIL		-1, R45
		SADDA.M1		R45:R44,AR14,AR10
		SNOP		1
		SSTW		R42, *AR10
.L36:
	.loc 1 115 0
		SMOVIL		0, R42
		SMOVIL		-72, R44
		SMOVIL		-1, R45
		SADDA.M1		R45:R44,AR14,AR10
		SNOP		1
		SSTW		R42, *AR10
		SBR		.L37
		SNOP		6
.L57:
	.loc 1 117 0
		SMOVIL		0, R42
		SMOVIH		0, R42
		SMOVIL		-92, R44
		SMOVIL		-1, R45
		SADDA.M1		R45:R44,AR14,AR10
		SNOP		1
		SSTW		R42, *AR10
	.loc 1 118 0
		SMOVIL		-72, R44
		SMOVIL		-1, R45
		SADDA.M1		R45:R44,AR14,AR10
		SNOP		1
		SLDW		*AR10, R42
		SNOP		5
		SMOVIL		-68, R44
		SMOVIL		-1, R45
		SADDA.M1		R45:R44,AR14,AR10
		SNOP		1
		SSTW		R42, *AR10
		SBR		.L38
		SNOP		6
.L39:
	.loc 1 120 0 discriminator 2
		SMOVIL		-128, R42
		SMOVIL		-1, R43
		SMOVIL		-64, R44
		SMOVIL		-1, R45
		SADDA.M1		R45:R44,AR14,OR11
		SNOP		1
		SADDA.M1		R43:R42,OR11,OR11
		SNOP		1
		SMVAAGL.M1		OR11, R43:R42
		SNOP		1
		SMVAAGH.M1		OR11, R43:R42
		SNOP		1
		SMOVIL		-68, R46
		SMOVIL		-1, R47
		SADDA.M1		R47:R46,AR14,AR10
		SNOP		1
		SLDW		*AR10, R44
		SNOP		5
		SMVAGA36.M1		R43:R42, AR10
		SNOP		1
		SLDW		*AR10, R42
		SNOP		5
		SMULIS.M1		R42,R44,R43
		SNOP		2
		SMOVIL		-72, R44
		SMOVIL		-1, R45
		SADDA.M1		R45:R44,AR14,AR10
		SNOP		1
		SLDW		*AR10, R42
		SNOP		5
		SADD.M1		R42,R43,R42
		SMOV.M1		R42, R30
		SSHFAR		31, R42, R42
		SMOV.M1		R42, R31
		SADD.M1		R30,R30,R42
		SLTU		R42, R30, R44
		SADD.M1		R31,R31,R43
		SADD.M1		R43,R44,R44
		SMOV.M1		R44, R43
		SADD.M1		R42,R42,R44
		SLTU		R44, R42, R46
		SADD.M1		R43,R43,R45
		SADD.M1		R45,R46,R42
		SMOV.M1		R42, R45
		SMOV.M1		R44, R42
		SMOV.M1		R45, R43
		SMOVIL		-152, R44
		SMOVIL		-1, R45
		SMOVIL		-64, R46
		SMOVIL		-1, R47
		SADDA.M1		R47:R46,AR14,OR11
		SNOP		1
		SADDA.M1		R45:R44,OR11,OR11
		SNOP		1
		SMVAAGL.M1		OR11, R45:R44
		SNOP		1
		SMVAAGH.M1		OR11, R45:R44
		SNOP		1
	;no-op trunc di R43:R42 to pdi R43:R42
		SMVAGA36.M1		R45:R44, AR10
		SNOP		1
		SLDDW		*AR10, R45:R44
		SNOP		5
		SMVAGA36.M1		R45:R44, OR11
		SNOP		1
		SADDA.M1		R43:R42,OR11,OR11
		SNOP		1
		SMVAAGL.M1		OR11, R43:R42
		SNOP		1
		SMVAAGH.M1		OR11, R43:R42
		SNOP		1
		SMVAGA36.M1		R43:R42, AR10
		SNOP		1
		SLDW		*AR10, R46
		SNOP		5
		SMOVIL		-128, R42
		SMOVIL		-1, R43
		SMOVIL		-64, R44
		SMOVIL		-1, R45
		SADDA.M1		R45:R44,AR14,OR11
		SNOP		1
		SADDA.M1		R43:R42,OR11,OR11
		SNOP		1
		SMVAAGL.M1		OR11, R43:R42
		SNOP		1
		SMVAAGH.M1		OR11, R43:R42
		SNOP		1
		SMOVIL		-68, R48
		SMOVIL		-1, R49
		SADDA.M1		R49:R48,AR14,AR10
		SNOP		1
		SLDW		*AR10, R44
		SNOP		5
		SMVAGA36.M1		R43:R42, AR10
		SNOP		1
		SLDW		*AR10, R42
		SNOP		5
		SMULIS.M1		R42,R44,R43
		SNOP		2
		SMOVIL		-72, R44
		SMOVIL		-1, R45
		SADDA.M1		R45:R44,AR14,AR10
		SNOP		1
		SLDW		*AR10, R42
		SNOP		5
		SADD.M1		R42,R43,R42
		SMOV.M1		R42, R32
		SSHFAR		31, R42, R42
		SMOV.M1		R42, R33
		SADD.M1		R32,R32,R42
		SLTU		R42, R32, R44
		SADD.M1		R33,R33,R43
		SADD.M1		R43,R44,R44
		SMOV.M1		R44, R43
		SADD.M1		R42,R42,R44
		SLTU		R44, R42, R47
		SADD.M1		R43,R43,R45
		SADD.M1		R45,R47,R42
		SMOV.M1		R42, R45
		SMOV.M1		R44, R42
		SMOV.M1		R45, R43
		SMOVIL		-152, R44
		SMOVIL		-1, R45
		SMOVIL		-64, R48
		SMOVIL		-1, R49
		SADDA.M1		R49:R48,AR14,OR11
		SNOP		1
		SADDA.M1		R45:R44,OR11,OR11
		SNOP		1
		SMVAAGL.M1		OR11, R45:R44
		SNOP		1
		SMVAAGH.M1		OR11, R45:R44
		SNOP		1
	;no-op trunc di R43:R42 to pdi R43:R42
		SMVAGA36.M1		R45:R44, AR10
		SNOP		1
		SLDDW		*AR10, R45:R44
		SNOP		5
		SMVAGA36.M1		R45:R44, OR11
		SNOP		1
		SADDA.M1		R43:R42,OR11,OR11
		SNOP		1
		SMVAAGL.M1		OR11, R43:R42
		SNOP		1
		SMVAAGH.M1		OR11, R43:R42
		SNOP		1
		SMVAGA36.M1		R43:R42, AR10
		SNOP		1
		SLDW		*AR10, R42
		SNOP		5
		SFMULS32.M1		R46, R42, R42
		SNOP		3
		SMOVIL		-92, R44
		SMOVIL		-1, R45
		SADDA.M1		R45:R44,AR14,AR10
		SNOP		1
		SLDW		*AR10, R43
		SNOP		5
		SFADDS32.M1		R43, R42, R42
		SNOP		2
		SMOVIL		-92, R44
		SMOVIL		-1, R45
		SADDA.M1		R45:R44,AR14,AR10
		SNOP		1
		SSTW		R42, *AR10
	.loc 1 118 0 discriminator 2
		SMOVIL		-68, R44
		SMOVIL		-1, R45
		SADDA.M1		R45:R44,AR14,AR10
		SNOP		1
		SLDW		*AR10, R42
		SNOP		5
		SADD.M1		1,R42,R42
		SMOVIL		-68, R44
		SMOVIL		-1, R45
		SADDA.M1		R45:R44,AR14,AR10
		SNOP		1
		SSTW		R42, *AR10
.L38:
	.loc 1 118 0 is_stmt 0 discriminator 1
		SMOVIL		-124, R42
		SMOVIL		-1, R43
		SMOVIL		-64, R44
		SMOVIL		-1, R45
		SADDA.M1		R45:R44,AR14,OR11
		SNOP		1
		SADDA.M1		R43:R42,OR11,OR11
		SNOP		1
		SMVAAGL.M1		OR11, R43:R42
		SNOP		1
		SMVAAGH.M1		OR11, R43:R42
		SNOP		1
		SMOVIL		-68, R46
		SMOVIL		-1, R47
		SADDA.M1		R47:R46,AR14,AR10
		SNOP		1
		SLDW		*AR10, R44
		SNOP		5
		SMVAGA36.M1		R43:R42, AR10
		SNOP		1
		SLDW		*AR10, R42
		SNOP		5
		SLT		R44, R42, R42
		SMOV.M1		R42, R0
	[R0]	SBR		.L39
		SNOP		6
	.loc 1 122 0 is_stmt 1
		SMOVIL		-92, R44
		SMOVIL		-1, R45
		SADDA.M1		R45:R44,AR14,AR10
		SNOP		1
		SLDW		*AR10, R43
		SNOP		5
		SMOVIL		0, R42
		SMOVIH		0, R42
		SFCMPES32.M1		R43, R42, R42
		SMOV.M1		R42, R0
	[R0]	SBR		.L40
		SNOP		6
.LBB3:
	.loc 1 124 0
		SMOVIL		-92, R44
		SMOVIL		-1, R45
		SADDA.M1		R45:R44,AR14,AR10
		SNOP		1
		SLDW		*AR10, R42
		SNOP		5
		SFSPDP32T.M1		R42, R43:R42
		SNOP		1
		SMOV.M1		R42, R10
		SMOV.M1		R43, R11
		SBR		sqrt
		SMOVIL		.L62, R62
		SMOVIH		.L62, R62
		SMOVIH4.L		.L62, R63
		SNOP		4
.L62:
		SMOV.M1		R10, R42
		SMOV.M1		R11, R43
		SFDPSP32.M1		R43:R42, R42
		SNOP		2
		SMOVIL		-88, R44
		SMOVIL		-1, R45
		SADDA.M1		R45:R44,AR14,AR10
		SNOP		1
		SSTW		R42, *AR10
	.loc 1 125 0
		SMOVIL		-128, R42
		SMOVIL		-1, R43
		SMOVIL		-64, R44
		SMOVIL		-1, R45
		SADDA.M1		R45:R44,AR14,OR11
		SNOP		1
		SADDA.M1		R43:R42,OR11,OR11
		SNOP		1
		SMVAAGL.M1		OR11, R43:R42
		SNOP		1
		SMVAAGH.M1		OR11, R43:R42
		SNOP		1
		SMVAGA36.M1		R43:R42, AR10
		SNOP		1
		SLDW		*AR10, R42
		SNOP		5
		SADD.M1		1,R42,R43
		SMOVIL		-72, R44
		SMOVIL		-1, R45
		SADDA.M1		R45:R44,AR14,AR10
		SNOP		1
		SLDW		*AR10, R42
		SNOP		5
		SMULIS.M1		R42,R43,R42
		SNOP		2
		SMOV.M1		R42, R34
		SSHFAR		31, R42, R42
		SMOV.M1		R42, R35
		SADD.M1		R34,R34,R42
		SLTU		R42, R34, R44
		SADD.M1		R35,R35,R43
		SADD.M1		R43,R44,R44
		SMOV.M1		R44, R43
		SADD.M1		R42,R42,R44
		SLTU		R44, R42, R46
		SADD.M1		R43,R43,R45
		SADD.M1		R45,R46,R42
		SMOV.M1		R42, R45
		SMOV.M1		R44, R42
		SMOV.M1		R45, R43
		SMOVIL		-152, R44
		SMOVIL		-1, R45
		SMOVIL		-64, R46
		SMOVIL		-1, R47
		SADDA.M1		R47:R46,AR14,OR11
		SNOP		1
		SADDA.M1		R45:R44,OR11,OR11
		SNOP		1
		SMVAAGL.M1		OR11, R45:R44
		SNOP		1
		SMVAAGH.M1		OR11, R45:R44
		SNOP		1
	;no-op trunc di R43:R42 to pdi R43:R42
		SMVAGA36.M1		R45:R44, AR10
		SNOP		1
		SLDDW		*AR10, R45:R44
		SNOP		5
		SMVAGA36.M1		R45:R44, OR11
		SNOP		1
		SADDA.M1		R43:R42,OR11,OR11
		SNOP		1
		SMVAAGL.M1		OR11, R43:R42
		SNOP		1
		SMVAAGH.M1		OR11, R43:R42
		SNOP		1
		SMVAGA36.M1		R43:R42, AR10
		SNOP		1
		SLDW		*AR10, R44
		SNOP		5
		SMOVIL		0, R43
		SMOVIH		0, R43
		SFCMPGS32.M1		R44, R43, R42
		SMOV.M1		R42, R0
	[!R0]	SFCMPES32.M1		R44, R43, R0
		SMOV.M1		R0, R42
		SMOV.M1		R42, R0
	[!R0]	SBR		.L41
		SNOP		6
.L59:
	.loc 1 127 0
		SMOVIL		-88, R44
		SMOVIL		-1, R45
		SADDA.M1		R45:R44,AR14,AR10
		SNOP		1
		SLDW		*AR10, R43
		SNOP		5
		SMOVIL		-2147483648, R42
		SMOVIH		-2147483648, R42
		SXOR		R42, R43, R42
		SMOVIL		-88, R44
		SMOVIL		-1, R45
		SADDA.M1		R45:R44,AR14,AR10
		SNOP		1
		SSTW		R42, *AR10
.L41:
	.loc 1 129 0
		SMOVIL		-72, R42
		SMOVIL		-1, R43
		SADDA.M1		R43:R42,AR14,AR10
		SNOP		1
		SLDW		*AR10, R36
		SNOP		5
		SMOVIL		-72, R44
		SMOVIL		-1, R45
		SADDA.M1		R45:R44,AR14,AR10
		SNOP		1
		SLDW		*AR10, R42
		SNOP		5
		SSHFAR		31, R42, R42
		SMOV.M1		R42, R37
		SADD.M1		R36,R36,R42
		SLTU		R42, R36, R44
		SADD.M1		R37,R37,R43
		SADD.M1		R43,R44,R44
		SMOV.M1		R44, R43
		SADD.M1		R42,R42,R44
		SLTU		R44, R42, R46
		SADD.M1		R43,R43,R45
		SADD.M1		R45,R46,R42
		SMOV.M1		R42, R45
		SMOV.M1		R44, R42
		SMOV.M1		R45, R43
		SMOVIL		-160, R44
		SMOVIL		-1, R45
		SMOVIL		-64, R46
		SMOVIL		-1, R47
		SADDA.M1		R47:R46,AR14,OR11
		SNOP		1
		SADDA.M1		R45:R44,OR11,OR11
		SNOP		1
		SMVAAGL.M1		OR11, R45:R44
		SNOP		1
		SMVAAGH.M1		OR11, R45:R44
		SNOP		1
	;no-op trunc di R43:R42 to pdi R43:R42
		SMVAGA36.M1		R45:R44, AR10
		SNOP		1
		SLDDW		*AR10, R45:R44
		SNOP		5
		SMVAGA36.M1		R45:R44, OR11
		SNOP		1
		SADDA.M1		R43:R42,OR11,OR11
		SNOP		1
		SMVAAGL.M1		OR11, R47:R46
		SNOP		1
		SMVAAGH.M1		OR11, R47:R46
		SNOP		1
		SMOVIL		-128, R42
		SMOVIL		-1, R43
		SMOVIL		-64, R44
		SMOVIL		-1, R45
		SADDA.M1		R45:R44,AR14,OR11
		SNOP		1
		SADDA.M1		R43:R42,OR11,OR11
		SNOP		1
		SMVAAGL.M1		OR11, R43:R42
		SNOP		1
		SMVAAGH.M1		OR11, R43:R42
		SNOP		1
		SMVAGA36.M1		R43:R42, AR10
		SNOP		1
		SLDW		*AR10, R42
		SNOP		5
		SADD.M1		1,R42,R43
		SMOVIL		-72, R44
		SMOVIL		-1, R45
		SADDA.M1		R45:R44,AR14,AR10
		SNOP		1
		SLDW		*AR10, R42
		SNOP		5
		SMULIS.M1		R42,R43,R42
		SNOP		2
		SMOV.M1		R42, R38
		SSHFAR		31, R42, R42
		SMOV.M1		R42, R39
		SADD.M1		R38,R38,R42
		SLTU		R42, R38, R44
		SADD.M1		R39,R39,R43
		SADD.M1		R43,R44,R44
		SMOV.M1		R44, R43
		SADD.M1		R42,R42,R44
		SLTU		R44, R42, R48
		SADD.M1		R43,R43,R45
		SADD.M1		R45,R48,R42
		SMOV.M1		R42, R45
		SMOV.M1		R44, R42
		SMOV.M1		R45, R43
		SMOVIL		-152, R44
		SMOVIL		-1, R45
		SMOVIL		-64, R48
		SMOVIL		-1, R49
		SADDA.M1		R49:R48,AR14,OR11
		SNOP		1
		SADDA.M1		R45:R44,OR11,OR11
		SNOP		1
		SMVAAGL.M1		OR11, R45:R44
		SNOP		1
		SMVAAGH.M1		OR11, R45:R44
		SNOP		1
	;no-op trunc di R43:R42 to pdi R43:R42
		SMVAGA36.M1		R45:R44, AR10
		SNOP		1
		SLDDW		*AR10, R45:R44
		SNOP		5
		SMVAGA36.M1		R45:R44, OR11
		SNOP		1
		SADDA.M1		R43:R42,OR11,OR11
		SNOP		1
		SMVAAGL.M1		OR11, R43:R42
		SNOP		1
		SMVAAGH.M1		OR11, R43:R42
		SNOP		1
		SMVAGA36.M1		R43:R42, AR10
		SNOP		1
		SLDW		*AR10, R43
		SNOP		5
		SMOVIL		-88, R44
		SMOVIL		-1, R45
		SADDA.M1		R45:R44,AR14,AR10
		SNOP		1
		SLDW		*AR10, R42
		SNOP		5
		SFADDS32.M1		R43, R42, R42
		SNOP		2
		SMVAGA36.M1		R47:R46, AR10
		SNOP		1
		SSTW		R42, *AR10
	.loc 1 130 0
		SMOVIL		-128, R42
		SMOVIL		-1, R43
		SMOVIL		-64, R44
		SMOVIL		-1, R45
		SADDA.M1		R45:R44,AR14,OR11
		SNOP		1
		SADDA.M1		R43:R42,OR11,OR11
		SNOP		1
		SMVAAGL.M1		OR11, R43:R42
		SNOP		1
		SMVAAGH.M1		OR11, R43:R42
		SNOP		1
		SMVAGA36.M1		R43:R42, AR10
		SNOP		1
		SLDW		*AR10, R42
		SNOP		5
		SADD.M1		1,R42,R43
		SMOVIL		-72, R44
		SMOVIL		-1, R45
		SADDA.M1		R45:R44,AR14,AR10
		SNOP		1
		SLDW		*AR10, R42
		SNOP		5
		SMULIS.M1		R42,R43,R42
		SNOP		2
		SMOV.M1		R42, R40
		SSHFAR		31, R42, R42
		SMOV.M1		R42, R41
		SADD.M1		R40,R40,R42
		SLTU		R42, R40, R44
		SADD.M1		R41,R41,R43
		SADD.M1		R43,R44,R44
		SMOV.M1		R44, R43
		SADD.M1		R42,R42,R44
		SLTU		R44, R42, R46
		SADD.M1		R43,R43,R45
		SADD.M1		R45,R46,R42
		SMOV.M1		R42, R45
		SMOV.M1		R44, R42
		SMOV.M1		R45, R43
		SMOVIL		-152, R44
		SMOVIL		-1, R45
		SMOVIL		-64, R46
		SMOVIL		-1, R47
		SADDA.M1		R47:R46,AR14,OR11
		SNOP		1
		SADDA.M1		R45:R44,OR11,OR11
		SNOP		1
		SMVAAGL.M1		OR11, R45:R44
		SNOP		1
		SMVAAGH.M1		OR11, R45:R44
		SNOP		1
	;no-op trunc di R43:R42 to pdi R43:R42
		SMVAGA36.M1		R45:R44, AR10
		SNOP		1
		SLDDW		*AR10, R45:R44
		SNOP		5
		SMVAGA36.M1		R45:R44, OR11
		SNOP		1
		SADDA.M1		R43:R42,OR11,OR11
		SNOP		1
		SMVAAGL.M1		OR11, R43:R42
		SNOP		1
		SMVAAGH.M1		OR11, R43:R42
		SNOP		1
		SMOVIL		-88, R46
		SMOVIL		-1, R47
		SADDA.M1		R47:R46,AR14,AR10
		SNOP		1
		SLDW		*AR10, R45
		SNOP		5
		SMOVIL		-2147483648, R44
		SMOVIH		-2147483648, R44
		SXOR		R44, R45, R44
		SMVAGA36.M1		R43:R42, AR10
		SNOP		1
		SSTW		R44, *AR10
	.loc 1 132 0
		SMOVIL		-72, R44
		SMOVIL		-1, R45
		SADDA.M1		R45:R44,AR14,AR10
		SNOP		1
		SLDW		*AR10, R42
		SNOP		5
		SADD.M1		1,R42,R42
		SMOVIL		-68, R44
		SMOVIL		-1, R45
		SADDA.M1		R45:R44,AR14,AR10
		SNOP		1
		SSTW		R42, *AR10
		SBR		.L43
		SNOP		6
.L44:
	.loc 1 134 0 discriminator 2
		SMOVIL		-68, R42
		SMOVIL		-1, R43
		SADDA.M1		R43:R42,AR14,AR10
		SNOP		1
		SLDW		*AR10, R44
		SNOP		5
		SMOVIL		-256, R42
		SMOVIL		-1, R43
		SADDA.M1		R43:R42,AR14,AR10
		SNOP		1
		SSTW		R44, *AR10
		SMOVIL		-68, R44
		SMOVIL		-1, R45
		SADDA.M1		R45:R44,AR14,AR10
		SNOP		1
		SLDW		*AR10, R42
		SNOP		5
		SSHFAR		31, R42, R42
		SMOVIL		-252, R44
		SMOVIL		-1, R45
		SADDA.M1		R45:R44,AR14,AR10
		SNOP		1
		SSTW		R42, *AR10
		SMOVIL		-256, R44
		SMOVIL		-1, R45
		SADDA.M1		R45:R44,AR14,AR10
		SNOP		1
		SLDW		*AR10, R46
		SNOP		5
		SMOVIL		-256, R44
		SMOVIL		-1, R45
		SADDA.M1		R45:R44,AR14,AR10
		SNOP		1
		SLDW		*AR10, R44
		SNOP		5
		SADD.M1		R44,R46,R42
		SMOVIL		-256, R46
		SMOVIL		-1, R47
		SADDA.M1		R47:R46,AR14,AR10
		SNOP		1
		SLDW		*AR10, R45
		SNOP		5
		SLTU		R42, R45, R44
		SMOVIL		-252, R46
		SMOVIL		-1, R47
		SADDA.M1		R47:R46,AR14,AR10
		SNOP		1
		SLDW		*AR10, R45
		SNOP		5
		SMOVIL		-252, R46
		SMOVIL		-1, R47
		SADDA.M1		R47:R46,AR14,AR10
		SNOP		1
		SLDW		*AR10, R46
		SNOP		5
		SADD.M1		R46,R45,R43
		SADD.M1		R43,R44,R44
		SMOV.M1		R44, R43
		SADD.M1		R42,R42,R44
		SLTU		R44, R42, R46
		SADD.M1		R43,R43,R45
		SADD.M1		R45,R46,R42
		SMOV.M1		R42, R45
		SMOV.M1		R44, R42
		SMOV.M1		R45, R43
		SMOVIL		-160, R44
		SMOVIL		-1, R45
		SMOVIL		-64, R48
		SMOVIL		-1, R49
		SADDA.M1		R49:R48,AR14,OR11
		SNOP		1
		SADDA.M1		R45:R44,OR11,OR11
		SNOP		1
		SMVAAGL.M1		OR11, R45:R44
		SNOP		1
		SMVAAGH.M1		OR11, R45:R44
		SNOP		1
	;no-op trunc di R43:R42 to pdi R43:R42
		SMVAGA36.M1		R45:R44, AR10
		SNOP		1
		SLDDW		*AR10, R45:R44
		SNOP		5
		SMVAGA36.M1		R45:R44, OR11
		SNOP		1
		SADDA.M1		R43:R42,OR11,OR11
		SNOP		1
		SMVAAGL.M1		OR11, R47:R46
		SNOP		1
		SMVAAGH.M1		OR11, R47:R46
		SNOP		1
		SMOVIL		-128, R42
		SMOVIL		-1, R43
		SMOVIL		-64, R44
		SMOVIL		-1, R45
		SADDA.M1		R45:R44,AR14,OR11
		SNOP		1
		SADDA.M1		R43:R42,OR11,OR11
		SNOP		1
		SMVAAGL.M1		OR11, R43:R42
		SNOP		1
		SMVAAGH.M1		OR11, R43:R42
		SNOP		1
		SMOVIL		-68, R48
		SMOVIL		-1, R49
		SADDA.M1		R49:R48,AR14,AR10
		SNOP		1
		SLDW		*AR10, R44
		SNOP		5
		SMVAGA36.M1		R43:R42, AR10
		SNOP		1
		SLDW		*AR10, R42
		SNOP		5
		SMULIS.M1		R42,R44,R43
		SNOP		2
		SMOVIL		-72, R44
		SMOVIL		-1, R45
		SADDA.M1		R45:R44,AR14,AR10
		SNOP		1
		SLDW		*AR10, R42
		SNOP		5
		SADD.M1		R42,R43,R42
		SMOVIL		-264, R44
		SMOVIL		-1, R45
		SADDA.M1		R45:R44,AR14,AR10
		SNOP		1
		SSTW		R42, *AR10
		SSHFAR		31, R42, R42
		SMOVIL		-260, R44
		SMOVIL		-1, R45
		SADDA.M1		R45:R44,AR14,AR10
		SNOP		1
		SSTW		R42, *AR10
		SMOVIL		-264, R44
		SMOVIL		-1, R45
		SADDA.M1		R45:R44,AR14,AR10
		SNOP		1
		SLDW		*AR10, R48
		SNOP		5
		SMOVIL		-264, R44
		SMOVIL		-1, R45
		SADDA.M1		R45:R44,AR14,AR10
		SNOP		1
		SLDW		*AR10, R44
		SNOP		5
		SADD.M1		R44,R48,R42
		SMOVIL		-264, R48
		SMOVIL		-1, R49
		SADDA.M1		R49:R48,AR14,AR10
		SNOP		1
		SLDW		*AR10, R45
		SNOP		5
		SLTU		R42, R45, R44
		SMOVIL		-260, R48
		SMOVIL		-1, R49
		SADDA.M1		R49:R48,AR14,AR10
		SNOP		1
		SLDW		*AR10, R45
		SNOP		5
		SMOVIL		-260, R48
		SMOVIL		-1, R49
		SADDA.M1		R49:R48,AR14,AR10
		SNOP		1
		SLDW		*AR10, R48
		SNOP		5
		SADD.M1		R48,R45,R43
		SADD.M1		R43,R44,R44
		SMOV.M1		R44, R43
		SADD.M1		R42,R42,R44
		SLTU		R44, R42, R48
		SADD.M1		R43,R43,R45
		SADD.M1		R45,R48,R42
		SMOV.M1		R42, R45
		SMOV.M1		R44, R42
		SMOV.M1		R45, R43
		SMOVIL		-152, R44
		SMOVIL		-1, R45
		SMOVIL		-64, R50
		SMOVIL		-1, R51
		SADDA.M1		R51:R50,AR14,OR11
		SNOP		1
		SADDA.M1		R45:R44,OR11,OR11
		SNOP		1
		SMVAAGL.M1		OR11, R45:R44
		SNOP		1
		SMVAAGH.M1		OR11, R45:R44
		SNOP		1
	;no-op trunc di R43:R42 to pdi R43:R42
		SMVAGA36.M1		R45:R44, AR10
		SNOP		1
		SLDDW		*AR10, R45:R44
		SNOP		5
		SMVAGA36.M1		R45:R44, OR11
		SNOP		1
		SADDA.M1		R43:R42,OR11,OR11
		SNOP		1
		SMVAAGL.M1		OR11, R43:R42
		SNOP		1
		SMVAAGH.M1		OR11, R43:R42
		SNOP		1
		SMVAGA36.M1		R43:R42, AR10
		SNOP		1
		SLDW		*AR10, R42
		SNOP		5
		SMVAGA36.M1		R47:R46, AR10
		SNOP		1
		SSTW		R42, *AR10
	.loc 1 135 0 discriminator 2
		SMOVIL		-128, R42
		SMOVIL		-1, R43
		SMOVIL		-64, R44
		SMOVIL		-1, R45
		SADDA.M1		R45:R44,AR14,OR11
		SNOP		1
		SADDA.M1		R43:R42,OR11,OR11
		SNOP		1
		SMVAAGL.M1		OR11, R43:R42
		SNOP		1
		SMVAAGH.M1		OR11, R43:R42
		SNOP		1
		SMOVIL		-68, R46
		SMOVIL		-1, R47
		SADDA.M1		R47:R46,AR14,AR10
		SNOP		1
		SLDW		*AR10, R44
		SNOP		5
		SMVAGA36.M1		R43:R42, AR10
		SNOP		1
		SLDW		*AR10, R42
		SNOP		5
		SMULIS.M1		R42,R44,R43
		SNOP		2
		SMOVIL		-72, R44
		SMOVIL		-1, R45
		SADDA.M1		R45:R44,AR14,AR10
		SNOP		1
		SLDW		*AR10, R42
		SNOP		5
		SADD.M1		R42,R43,R42
		SMOVIL		-272, R44
		SMOVIL		-1, R45
		SADDA.M1		R45:R44,AR14,AR10
		SNOP		1
		SSTW		R42, *AR10
		SSHFAR		31, R42, R42
		SMOVIL		-268, R44
		SMOVIL		-1, R45
		SADDA.M1		R45:R44,AR14,AR10
		SNOP		1
		SSTW		R42, *AR10
		SMOVIL		-272, R44
		SMOVIL		-1, R45
		SADDA.M1		R45:R44,AR14,AR10
		SNOP		1
		SLDW		*AR10, R46
		SNOP		5
		SMOVIL		-272, R44
		SMOVIL		-1, R45
		SADDA.M1		R45:R44,AR14,AR10
		SNOP		1
		SLDW		*AR10, R44
		SNOP		5
		SADD.M1		R44,R46,R42
		SMOVIL		-272, R46
		SMOVIL		-1, R47
		SADDA.M1		R47:R46,AR14,AR10
		SNOP		1
		SLDW		*AR10, R45
		SNOP		5
		SLTU		R42, R45, R44
		SMOVIL		-268, R46
		SMOVIL		-1, R47
		SADDA.M1		R47:R46,AR14,AR10
		SNOP		1
		SLDW		*AR10, R45
		SNOP		5
		SMOVIL		-268, R46
		SMOVIL		-1, R47
		SADDA.M1		R47:R46,AR14,AR10
		SNOP		1
		SLDW		*AR10, R46
		SNOP		5
		SADD.M1		R46,R45,R43
		SADD.M1		R43,R44,R44
		SMOV.M1		R44, R43
		SADD.M1		R42,R42,R44
		SLTU		R44, R42, R46
		SADD.M1		R43,R43,R45
		SADD.M1		R45,R46,R42
		SMOV.M1		R42, R45
		SMOV.M1		R44, R42
		SMOV.M1		R45, R43
		SMOVIL		-152, R44
		SMOVIL		-1, R45
		SMOVIL		-64, R48
		SMOVIL		-1, R49
		SADDA.M1		R49:R48,AR14,OR11
		SNOP		1
		SADDA.M1		R45:R44,OR11,OR11
		SNOP		1
		SMVAAGL.M1		OR11, R45:R44
		SNOP		1
		SMVAAGH.M1		OR11, R45:R44
		SNOP		1
	;no-op trunc di R43:R42 to pdi R43:R42
		SMVAGA36.M1		R45:R44, AR10
		SNOP		1
		SLDDW		*AR10, R45:R44
		SNOP		5
		SMVAGA36.M1		R45:R44, OR11
		SNOP		1
		SADDA.M1		R43:R42,OR11,OR11
		SNOP		1
		SMVAAGL.M1		OR11, R43:R42
		SNOP		1
		SMVAAGH.M1		OR11, R43:R42
		SNOP		1
		SMOVIL		0, R44
		SMOVIH		0, R44
		SMVAGA36.M1		R43:R42, AR10
		SNOP		1
		SSTW		R44, *AR10
	.loc 1 132 0 discriminator 2
		SMOVIL		-68, R44
		SMOVIL		-1, R45
		SADDA.M1		R45:R44,AR14,AR10
		SNOP		1
		SLDW		*AR10, R42
		SNOP		5
		SADD.M1		1,R42,R42
		SMOVIL		-68, R44
		SMOVIL		-1, R45
		SADDA.M1		R45:R44,AR14,AR10
		SNOP		1
		SSTW		R42, *AR10
.L43:
	.loc 1 132 0 is_stmt 0 discriminator 1
		SMOVIL		-124, R42
		SMOVIL		-1, R43
		SMOVIL		-64, R44
		SMOVIL		-1, R45
		SADDA.M1		R45:R44,AR14,OR11
		SNOP		1
		SADDA.M1		R43:R42,OR11,OR11
		SNOP		1
		SMVAAGL.M1		OR11, R43:R42
		SNOP		1
		SMVAAGH.M1		OR11, R43:R42
		SNOP		1
		SMOVIL		-68, R46
		SMOVIL		-1, R47
		SADDA.M1		R47:R46,AR14,AR10
		SNOP		1
		SLDW		*AR10, R44
		SNOP		5
		SMVAGA36.M1		R43:R42, AR10
		SNOP		1
		SLDW		*AR10, R42
		SNOP		5
		SLT		R44, R42, R42
		SMOV.M1		R42, R0
	[R0]	SBR		.L44
		SNOP		6
	.loc 1 137 0 is_stmt 1
		SMOVIL		-72, R42
		SMOVIL		-1, R43
		SADDA.M1		R43:R42,AR14,AR10
		SNOP		1
		SLDW		*AR10, R44
		SNOP		5
		SMOVIL		-280, R42
		SMOVIL		-1, R43
		SADDA.M1		R43:R42,AR14,AR10
		SNOP		1
		SSTW		R44, *AR10
		SMOVIL		-72, R44
		SMOVIL		-1, R45
		SADDA.M1		R45:R44,AR14,AR10
		SNOP		1
		SLDW		*AR10, R42
		SNOP		5
		SSHFAR		31, R42, R42
		SMOVIL		-276, R44
		SMOVIL		-1, R45
		SADDA.M1		R45:R44,AR14,AR10
		SNOP		1
		SSTW		R42, *AR10
		SMOVIL		-280, R44
		SMOVIL		-1, R45
		SADDA.M1		R45:R44,AR14,AR10
		SNOP		1
		SLDW		*AR10, R46
		SNOP		5
		SMOVIL		-280, R44
		SMOVIL		-1, R45
		SADDA.M1		R45:R44,AR14,AR10
		SNOP		1
		SLDW		*AR10, R44
		SNOP		5
		SADD.M1		R44,R46,R42
		SMOVIL		-280, R46
		SMOVIL		-1, R47
		SADDA.M1		R47:R46,AR14,AR10
		SNOP		1
		SLDW		*AR10, R45
		SNOP		5
		SLTU		R42, R45, R44
		SMOVIL		-276, R46
		SMOVIL		-1, R47
		SADDA.M1		R47:R46,AR14,AR10
		SNOP		1
		SLDW		*AR10, R45
		SNOP		5
		SMOVIL		-276, R46
		SMOVIL		-1, R47
		SADDA.M1		R47:R46,AR14,AR10
		SNOP		1
		SLDW		*AR10, R46
		SNOP		5
		SADD.M1		R46,R45,R43
		SADD.M1		R43,R44,R44
		SMOV.M1		R44, R43
		SADD.M1		R42,R42,R44
		SLTU		R44, R42, R46
		SADD.M1		R43,R43,R45
		SADD.M1		R45,R46,R42
		SMOV.M1		R42, R45
		SMOV.M1		R44, R42
		SMOV.M1		R45, R43
		SMOVIL		-160, R44
		SMOVIL		-1, R45
		SMOVIL		-64, R48
		SMOVIL		-1, R49
		SADDA.M1		R49:R48,AR14,OR11
		SNOP		1
		SADDA.M1		R45:R44,OR11,OR11
		SNOP		1
		SMVAAGL.M1		OR11, R45:R44
		SNOP		1
		SMVAAGH.M1		OR11, R45:R44
		SNOP		1
	;no-op trunc di R43:R42 to pdi R43:R42
		SMVAGA36.M1		R45:R44, AR10
		SNOP		1
		SLDDW		*AR10, R45:R44
		SNOP		5
		SMVAGA36.M1		R45:R44, OR11
		SNOP		1
		SADDA.M1		R43:R42,OR11,OR11
		SNOP		1
		SMVAAGL.M1		OR11, R43:R42
		SNOP		1
		SMVAAGH.M1		OR11, R43:R42
		SNOP		1
		SMVAGA36.M1		R43:R42, AR10
		SNOP		1
		SLDW		*AR10, R43
		SNOP		5
		SMOVIL		-88, R44
		SMOVIL		-1, R45
		SADDA.M1		R45:R44,AR14,AR10
		SNOP		1
		SLDW		*AR10, R42
		SNOP		5
		SFMULS32.M1		R43, R42, R43
		SNOP		3
		SMOVIL		0, R42
		SMOVIH		0, R42
		SFCMPES32.M1		R43, R42, R42
		SMOV.M1		R42, R0
	[R0]	SBR		.L40
		SNOP		6
	.loc 1 139 0
		SMOVIL		-72, R42
		SMOVIL		-1, R43
		SADDA.M1		R43:R42,AR14,AR10
		SNOP		1
		SLDW		*AR10, R44
		SNOP		5
		SMOVIL		-288, R42
		SMOVIL		-1, R43
		SADDA.M1		R43:R42,AR14,AR10
		SNOP		1
		SSTW		R44, *AR10
		SMOVIL		-72, R44
		SMOVIL		-1, R45
		SADDA.M1		R45:R44,AR14,AR10
		SNOP		1
		SLDW		*AR10, R42
		SNOP		5
		SSHFAR		31, R42, R42
		SMOVIL		-284, R44
		SMOVIL		-1, R45
		SADDA.M1		R45:R44,AR14,AR10
		SNOP		1
		SSTW		R42, *AR10
		SMOVIL		-288, R44
		SMOVIL		-1, R45
		SADDA.M1		R45:R44,AR14,AR10
		SNOP		1
		SLDW		*AR10, R46
		SNOP		5
		SMOVIL		-288, R44
		SMOVIL		-1, R45
		SADDA.M1		R45:R44,AR14,AR10
		SNOP		1
		SLDW		*AR10, R44
		SNOP		5
		SADD.M1		R44,R46,R42
		SMOVIL		-288, R46
		SMOVIL		-1, R47
		SADDA.M1		R47:R46,AR14,AR10
		SNOP		1
		SLDW		*AR10, R45
		SNOP		5
		SLTU		R42, R45, R44
		SMOVIL		-284, R46
		SMOVIL		-1, R47
		SADDA.M1		R47:R46,AR14,AR10
		SNOP		1
		SLDW		*AR10, R45
		SNOP		5
		SMOVIL		-284, R46
		SMOVIL		-1, R47
		SADDA.M1		R47:R46,AR14,AR10
		SNOP		1
		SLDW		*AR10, R46
		SNOP		5
		SADD.M1		R46,R45,R43
		SADD.M1		R43,R44,R44
		SMOV.M1		R44, R43
		SADD.M1		R42,R42,R44
		SLTU		R44, R42, R46
		SADD.M1		R43,R43,R45
		SADD.M1		R45,R46,R42
		SMOV.M1		R42, R45
		SMOV.M1		R44, R42
		SMOV.M1		R45, R43
		SMOVIL		-160, R44
		SMOVIL		-1, R45
		SMOVIL		-64, R48
		SMOVIL		-1, R49
		SADDA.M1		R49:R48,AR14,OR11
		SNOP		1
		SADDA.M1		R45:R44,OR11,OR11
		SNOP		1
		SMVAAGL.M1		OR11, R45:R44
		SNOP		1
		SMVAAGH.M1		OR11, R45:R44
		SNOP		1
	;no-op trunc di R43:R42 to pdi R43:R42
		SMVAGA36.M1		R45:R44, AR10
		SNOP		1
		SLDDW		*AR10, R45:R44
		SNOP		5
		SMVAGA36.M1		R45:R44, OR11
		SNOP		1
		SADDA.M1		R43:R42,OR11,OR11
		SNOP		1
		SMVAAGL.M1		OR11, R43:R42
		SNOP		1
		SMVAAGH.M1		OR11, R43:R42
		SNOP		1
		SMVAGA36.M1		R43:R42, AR10
		SNOP		1
		SLDW		*AR10, R43
		SNOP		5
		SMOVIL		-88, R44
		SMOVIL		-1, R45
		SADDA.M1		R45:R44,AR14,AR10
		SNOP		1
		SLDW		*AR10, R42
		SNOP		5
		SFMULS32.M1		R43, R42, R43
		SNOP		3
		SMOVIL		1065353216, R46
		SMOVIH		1065353216, R46
		SMOVIL		1073741824, R45
		SMOVIH		1073741824, R45
		SFRCPS32.M1		R43, R42
		SFMULS32.M1		R43, R42, R44
		SNOP		3
		SFSUBS32.M1		R44, R45, R44
		SNOP		2
		SFMULS32.M1		R42, R44, R42
		SNOP		3
		SFMULS32.M1		R43, R42, R44
		SNOP		3
		SFSUBS32.M1		R44, R45, R44
		SNOP		2
		SFMULS32.M1		R42, R44, R42
		SNOP		3
		SFMULS32.M1		R46, R42, R42
		SNOP		3
		SMOVIL		-116, R44
		SMOVIL		-1, R45
		SADDA.M1		R45:R44,AR14,AR10
		SNOP		1
		SSTW		R42, *AR10
.LBB4:
	.loc 1 150 0
		SMOVIL		-72, R42
		SMOVIL		-1, R43
		SADDA.M1		R43:R42,AR14,AR10
		SNOP		1
		SLDW		*AR10, R44
		SNOP		5
		SMOVIL		-296, R42
		SMOVIL		-1, R43
		SADDA.M1		R43:R42,AR14,AR10
		SNOP		1
		SSTW		R44, *AR10
		SMOVIL		-72, R44
		SMOVIL		-1, R45
		SADDA.M1		R45:R44,AR14,AR10
		SNOP		1
		SLDW		*AR10, R42
		SNOP		5
		SSHFAR		31, R42, R42
		SMOVIL		-292, R44
		SMOVIL		-1, R45
		SADDA.M1		R45:R44,AR14,AR10
		SNOP		1
		SSTW		R42, *AR10
		SMOVIL		-128, R42
		SMOVIL		-1, R43
		SMOVIL		-64, R44
		SMOVIL		-1, R45
		SADDA.M1		R45:R44,AR14,OR11
		SNOP		1
		SADDA.M1		R43:R42,OR11,OR11
		SNOP		1
		SMVAAGL.M1		OR11, R43:R42
		SNOP		1
		SMVAAGH.M1		OR11, R43:R42
		SNOP		1
		SMOVIL		-72, R46
		SMOVIL		-1, R47
		SADDA.M1		R47:R46,AR14,AR10
		SNOP		1
		SLDW		*AR10, R44
		SNOP		5
		SMVAGA36.M1		R43:R42, AR10
		SNOP		1
		SLDW		*AR10, R42
		SNOP		5
		SMULIS.M1		R42,R44,R42
		SNOP		2
		SMOVIL		-304, R44
		SMOVIL		-1, R45
		SADDA.M1		R45:R44,AR14,AR10
		SNOP		1
		SSTW		R42, *AR10
		SSHFAR		31, R42, R42
		SMOVIL		-300, R44
		SMOVIL		-1, R45
		SADDA.M1		R45:R44,AR14,AR10
		SNOP		1
		SSTW		R42, *AR10
		SMOVIL		-296, R44
		SMOVIL		-1, R45
		SADDA.M1		R45:R44,AR14,AR10
		SNOP		1
		SLDW		*AR10, R46
		SNOP		5
		SMOVIL		-304, R44
		SMOVIL		-1, R45
		SADDA.M1		R45:R44,AR14,AR10
		SNOP		1
		SLDW		*AR10, R44
		SNOP		5
		SADD.M1		R44,R46,R42
		SMOVIL		-296, R46
		SMOVIL		-1, R47
		SADDA.M1		R47:R46,AR14,AR10
		SNOP		1
		SLDW		*AR10, R45
		SNOP		5
		SLTU		R42, R45, R44
		SMOVIL		-292, R46
		SMOVIL		-1, R47
		SADDA.M1		R47:R46,AR14,AR10
		SNOP		1
		SLDW		*AR10, R45
		SNOP		5
		SMOVIL		-300, R46
		SMOVIL		-1, R47
		SADDA.M1		R47:R46,AR14,AR10
		SNOP		1
		SLDW		*AR10, R46
		SNOP		5
		SADD.M1		R46,R45,R43
		SADD.M1		R43,R44,R44
		SMOV.M1		R44, R43
		SMOV.M1		R42, R44
		SMOV.M1		R43, R45
		SMOVIL		1, R46
		SMOVIL		0, R47
		SADD.M1		R46,R44,R42
		SLTU		R42, R44, R48
		SADD.M1		R47,R45,R43
		SADD.M1		R43,R48,R44
		SMOV.M1		R44, R43
		SMOV.M1		R42, R44
		SMOV.M1		R43, R45
		SADD.M1		R44,R44,R42
		SLTU		R42, R44, R46
		SADD.M1		R45,R45,R43
		SADD.M1		R43,R46,R44
		SMOV.M1		R44, R43
		SADD.M1		R42,R42,R44
		SLTU		R44, R42, R46
		SADD.M1		R43,R43,R45
		SADD.M1		R45,R46,R42
		SMOV.M1		R42, R45
		SMOV.M1		R44, R42
		SMOV.M1		R45, R43
		SMOVIL		-152, R44
		SMOVIL		-1, R45
		SMOVIL		-64, R48
		SMOVIL		-1, R49
		SADDA.M1		R49:R48,AR14,OR11
		SNOP		1
		SADDA.M1		R45:R44,OR11,OR11
		SNOP		1
		SMVAAGL.M1		OR11, R45:R44
		SNOP		1
		SMVAAGH.M1		OR11, R45:R44
		SNOP		1
	;no-op trunc di R43:R42 to pdi R43:R42
		SMVAGA36.M1		R45:R44, AR10
		SNOP		1
		SLDDW		*AR10, R45:R44
		SNOP		5
		SMVAGA36.M1		R45:R44, OR11
		SNOP		1
		SADDA.M1		R43:R42,OR11,OR11
		SNOP		1
		SMVAAGL.M1		OR11, R43:R42
		SNOP		1
		SMVAAGH.M1		OR11, R43:R42
		SNOP		1
		SMOVIL		-72, R46
		SMOVIL		-1, R47
		SADDA.M1		R47:R46,AR14,AR10
		SNOP		1
		SLDW		*AR10, R44
		SNOP		5
		SNOT		R44, R46
		SMOVIL		-124, R44
		SMOVIL		-1, R45
		SMOVIL		-64, R48
		SMOVIL		-1, R49
		SADDA.M1		R49:R48,AR14,OR11
		SNOP		1
		SADDA.M1		R45:R44,OR11,OR11
		SNOP		1
		SMVAAGL.M1		OR11, R45:R44
		SNOP		1
		SMVAAGH.M1		OR11, R45:R44
		SNOP		1
		SMVAGA36.M1		R45:R44, AR10
		SNOP		1
		SLDW		*AR10, R44
		SNOP		5
		SADD.M1		R44,R46,R46
		SMOVIL		-124, R44
		SMOVIL		-1, R45
		SMOVIL		-64, R48
		SMOVIL		-1, R49
		SADDA.M1		R49:R48,AR14,OR11
		SNOP		1
		SADDA.M1		R45:R44,OR11,OR11
		SNOP		1
		SMVAAGL.M1		OR11, R45:R44
		SNOP		1
		SMVAAGH.M1		OR11, R45:R44
		SNOP		1
		SMVAGA36.M1		R45:R44, AR10
		SNOP		1
		SLDW		*AR10, R45
		SNOP		5
		SMOVIL		-72, R48
		SMOVIL		-1, R49
		SADDA.M1		R49:R48,AR14,AR10
		SNOP		1
		SLDW		*AR10, R44
		SNOP		5
		SSUB.M1		R44, R45, R45
		SMOVIL		-72, R48
		SMOVIL		-1, R49
		SADDA.M1		R49:R48,AR14,AR10
		SNOP		1
		SLDW		*AR10, R44
		SNOP		5
		SADD.M1		1,R44,R44
		SSHFLL		2, R44, R47
		SMOVIL		-72, R48
		SMOVIL		-1, R49
		SADDA.M1		R49:R48,AR14,AR10
		SNOP		1
		SLDW		*AR10, R44
		SNOP		5
		SADD.M1		1,R44,R44
		SSHFLL		2, R44, R44
		SSHFLL		16, R44, R44
		SOR		R44, R47, R44
		SMVAGA36.M1		R43:R42, OR11
		SNOP		1
		SMVAAGL.M1		OR11, R11:R10
		SNOP		1
		SMVAAGH.M1		OR11, R11:R10
		SNOP		1
		SLDDW		*-AR14[13], R13:R12
		SNOP		5
		SMOV.M1		R46, R14
		SMOV.M1		R45, R16
		SMOV.M1		R44, R18
		SBR		M7002_datatrans_index
		SMOVIL		.L63, R62
		SMOVIH		.L63, R62
		SMOVIH4.L		.L63, R63
		SNOP		4
.L63:
	.loc 1 152 0
		SMOVIL		0, R42
		SMOVIH		0, R42
		SVBCAST.M1 		 R42,VR3
		SNOP		3
		VSTW.LS 		VR3,*+AR7[16]
	.loc 1 153 0
		SMOVIL		-72, R44
		SMOVIL		-1, R45
		SADDA.M1		R45:R44,AR14,AR10
		SNOP		1
		SLDW		*AR10, R42
		SNOP		5
		SMOVIL		-80, R44
		SMOVIL		-1, R45
		SADDA.M1		R45:R44,AR14,AR10
		SNOP		1
		SSTW		R42, *AR10
		SBR		.L45
		SNOP		6
.L46:
	.loc 1 155 0 discriminator 2
		SMOVIL		-80, R42
		SMOVIL		-1, R43
		SADDA.M1		R43:R42,AR14,AR10
		SNOP		1
		SLDW		*AR10, R44
		SNOP		5
		SMOVIL		-312, R42
		SMOVIL		-1, R43
		SADDA.M1		R43:R42,AR14,AR10
		SNOP		1
		SSTW		R44, *AR10
		SMOVIL		-80, R44
		SMOVIL		-1, R45
		SADDA.M1		R45:R44,AR14,AR10
		SNOP		1
		SLDW		*AR10, R42
		SNOP		5
		SSHFAR		31, R42, R42
		SMOVIL		-308, R44
		SMOVIL		-1, R45
		SADDA.M1		R45:R44,AR14,AR10
		SNOP		1
		SSTW		R42, *AR10
		SMOVIL		-312, R44
		SMOVIL		-1, R45
		SADDA.M1		R45:R44,AR14,AR10
		SNOP		1
		SLDW		*AR10, R46
		SNOP		5
		SMOVIL		-312, R44
		SMOVIL		-1, R45
		SADDA.M1		R45:R44,AR14,AR10
		SNOP		1
		SLDW		*AR10, R44
		SNOP		5
		SADD.M1		R44,R46,R42
		SMOVIL		-312, R46
		SMOVIL		-1, R47
		SADDA.M1		R47:R46,AR14,AR10
		SNOP		1
		SLDW		*AR10, R45
		SNOP		5
		SLTU		R42, R45, R44
		SMOVIL		-308, R46
		SMOVIL		-1, R47
		SADDA.M1		R47:R46,AR14,AR10
		SNOP		1
		SLDW		*AR10, R45
		SNOP		5
		SMOVIL		-308, R46
		SMOVIL		-1, R47
		SADDA.M1		R47:R46,AR14,AR10
		SNOP		1
		SLDW		*AR10, R46
		SNOP		5
		SADD.M1		R46,R45,R43
		SADD.M1		R43,R44,R44
		SMOV.M1		R44, R43
		SADD.M1		R42,R42,R44
		SLTU		R44, R42, R46
		SADD.M1		R43,R43,R45
		SADD.M1		R45,R46,R42
		SMOV.M1		R42, R45
		SMOV.M1		R44, R42
		SMOV.M1		R45, R43
		SMOVIL		-160, R44
		SMOVIL		-1, R45
		SMOVIL		-64, R48
		SMOVIL		-1, R49
		SADDA.M1		R49:R48,AR14,OR11
		SNOP		1
		SADDA.M1		R45:R44,OR11,OR11
		SNOP		1
		SMVAAGL.M1		OR11, R45:R44
		SNOP		1
		SMVAAGH.M1		OR11, R45:R44
		SNOP		1
	;no-op trunc di R43:R42 to pdi R43:R42
		SMVAGA36.M1		R45:R44, AR10
		SNOP		1
		SLDDW		*AR10, R45:R44
		SNOP		5
		SMVAGA36.M1		R45:R44, OR11
		SNOP		1
		SADDA.M1		R43:R42,OR11,OR11
		SNOP		1
		SMVAAGL.M1		OR11, R43:R42
		SNOP		1
		SMVAAGH.M1		OR11, R43:R42
		SNOP		1
		SMVAGA36.M1		R43:R42, AR10
		SNOP		1
		SLDW		*AR10, R42
		SNOP		5
		SVBCAST.M1 		 R42,VR3
		SNOP		3
		VSTW.LS 		VR3,*AR7
	.loc 1 156 0 discriminator 2
		SMOVIL		-80, R44
		SMOVIL		-1, R45
		SADDA.M1		R45:R44,AR14,AR10
		SNOP		1
		SLDW		*AR10, R43
		SNOP		5
		SMOVIL		-72, R44
		SMOVIL		-1, R45
		SADDA.M1		R45:R44,AR14,AR10
		SNOP		1
		SLDW		*AR10, R42
		SNOP		5
		SSUB.M1		R42, R43, R42
		SMOVIL		-320, R44
		SMOVIL		-1, R45
		SADDA.M1		R45:R44,AR14,AR10
		SNOP		1
		SSTW		R42, *AR10
		SSHFAR		31, R42, R42
		SMOVIL		-316, R44
		SMOVIL		-1, R45
		SADDA.M1		R45:R44,AR14,AR10
		SNOP		1
		SSTW		R42, *AR10
		SMOVIL		-320, R44
		SMOVIL		-1, R45
		SADDA.M1		R45:R44,AR14,AR10
		SNOP		1
		SLDW		*AR10, R43
		SNOP		5
		SSHFLR		26, R43, R42
		SMOVIL		-316, R44
		SMOVIL		-1, R45
		SADDA.M1		R45:R44,AR14,AR10
		SNOP		1
		SLDW		*AR10, R43
		SNOP		5
		SSHFLL		6, R43, R43
		SMOVIL		-324, R44
		SMOVIL		-1, R45
		SADDA.M1		R45:R44,AR14,AR10
		SNOP		1
		SSTW		R43, *AR10
		SMOVIL		-324, R44
		SMOVIL		-1, R45
		SADDA.M1		R45:R44,AR14,AR10
		SNOP		1
		SLDW		*AR10, R43
		SNOP		5
		SOR		R43, R42, R43
		SMOVIL		-324, R44
		SMOVIL		-1, R45
		SADDA.M1		R45:R44,AR14,AR10
		SNOP		1
		SSTW		R43, *AR10
		SMOVIL		-320, R42
		SMOVIL		-1, R43
		SADDA.M1		R43:R42,AR14,AR10
		SNOP		1
		SLDW		*AR10, R42
		SNOP		5
		SSHFLL		6, R42, R44
		SMOVIL		-328, R42
		SMOVIL		-1, R43
		SADDA.M1		R43:R42,AR14,AR10
		SNOP		1
		SSTW		R44, *AR10
		SMOVIL		-328, R44
		SMOVIL		-1, R45
		SADDA.M1		R45:R44,AR14,AR10
		SNOP		1
		SLDDW		*AR10, R43:R42
		SNOP		5
	;no-op trunc di R43:R42 to pdi R43:R42
		SLDDW		*-AR14[13], R45:R44
		SNOP		5
		SMVAGA36.M1		R45:R44, OR11
		SNOP		1
		SADDA.M1		R43:R42,OR11,OR11
		SNOP		1
		SMVAAGL.M1		OR11, R43:R42
		SNOP		1
		SMVAAGH.M1		OR11, R43:R42
		SNOP		1
		SMVAGA36.M1		R43:R42, AR1
		SNOP		1
		VLDW.LS 		*AR1,VR3
		SNOP		7
		VLDW.LS 		*+AR7[16],VR5
		SNOP		7
		VLDW.LS 		*AR7,VR4
		SNOP		7
		VMOV		VR5,	VR6
		VFMULAS32.M1	VR3,VR4,VR6,VR6
		SNOP		5
		VMOV		VR6,	VR3
		VSTW.LS 		VR3,*+AR7[16]
	.loc 1 153 0 discriminator 2
		SMOVIL		-80, R44
		SMOVIL		-1, R45
		SADDA.M1		R45:R44,AR14,AR10
		SNOP		1
		SLDW		*AR10, R42
		SNOP		5
		SADD.M1		1,R42,R42
		SMOVIL		-80, R44
		SMOVIL		-1, R45
		SADDA.M1		R45:R44,AR14,AR10
		SNOP		1
		SSTW		R42, *AR10
.L45:
	.loc 1 153 0 is_stmt 0 discriminator 1
		SMOVIL		-124, R42
		SMOVIL		-1, R43
		SMOVIL		-64, R44
		SMOVIL		-1, R45
		SADDA.M1		R45:R44,AR14,OR11
		SNOP		1
		SADDA.M1		R43:R42,OR11,OR11
		SNOP		1
		SMVAAGL.M1		OR11, R43:R42
		SNOP		1
		SMVAAGH.M1		OR11, R43:R42
		SNOP		1
		SMOVIL		-80, R46
		SMOVIL		-1, R47
		SADDA.M1		R47:R46,AR14,AR10
		SNOP		1
		SLDW		*AR10, R44
		SNOP		5
		SMVAGA36.M1		R43:R42, AR10
		SNOP		1
		SLDW		*AR10, R42
		SNOP		5
		SLT		R44, R42, R42
		SMOV.M1		R42, R0
	[R0]	SBR		.L46
		SNOP		6
	.loc 1 158 0 is_stmt 1
		SMOVIL		-116, R44
		SMOVIL		-1, R45
		SADDA.M1		R45:R44,AR14,AR10
		SNOP		1
		SLDW		*AR10, R42
		SNOP		5
		SVBCAST.M1 		 R42,VR3
		SNOP		3
		VSTW.LS 		VR3,*AR7
	.loc 1 159 0
		VLDW.LS 		*+AR7[16],VR3
		SNOP		7
		VLDW.LS 		*AR7,VR4
		SNOP		7
		VFMULS32.M1	VR3,VR4,VR3
		SNOP		3
		VSTW.LS 		VR3,*+AR7[16]
	.loc 1 161 0
		SMVAAA.M1		AR7, OR11
		SNOP		1
		SADD.LS		OR11,64,OR11
		SNOP		1
		SMVAAGL.M1		OR11, R43:R42
		SNOP		1
		SMVAAGH.M1		OR11, R43:R42
		SNOP		1
		SMOVIL		-120, R44
		SMOVIL		-1, R45
		SMOVIL		-64, R46
		SMOVIL		-1, R47
		SADDA.M1		R47:R46,AR14,OR11
		SNOP		1
		SADDA.M1		R45:R44,OR11,OR11
		SNOP		1
		SMVAAGL.M1		OR11, R45:R44
		SNOP		1
		SMVAAGH.M1		OR11, R45:R44
		SNOP		1
		SMVAGA36.M1		R43:R42, OR11
		SNOP		1
		SMVAAGL.M1		OR11, R11:R10
		SNOP		1
		SMVAAGH.M1		OR11, R11:R10
		SNOP		1
		SMVAGA36.M1		R45:R44, OR11
		SNOP		1
		SMVAAGL.M1		OR11, R13:R12
		SNOP		1
		SMVAAGH.M1		OR11, R13:R12
		SNOP		1
		SMOVIL		64, R14
		SBR		M7002_datatrans
		SMOVIL		.L64, R62
		SMOVIH		.L64, R62
		SMOVIH4.L		.L64, R63
		SNOP		4
.L64:
	.loc 1 162 0
		SMOVIL		-72, R44
		SMOVIL		-1, R45
		SADDA.M1		R45:R44,AR14,AR10
		SNOP		1
		SLDW		*AR10, R42
		SNOP		5
		SADD.M1		1,R42,R42
		SMOVIL		-76, R44
		SMOVIL		-1, R45
		SADDA.M1		R45:R44,AR14,AR10
		SNOP		1
		SSTW		R42, *AR10
		SBR		.L47
		SNOP		6
.L50:
	.loc 1 164 0
		SMOVIL		-76, R44
		SMOVIL		-1, R45
		SADDA.M1		R45:R44,AR14,AR10
		SNOP		1
		SLDW		*AR10, R43
		SNOP		5
		SMOVIL		-72, R44
		SMOVIL		-1, R45
		SADDA.M1		R45:R44,AR14,AR10
		SNOP		1
		SLDW		*AR10, R42
		SNOP		5
		SSUB.M1		R42, R43, R42
		SADD.M1		-1,R42,R44
		SMOVIL		-120, R42
		SMOVIL		-1, R43
		SMOVIL		-64, R48
		SMOVIL		-1, R49
		SADDA.M1		R49:R48,AR14,OR11
		SNOP		1
		SADDA.M1		R43:R42,OR11,OR11
		SNOP		1
		SMVAAGL.M1		OR11, R47:R46
		SNOP		1
		SMVAAGH.M1		OR11, R47:R46
		SNOP		1
		SMOVIL		-400, R42
		SMOVIL		-1, R43
		SADDA.M1		R43:R42,AR14,AR10
		SNOP		1
		SSTW		R44, *AR10
		SSHFAR		31, R44, R42
		SMOVIL		-396, R44
		SMOVIL		-1, R45
		SADDA.M1		R45:R44,AR14,AR10
		SNOP		1
		SSTW		R42, *AR10
		SMOVIL		-400, R44
		SMOVIL		-1, R45
		SADDA.M1		R45:R44,AR14,AR10
		SNOP		1
		SLDW		*AR10, R48
		SNOP		5
		SMOVIL		-400, R44
		SMOVIL		-1, R45
		SADDA.M1		R45:R44,AR14,AR10
		SNOP		1
		SLDW		*AR10, R44
		SNOP		5
		SADD.M1		R44,R48,R42
		SMOVIL		-400, R48
		SMOVIL		-1, R49
		SADDA.M1		R49:R48,AR14,AR10
		SNOP		1
		SLDW		*AR10, R45
		SNOP		5
		SLTU		R42, R45, R44
		SMOVIL		-396, R48
		SMOVIL		-1, R49
		SADDA.M1		R49:R48,AR14,AR10
		SNOP		1
		SLDW		*AR10, R45
		SNOP		5
		SMOVIL		-396, R48
		SMOVIL		-1, R49
		SADDA.M1		R49:R48,AR14,AR10
		SNOP		1
		SLDW		*AR10, R48
		SNOP		5
		SADD.M1		R48,R45,R43
		SADD.M1		R43,R44,R44
		SMOV.M1		R44, R43
		SADD.M1		R42,R42,R44
		SLTU		R44, R42, R48
		SADD.M1		R43,R43,R45
		SADD.M1		R45,R48,R42
		SMOV.M1		R42, R45
		SMOV.M1		R44, R42
		SMOV.M1		R45, R43
	;no-op trunc di R43:R42 to pdi R43:R42
		SMVAGA36.M1		R47:R46, OR11
		SNOP		1
		SADDA.M1		R43:R42,OR11,OR11
		SNOP		1
		SMVAAGL.M1		OR11, R43:R42
		SNOP		1
		SMVAAGH.M1		OR11, R43:R42
		SNOP		1
		SMVAGA36.M1		R43:R42, AR10
		SNOP		1
		SLDW		*AR10, R42
		SNOP		5
		SMOVIL		-92, R44
		SMOVIL		-1, R45
		SADDA.M1		R45:R44,AR14,AR10
		SNOP		1
		SSTW		R42, *AR10
	.loc 1 165 0
		SMOVIL		-72, R44
		SMOVIL		-1, R45
		SADDA.M1		R45:R44,AR14,AR10
		SNOP		1
		SLDW		*AR10, R42
		SNOP		5
		SMOVIL		-80, R44
		SMOVIL		-1, R45
		SADDA.M1		R45:R44,AR14,AR10
		SNOP		1
		SSTW		R42, *AR10
		SBR		.L48
		SNOP		6
.L49:
	.loc 1 167 0 discriminator 2
		SMOVIL		-128, R42
		SMOVIL		-1, R43
		SMOVIL		-64, R44
		SMOVIL		-1, R45
		SADDA.M1		R45:R44,AR14,OR11
		SNOP		1
		SADDA.M1		R43:R42,OR11,OR11
		SNOP		1
		SMVAAGL.M1		OR11, R43:R42
		SNOP		1
		SMVAAGH.M1		OR11, R43:R42
		SNOP		1
		SMOVIL		-80, R46
		SMOVIL		-1, R47
		SADDA.M1		R47:R46,AR14,AR10
		SNOP		1
		SLDW		*AR10, R44
		SNOP		5
		SMVAGA36.M1		R43:R42, AR10
		SNOP		1
		SLDW		*AR10, R42
		SNOP		5
		SMULIS.M1		R42,R44,R43
		SNOP		2
		SMOVIL		-76, R44
		SMOVIL		-1, R45
		SADDA.M1		R45:R44,AR14,AR10
		SNOP		1
		SLDW		*AR10, R42
		SNOP		5
		SADD.M1		R42,R43,R42
		SMOVIL		-336, R44
		SMOVIL		-1, R45
		SADDA.M1		R45:R44,AR14,AR10
		SNOP		1
		SSTW		R42, *AR10
		SSHFAR		31, R42, R42
		SMOVIL		-332, R44
		SMOVIL		-1, R45
		SADDA.M1		R45:R44,AR14,AR10
		SNOP		1
		SSTW		R42, *AR10
		SMOVIL		-336, R44
		SMOVIL		-1, R45
		SADDA.M1		R45:R44,AR14,AR10
		SNOP		1
		SLDW		*AR10, R46
		SNOP		5
		SMOVIL		-336, R44
		SMOVIL		-1, R45
		SADDA.M1		R45:R44,AR14,AR10
		SNOP		1
		SLDW		*AR10, R44
		SNOP		5
		SADD.M1		R44,R46,R42
		SMOVIL		-336, R46
		SMOVIL		-1, R47
		SADDA.M1		R47:R46,AR14,AR10
		SNOP		1
		SLDW		*AR10, R45
		SNOP		5
		SLTU		R42, R45, R44
		SMOVIL		-332, R46
		SMOVIL		-1, R47
		SADDA.M1		R47:R46,AR14,AR10
		SNOP		1
		SLDW		*AR10, R45
		SNOP		5
		SMOVIL		-332, R46
		SMOVIL		-1, R47
		SADDA.M1		R47:R46,AR14,AR10
		SNOP		1
		SLDW		*AR10, R46
		SNOP		5
		SADD.M1		R46,R45,R43
		SADD.M1		R43,R44,R44
		SMOV.M1		R44, R43
		SADD.M1		R42,R42,R44
		SLTU		R44, R42, R46
		SADD.M1		R43,R43,R45
		SADD.M1		R45,R46,R42
		SMOV.M1		R42, R45
		SMOV.M1		R44, R42
		SMOV.M1		R45, R43
		SMOVIL		-152, R44
		SMOVIL		-1, R45
		SMOVIL		-64, R48
		SMOVIL		-1, R49
		SADDA.M1		R49:R48,AR14,OR11
		SNOP		1
		SADDA.M1		R45:R44,OR11,OR11
		SNOP		1
		SMVAAGL.M1		OR11, R45:R44
		SNOP		1
		SMVAAGH.M1		OR11, R45:R44
		SNOP		1
	;no-op trunc di R43:R42 to pdi R43:R42
		SMVAGA36.M1		R45:R44, AR10
		SNOP		1
		SLDDW		*AR10, R45:R44
		SNOP		5
		SMVAGA36.M1		R45:R44, OR11
		SNOP		1
		SADDA.M1		R43:R42,OR11,OR11
		SNOP		1
		SMVAAGL.M1		OR11, R47:R46
		SNOP		1
		SMVAAGH.M1		OR11, R47:R46
		SNOP		1
		SMOVIL		-128, R42
		SMOVIL		-1, R43
		SMOVIL		-64, R44
		SMOVIL		-1, R45
		SADDA.M1		R45:R44,AR14,OR11
		SNOP		1
		SADDA.M1		R43:R42,OR11,OR11
		SNOP		1
		SMVAAGL.M1		OR11, R43:R42
		SNOP		1
		SMVAAGH.M1		OR11, R43:R42
		SNOP		1
		SMOVIL		-80, R48
		SMOVIL		-1, R49
		SADDA.M1		R49:R48,AR14,AR10
		SNOP		1
		SLDW		*AR10, R44
		SNOP		5
		SMVAGA36.M1		R43:R42, AR10
		SNOP		1
		SLDW		*AR10, R42
		SNOP		5
		SMULIS.M1		R42,R44,R43
		SNOP		2
		SMOVIL		-76, R44
		SMOVIL		-1, R45
		SADDA.M1		R45:R44,AR14,AR10
		SNOP		1
		SLDW		*AR10, R42
		SNOP		5
		SADD.M1		R42,R43,R42
		SMOVIL		-344, R44
		SMOVIL		-1, R45
		SADDA.M1		R45:R44,AR14,AR10
		SNOP		1
		SSTW		R42, *AR10
		SSHFAR		31, R42, R42
		SMOVIL		-340, R44
		SMOVIL		-1, R45
		SADDA.M1		R45:R44,AR14,AR10
		SNOP		1
		SSTW		R42, *AR10
		SMOVIL		-344, R44
		SMOVIL		-1, R45
		SADDA.M1		R45:R44,AR14,AR10
		SNOP		1
		SLDW		*AR10, R48
		SNOP		5
		SMOVIL		-344, R44
		SMOVIL		-1, R45
		SADDA.M1		R45:R44,AR14,AR10
		SNOP		1
		SLDW		*AR10, R44
		SNOP		5
		SADD.M1		R44,R48,R42
		SMOVIL		-344, R48
		SMOVIL		-1, R49
		SADDA.M1		R49:R48,AR14,AR10
		SNOP		1
		SLDW		*AR10, R45
		SNOP		5
		SLTU		R42, R45, R44
		SMOVIL		-340, R48
		SMOVIL		-1, R49
		SADDA.M1		R49:R48,AR14,AR10
		SNOP		1
		SLDW		*AR10, R45
		SNOP		5
		SMOVIL		-340, R48
		SMOVIL		-1, R49
		SADDA.M1		R49:R48,AR14,AR10
		SNOP		1
		SLDW		*AR10, R48
		SNOP		5
		SADD.M1		R48,R45,R43
		SADD.M1		R43,R44,R44
		SMOV.M1		R44, R43
		SADD.M1		R42,R42,R44
		SLTU		R44, R42, R48
		SADD.M1		R43,R43,R45
		SADD.M1		R45,R48,R42
		SMOV.M1		R42, R45
		SMOV.M1		R44, R42
		SMOV.M1		R45, R43
		SMOVIL		-152, R44
		SMOVIL		-1, R45
		SMOVIL		-64, R50
		SMOVIL		-1, R51
		SADDA.M1		R51:R50,AR14,OR11
		SNOP		1
		SADDA.M1		R45:R44,OR11,OR11
		SNOP		1
		SMVAAGL.M1		OR11, R45:R44
		SNOP		1
		SMVAAGH.M1		OR11, R45:R44
		SNOP		1
	;no-op trunc di R43:R42 to pdi R43:R42
		SMVAGA36.M1		R45:R44, AR10
		SNOP		1
		SLDDW		*AR10, R45:R44
		SNOP		5
		SMVAGA36.M1		R45:R44, OR11
		SNOP		1
		SADDA.M1		R43:R42,OR11,OR11
		SNOP		1
		SMVAAGL.M1		OR11, R43:R42
		SNOP		1
		SMVAAGH.M1		OR11, R43:R42
		SNOP		1
		SMVAGA36.M1		R43:R42, AR10
		SNOP		1
		SLDW		*AR10, R48
		SNOP		5
		SMOVIL		-80, R42
		SMOVIL		-1, R43
		SADDA.M1		R43:R42,AR14,AR10
		SNOP		1
		SLDW		*AR10, R44
		SNOP		5
		SMOVIL		-352, R42
		SMOVIL		-1, R43
		SADDA.M1		R43:R42,AR14,AR10
		SNOP		1
		SSTW		R44, *AR10
		SMOVIL		-80, R44
		SMOVIL		-1, R45
		SADDA.M1		R45:R44,AR14,AR10
		SNOP		1
		SLDW		*AR10, R42
		SNOP		5
		SSHFAR		31, R42, R42
		SMOVIL		-348, R44
		SMOVIL		-1, R45
		SADDA.M1		R45:R44,AR14,AR10
		SNOP		1
		SSTW		R42, *AR10
		SMOVIL		-352, R44
		SMOVIL		-1, R45
		SADDA.M1		R45:R44,AR14,AR10
		SNOP		1
		SLDW		*AR10, R49
		SNOP		5
		SMOVIL		-352, R44
		SMOVIL		-1, R45
		SADDA.M1		R45:R44,AR14,AR10
		SNOP		1
		SLDW		*AR10, R44
		SNOP		5
		SADD.M1		R44,R49,R42
		SMOVIL		-352, R50
		SMOVIL		-1, R51
		SADDA.M1		R51:R50,AR14,AR10
		SNOP		1
		SLDW		*AR10, R45
		SNOP		5
		SLTU		R42, R45, R44
		SMOVIL		-348, R50
		SMOVIL		-1, R51
		SADDA.M1		R51:R50,AR14,AR10
		SNOP		1
		SLDW		*AR10, R45
		SNOP		5
		SMOVIL		-348, R50
		SMOVIL		-1, R51
		SADDA.M1		R51:R50,AR14,AR10
		SNOP		1
		SLDW		*AR10, R49
		SNOP		5
		SADD.M1		R49,R45,R43
		SADD.M1		R43,R44,R44
		SMOV.M1		R44, R43
		SADD.M1		R42,R42,R44
		SLTU		R44, R42, R49
		SADD.M1		R43,R43,R45
		SADD.M1		R45,R49,R42
		SMOV.M1		R42, R45
		SMOV.M1		R44, R42
		SMOV.M1		R45, R43
		SMOVIL		-160, R44
		SMOVIL		-1, R45
		SMOVIL		-64, R50
		SMOVIL		-1, R51
		SADDA.M1		R51:R50,AR14,OR11
		SNOP		1
		SADDA.M1		R45:R44,OR11,OR11
		SNOP		1
		SMVAAGL.M1		OR11, R45:R44
		SNOP		1
		SMVAAGH.M1		OR11, R45:R44
		SNOP		1
	;no-op trunc di R43:R42 to pdi R43:R42
		SMVAGA36.M1		R45:R44, AR10
		SNOP		1
		SLDDW		*AR10, R45:R44
		SNOP		5
		SMVAGA36.M1		R45:R44, OR11
		SNOP		1
		SADDA.M1		R43:R42,OR11,OR11
		SNOP		1
		SMVAAGL.M1		OR11, R43:R42
		SNOP		1
		SMVAAGH.M1		OR11, R43:R42
		SNOP		1
		SMVAGA36.M1		R43:R42, AR10
		SNOP		1
		SLDW		*AR10, R43
		SNOP		5
		SMOVIL		-92, R44
		SMOVIL		-1, R45
		SADDA.M1		R45:R44,AR14,AR10
		SNOP		1
		SLDW		*AR10, R42
		SNOP		5
		SFMULS32.M1		R43, R42, R42
		SNOP		3
		SFSUBS32.M1		R42, R48, R42
		SNOP		2
		SMVAGA36.M1		R47:R46, AR10
		SNOP		1
		SSTW		R42, *AR10
	.loc 1 165 0 discriminator 2
		SMOVIL		-80, R44
		SMOVIL		-1, R45
		SADDA.M1		R45:R44,AR14,AR10
		SNOP		1
		SLDW		*AR10, R42
		SNOP		5
		SADD.M1		1,R42,R42
		SMOVIL		-80, R44
		SMOVIL		-1, R45
		SADDA.M1		R45:R44,AR14,AR10
		SNOP		1
		SSTW		R42, *AR10
.L48:
	.loc 1 165 0 is_stmt 0 discriminator 1
		SMOVIL		-124, R42
		SMOVIL		-1, R43
		SMOVIL		-64, R44
		SMOVIL		-1, R45
		SADDA.M1		R45:R44,AR14,OR11
		SNOP		1
		SADDA.M1		R43:R42,OR11,OR11
		SNOP		1
		SMVAAGL.M1		OR11, R43:R42
		SNOP		1
		SMVAAGH.M1		OR11, R43:R42
		SNOP		1
		SMOVIL		-80, R46
		SMOVIL		-1, R47
		SADDA.M1		R47:R46,AR14,AR10
		SNOP		1
		SLDW		*AR10, R44
		SNOP		5
		SMVAGA36.M1		R43:R42, AR10
		SNOP		1
		SLDW		*AR10, R42
		SNOP		5
		SLT		R44, R42, R42
		SMOV.M1		R42, R0
	[R0]	SBR		.L49
		SNOP		6
	.loc 1 162 0 is_stmt 1
		SMOVIL		-76, R44
		SMOVIL		-1, R45
		SADDA.M1		R45:R44,AR14,AR10
		SNOP		1
		SLDW		*AR10, R42
		SNOP		5
		SADD.M1		1,R42,R42
		SMOVIL		-76, R44
		SMOVIL		-1, R45
		SADDA.M1		R45:R44,AR14,AR10
		SNOP		1
		SSTW		R42, *AR10
.L47:
	.loc 1 162 0 is_stmt 0 discriminator 1
		SMOVIL		-128, R42
		SMOVIL		-1, R43
		SMOVIL		-64, R44
		SMOVIL		-1, R45
		SADDA.M1		R45:R44,AR14,OR11
		SNOP		1
		SADDA.M1		R43:R42,OR11,OR11
		SNOP		1
		SMVAAGL.M1		OR11, R43:R42
		SNOP		1
		SMVAAGH.M1		OR11, R43:R42
		SNOP		1
		SMOVIL		-76, R46
		SMOVIL		-1, R47
		SADDA.M1		R47:R46,AR14,AR10
		SNOP		1
		SLDW		*AR10, R44
		SNOP		5
		SMVAGA36.M1		R43:R42, AR10
		SNOP		1
		SLDW		*AR10, R42
		SNOP		5
		SLT		R44, R42, R42
		SMOV.M1		R42, R0
	[R0]	SBR		.L50
		SNOP		6
.LBE4:
	.loc 1 198 0 is_stmt 1
		SMOVIL		0, R42
		SMOVIL		-76, R44
		SMOVIL		-1, R45
		SADDA.M1		R45:R44,AR14,AR10
		SNOP		1
		SSTW		R42, *AR10
		SBR		.L51
		SNOP		6
.L56:
	.loc 1 200 0
		SMOVIL		0, R42
		SMOVIH		0, R42
		SMOVIL		-92, R44
		SMOVIL		-1, R45
		SADDA.M1		R45:R44,AR14,AR10
		SNOP		1
		SSTW		R42, *AR10
	.loc 1 201 0
		SMOVIL		-72, R44
		SMOVIL		-1, R45
		SADDA.M1		R45:R44,AR14,AR10
		SNOP		1
		SLDW		*AR10, R42
		SNOP		5
		SMOVIL		-80, R44
		SMOVIL		-1, R45
		SADDA.M1		R45:R44,AR14,AR10
		SNOP		1
		SSTW		R42, *AR10
		SBR		.L52
		SNOP		6
.L53:
	.loc 1 203 0 discriminator 2
		SMOVIL		-80, R42
		SMOVIL		-1, R43
		SADDA.M1		R43:R42,AR14,AR10
		SNOP		1
		SLDW		*AR10, R44
		SNOP		5
		SMOVIL		-360, R42
		SMOVIL		-1, R43
		SADDA.M1		R43:R42,AR14,AR10
		SNOP		1
		SSTW		R44, *AR10
		SMOVIL		-80, R44
		SMOVIL		-1, R45
		SADDA.M1		R45:R44,AR14,AR10
		SNOP		1
		SLDW		*AR10, R42
		SNOP		5
		SSHFAR		31, R42, R42
		SMOVIL		-356, R44
		SMOVIL		-1, R45
		SADDA.M1		R45:R44,AR14,AR10
		SNOP		1
		SSTW		R42, *AR10
		SMOVIL		-360, R44
		SMOVIL		-1, R45
		SADDA.M1		R45:R44,AR14,AR10
		SNOP		1
		SLDW		*AR10, R46
		SNOP		5
		SMOVIL		-360, R44
		SMOVIL		-1, R45
		SADDA.M1		R45:R44,AR14,AR10
		SNOP		1
		SLDW		*AR10, R44
		SNOP		5
		SADD.M1		R44,R46,R42
		SMOVIL		-360, R46
		SMOVIL		-1, R47
		SADDA.M1		R47:R46,AR14,AR10
		SNOP		1
		SLDW		*AR10, R45
		SNOP		5
		SLTU		R42, R45, R44
		SMOVIL		-356, R46
		SMOVIL		-1, R47
		SADDA.M1		R47:R46,AR14,AR10
		SNOP		1
		SLDW		*AR10, R45
		SNOP		5
		SMOVIL		-356, R46
		SMOVIL		-1, R47
		SADDA.M1		R47:R46,AR14,AR10
		SNOP		1
		SLDW		*AR10, R46
		SNOP		5
		SADD.M1		R46,R45,R43
		SADD.M1		R43,R44,R44
		SMOV.M1		R44, R43
		SADD.M1		R42,R42,R44
		SLTU		R44, R42, R46
		SADD.M1		R43,R43,R45
		SADD.M1		R45,R46,R42
		SMOV.M1		R42, R45
		SMOV.M1		R44, R42
		SMOV.M1		R45, R43
		SMOVIL		-160, R44
		SMOVIL		-1, R45
		SMOVIL		-64, R48
		SMOVIL		-1, R49
		SADDA.M1		R49:R48,AR14,OR11
		SNOP		1
		SADDA.M1		R45:R44,OR11,OR11
		SNOP		1
		SMVAAGL.M1		OR11, R45:R44
		SNOP		1
		SMVAAGH.M1		OR11, R45:R44
		SNOP		1
	;no-op trunc di R43:R42 to pdi R43:R42
		SMVAGA36.M1		R45:R44, AR10
		SNOP		1
		SLDDW		*AR10, R45:R44
		SNOP		5
		SMVAGA36.M1		R45:R44, OR11
		SNOP		1
		SADDA.M1		R43:R42,OR11,OR11
		SNOP		1
		SMVAAGL.M1		OR11, R43:R42
		SNOP		1
		SMVAAGH.M1		OR11, R43:R42
		SNOP		1
		SMVAGA36.M1		R43:R42, AR10
		SNOP		1
		SLDW		*AR10, R46
		SNOP		5
		SMOVIL		-124, R42
		SMOVIL		-1, R43
		SMOVIL		-64, R44
		SMOVIL		-1, R45
		SADDA.M1		R45:R44,AR14,OR11
		SNOP		1
		SADDA.M1		R43:R42,OR11,OR11
		SNOP		1
		SMVAAGL.M1		OR11, R43:R42
		SNOP		1
		SMVAAGH.M1		OR11, R43:R42
		SNOP		1
		SMOVIL		-76, R48
		SMOVIL		-1, R49
		SADDA.M1		R49:R48,AR14,AR10
		SNOP		1
		SLDW		*AR10, R44
		SNOP		5
		SMVAGA36.M1		R43:R42, AR10
		SNOP		1
		SLDW		*AR10, R42
		SNOP		5
		SMULIS.M1		R42,R44,R43
		SNOP		2
		SMOVIL		-80, R44
		SMOVIL		-1, R45
		SADDA.M1		R45:R44,AR14,AR10
		SNOP		1
		SLDW		*AR10, R42
		SNOP		5
		SADD.M1		R42,R43,R42
		SMOVIL		-368, R44
		SMOVIL		-1, R45
		SADDA.M1		R45:R44,AR14,AR10
		SNOP		1
		SSTW		R42, *AR10
		SSHFAR		31, R42, R42
		SMOVIL		-364, R44
		SMOVIL		-1, R45
		SADDA.M1		R45:R44,AR14,AR10
		SNOP		1
		SSTW		R42, *AR10
		SMOVIL		-368, R44
		SMOVIL		-1, R45
		SADDA.M1		R45:R44,AR14,AR10
		SNOP		1
		SLDW		*AR10, R47
		SNOP		5
		SMOVIL		-368, R44
		SMOVIL		-1, R45
		SADDA.M1		R45:R44,AR14,AR10
		SNOP		1
		SLDW		*AR10, R44
		SNOP		5
		SADD.M1		R44,R47,R42
		SMOVIL		-368, R48
		SMOVIL		-1, R49
		SADDA.M1		R49:R48,AR14,AR10
		SNOP		1
		SLDW		*AR10, R45
		SNOP		5
		SLTU		R42, R45, R44
		SMOVIL		-364, R48
		SMOVIL		-1, R49
		SADDA.M1		R49:R48,AR14,AR10
		SNOP		1
		SLDW		*AR10, R45
		SNOP		5
		SMOVIL		-364, R48
		SMOVIL		-1, R49
		SADDA.M1		R49:R48,AR14,AR10
		SNOP		1
		SLDW		*AR10, R47
		SNOP		5
		SADD.M1		R47,R45,R43
		SADD.M1		R43,R44,R44
		SMOV.M1		R44, R43
		SADD.M1		R42,R42,R44
		SLTU		R44, R42, R47
		SADD.M1		R43,R43,R45
		SADD.M1		R45,R47,R42
		SMOV.M1		R42, R45
		SMOV.M1		R44, R42
		SMOV.M1		R45, R43
		SMOVIL		-144, R44
		SMOVIL		-1, R45
		SMOVIL		-64, R48
		SMOVIL		-1, R49
		SADDA.M1		R49:R48,AR14,OR11
		SNOP		1
		SADDA.M1		R45:R44,OR11,OR11
		SNOP		1
		SMVAAGL.M1		OR11, R45:R44
		SNOP		1
		SMVAAGH.M1		OR11, R45:R44
		SNOP		1
	;no-op trunc di R43:R42 to pdi R43:R42
		SMVAGA36.M1		R45:R44, AR10
		SNOP		1
		SLDDW		*AR10, R45:R44
		SNOP		5
		SMVAGA36.M1		R45:R44, OR11
		SNOP		1
		SADDA.M1		R43:R42,OR11,OR11
		SNOP		1
		SMVAAGL.M1		OR11, R43:R42
		SNOP		1
		SMVAAGH.M1		OR11, R43:R42
		SNOP		1
		SMVAGA36.M1		R43:R42, AR10
		SNOP		1
		SLDW		*AR10, R42
		SNOP		5
		SFMULS32.M1		R46, R42, R42
		SNOP		3
		SMOVIL		-92, R44
		SMOVIL		-1, R45
		SADDA.M1		R45:R44,AR14,AR10
		SNOP		1
		SLDW		*AR10, R43
		SNOP		5
		SFADDS32.M1		R43, R42, R42
		SNOP		2
		SMOVIL		-92, R44
		SMOVIL		-1, R45
		SADDA.M1		R45:R44,AR14,AR10
		SNOP		1
		SSTW		R42, *AR10
	.loc 1 201 0 discriminator 2
		SMOVIL		-80, R44
		SMOVIL		-1, R45
		SADDA.M1		R45:R44,AR14,AR10
		SNOP		1
		SLDW		*AR10, R42
		SNOP		5
		SADD.M1		1,R42,R42
		SMOVIL		-80, R44
		SMOVIL		-1, R45
		SADDA.M1		R45:R44,AR14,AR10
		SNOP		1
		SSTW		R42, *AR10
.L52:
	.loc 1 201 0 is_stmt 0 discriminator 1
		SMOVIL		-124, R42
		SMOVIL		-1, R43
		SMOVIL		-64, R44
		SMOVIL		-1, R45
		SADDA.M1		R45:R44,AR14,OR11
		SNOP		1
		SADDA.M1		R43:R42,OR11,OR11
		SNOP		1
		SMVAAGL.M1		OR11, R43:R42
		SNOP		1
		SMVAAGH.M1		OR11, R43:R42
		SNOP		1
		SMOVIL		-80, R46
		SMOVIL		-1, R47
		SADDA.M1		R47:R46,AR14,AR10
		SNOP		1
		SLDW		*AR10, R44
		SNOP		5
		SMVAGA36.M1		R43:R42, AR10
		SNOP		1
		SLDW		*AR10, R42
		SNOP		5
		SLT		R44, R42, R42
		SMOV.M1		R42, R0
	[R0]	SBR		.L53
		SNOP		6
	.loc 1 205 0 is_stmt 1
		SMOVIL		-92, R44
		SMOVIL		-1, R45
		SADDA.M1		R45:R44,AR14,AR10
		SNOP		1
		SLDW		*AR10, R43
		SNOP		5
		SMOVIL		-116, R44
		SMOVIL		-1, R45
		SADDA.M1		R45:R44,AR14,AR10
		SNOP		1
		SLDW		*AR10, R42
		SNOP		5
		SFMULS32.M1		R43, R42, R42
		SNOP		3
		SMOVIL		-92, R44
		SMOVIL		-1, R45
		SADDA.M1		R45:R44,AR14,AR10
		SNOP		1
		SSTW		R42, *AR10
	.loc 1 206 0
		SMOVIL		-72, R44
		SMOVIL		-1, R45
		SADDA.M1		R45:R44,AR14,AR10
		SNOP		1
		SLDW		*AR10, R42
		SNOP		5
		SMOVIL		-80, R44
		SMOVIL		-1, R45
		SADDA.M1		R45:R44,AR14,AR10
		SNOP		1
		SSTW		R42, *AR10
		SBR		.L54
		SNOP		6
.L55:
	.loc 1 208 0 discriminator 2
		SMOVIL		-124, R42
		SMOVIL		-1, R43
		SMOVIL		-64, R44
		SMOVIL		-1, R45
		SADDA.M1		R45:R44,AR14,OR11
		SNOP		1
		SADDA.M1		R43:R42,OR11,OR11
		SNOP		1
		SMVAAGL.M1		OR11, R43:R42
		SNOP		1
		SMVAAGH.M1		OR11, R43:R42
		SNOP		1
		SMOVIL		-76, R46
		SMOVIL		-1, R47
		SADDA.M1		R47:R46,AR14,AR10
		SNOP		1
		SLDW		*AR10, R44
		SNOP		5
		SMVAGA36.M1		R43:R42, AR10
		SNOP		1
		SLDW		*AR10, R42
		SNOP		5
		SMULIS.M1		R42,R44,R43
		SNOP		2
		SMOVIL		-80, R44
		SMOVIL		-1, R45
		SADDA.M1		R45:R44,AR14,AR10
		SNOP		1
		SLDW		*AR10, R42
		SNOP		5
		SADD.M1		R42,R43,R42
		SMOVIL		-376, R44
		SMOVIL		-1, R45
		SADDA.M1		R45:R44,AR14,AR10
		SNOP		1
		SSTW		R42, *AR10
		SSHFAR		31, R42, R42
		SMOVIL		-372, R44
		SMOVIL		-1, R45
		SADDA.M1		R45:R44,AR14,AR10
		SNOP		1
		SSTW		R42, *AR10
		SMOVIL		-376, R44
		SMOVIL		-1, R45
		SADDA.M1		R45:R44,AR14,AR10
		SNOP		1
		SLDW		*AR10, R46
		SNOP		5
		SMOVIL		-376, R44
		SMOVIL		-1, R45
		SADDA.M1		R45:R44,AR14,AR10
		SNOP		1
		SLDW		*AR10, R44
		SNOP		5
		SADD.M1		R44,R46,R42
		SMOVIL		-376, R46
		SMOVIL		-1, R47
		SADDA.M1		R47:R46,AR14,AR10
		SNOP		1
		SLDW		*AR10, R45
		SNOP		5
		SLTU		R42, R45, R44
		SMOVIL		-372, R46
		SMOVIL		-1, R47
		SADDA.M1		R47:R46,AR14,AR10
		SNOP		1
		SLDW		*AR10, R45
		SNOP		5
		SMOVIL		-372, R46
		SMOVIL		-1, R47
		SADDA.M1		R47:R46,AR14,AR10
		SNOP		1
		SLDW		*AR10, R46
		SNOP		5
		SADD.M1		R46,R45,R43
		SADD.M1		R43,R44,R44
		SMOV.M1		R44, R43
		SADD.M1		R42,R42,R44
		SLTU		R44, R42, R46
		SADD.M1		R43,R43,R45
		SADD.M1		R45,R46,R42
		SMOV.M1		R42, R45
		SMOV.M1		R44, R42
		SMOV.M1		R45, R43
		SMOVIL		-144, R44
		SMOVIL		-1, R45
		SMOVIL		-64, R48
		SMOVIL		-1, R49
		SADDA.M1		R49:R48,AR14,OR11
		SNOP		1
		SADDA.M1		R45:R44,OR11,OR11
		SNOP		1
		SMVAAGL.M1		OR11, R45:R44
		SNOP		1
		SMVAAGH.M1		OR11, R45:R44
		SNOP		1
	;no-op trunc di R43:R42 to pdi R43:R42
		SMVAGA36.M1		R45:R44, AR10
		SNOP		1
		SLDDW		*AR10, R45:R44
		SNOP		5
		SMVAGA36.M1		R45:R44, OR11
		SNOP		1
		SADDA.M1		R43:R42,OR11,OR11
		SNOP		1
		SMVAAGL.M1		OR11, R47:R46
		SNOP		1
		SMVAAGH.M1		OR11, R47:R46
		SNOP		1
		SMOVIL		-124, R42
		SMOVIL		-1, R43
		SMOVIL		-64, R44
		SMOVIL		-1, R45
		SADDA.M1		R45:R44,AR14,OR11
		SNOP		1
		SADDA.M1		R43:R42,OR11,OR11
		SNOP		1
		SMVAAGL.M1		OR11, R43:R42
		SNOP		1
		SMVAAGH.M1		OR11, R43:R42
		SNOP		1
		SMOVIL		-76, R48
		SMOVIL		-1, R49
		SADDA.M1		R49:R48,AR14,AR10
		SNOP		1
		SLDW		*AR10, R44
		SNOP		5
		SMVAGA36.M1		R43:R42, AR10
		SNOP		1
		SLDW		*AR10, R42
		SNOP		5
		SMULIS.M1		R42,R44,R43
		SNOP		2
		SMOVIL		-80, R44
		SMOVIL		-1, R45
		SADDA.M1		R45:R44,AR14,AR10
		SNOP		1
		SLDW		*AR10, R42
		SNOP		5
		SADD.M1		R42,R43,R42
		SMOVIL		-384, R44
		SMOVIL		-1, R45
		SADDA.M1		R45:R44,AR14,AR10
		SNOP		1
		SSTW		R42, *AR10
		SSHFAR		31, R42, R42
		SMOVIL		-380, R44
		SMOVIL		-1, R45
		SADDA.M1		R45:R44,AR14,AR10
		SNOP		1
		SSTW		R42, *AR10
		SMOVIL		-384, R44
		SMOVIL		-1, R45
		SADDA.M1		R45:R44,AR14,AR10
		SNOP		1
		SLDW		*AR10, R48
		SNOP		5
		SMOVIL		-384, R44
		SMOVIL		-1, R45
		SADDA.M1		R45:R44,AR14,AR10
		SNOP		1
		SLDW		*AR10, R44
		SNOP		5
		SADD.M1		R44,R48,R42
		SMOVIL		-384, R48
		SMOVIL		-1, R49
		SADDA.M1		R49:R48,AR14,AR10
		SNOP		1
		SLDW		*AR10, R45
		SNOP		5
		SLTU		R42, R45, R44
		SMOVIL		-380, R48
		SMOVIL		-1, R49
		SADDA.M1		R49:R48,AR14,AR10
		SNOP		1
		SLDW		*AR10, R45
		SNOP		5
		SMOVIL		-380, R48
		SMOVIL		-1, R49
		SADDA.M1		R49:R48,AR14,AR10
		SNOP		1
		SLDW		*AR10, R48
		SNOP		5
		SADD.M1		R48,R45,R43
		SADD.M1		R43,R44,R44
		SMOV.M1		R44, R43
		SADD.M1		R42,R42,R44
		SLTU		R44, R42, R48
		SADD.M1		R43,R43,R45
		SADD.M1		R45,R48,R42
		SMOV.M1		R42, R45
		SMOV.M1		R44, R42
		SMOV.M1		R45, R43
		SMOVIL		-144, R44
		SMOVIL		-1, R45
		SMOVIL		-64, R50
		SMOVIL		-1, R51
		SADDA.M1		R51:R50,AR14,OR11
		SNOP		1
		SADDA.M1		R45:R44,OR11,OR11
		SNOP		1
		SMVAAGL.M1		OR11, R45:R44
		SNOP		1
		SMVAAGH.M1		OR11, R45:R44
		SNOP		1
	;no-op trunc di R43:R42 to pdi R43:R42
		SMVAGA36.M1		R45:R44, AR10
		SNOP		1
		SLDDW		*AR10, R45:R44
		SNOP		5
		SMVAGA36.M1		R45:R44, OR11
		SNOP		1
		SADDA.M1		R43:R42,OR11,OR11
		SNOP		1
		SMVAAGL.M1		OR11, R43:R42
		SNOP		1
		SMVAAGH.M1		OR11, R43:R42
		SNOP		1
		SMVAGA36.M1		R43:R42, AR10
		SNOP		1
		SLDW		*AR10, R48
		SNOP		5
		SMOVIL		-80, R42
		SMOVIL		-1, R43
		SADDA.M1		R43:R42,AR14,AR10
		SNOP		1
		SLDW		*AR10, R44
		SNOP		5
		SMOVIL		-392, R42
		SMOVIL		-1, R43
		SADDA.M1		R43:R42,AR14,AR10
		SNOP		1
		SSTW		R44, *AR10
		SMOVIL		-80, R44
		SMOVIL		-1, R45
		SADDA.M1		R45:R44,AR14,AR10
		SNOP		1
		SLDW		*AR10, R42
		SNOP		5
		SSHFAR		31, R42, R42
		SMOVIL		-388, R44
		SMOVIL		-1, R45
		SADDA.M1		R45:R44,AR14,AR10
		SNOP		1
		SSTW		R42, *AR10
		SMOVIL		-392, R44
		SMOVIL		-1, R45
		SADDA.M1		R45:R44,AR14,AR10
		SNOP		1
		SLDW		*AR10, R49
		SNOP		5
		SMOVIL		-392, R44
		SMOVIL		-1, R45
		SADDA.M1		R45:R44,AR14,AR10
		SNOP		1
		SLDW		*AR10, R44
		SNOP		5
		SADD.M1		R44,R49,R42
		SMOVIL		-392, R50
		SMOVIL		-1, R51
		SADDA.M1		R51:R50,AR14,AR10
		SNOP		1
		SLDW		*AR10, R45
		SNOP		5
		SLTU		R42, R45, R44
		SMOVIL		-388, R50
		SMOVIL		-1, R51
		SADDA.M1		R51:R50,AR14,AR10
		SNOP		1
		SLDW		*AR10, R45
		SNOP		5
		SMOVIL		-388, R50
		SMOVIL		-1, R51
		SADDA.M1		R51:R50,AR14,AR10
		SNOP		1
		SLDW		*AR10, R49
		SNOP		5
		SADD.M1		R49,R45,R43
		SADD.M1		R43,R44,R44
		SMOV.M1		R44, R43
		SADD.M1		R42,R42,R44
		SLTU		R44, R42, R49
		SADD.M1		R43,R43,R45
		SADD.M1		R45,R49,R42
		SMOV.M1		R42, R45
		SMOV.M1		R44, R42
		SMOV.M1		R45, R43
		SMOVIL		-160, R44
		SMOVIL		-1, R45
		SMOVIL		-64, R50
		SMOVIL		-1, R51
		SADDA.M1		R51:R50,AR14,OR11
		SNOP		1
		SADDA.M1		R45:R44,OR11,OR11
		SNOP		1
		SMVAAGL.M1		OR11, R45:R44
		SNOP		1
		SMVAAGH.M1		OR11, R45:R44
		SNOP		1
	;no-op trunc di R43:R42 to pdi R43:R42
		SMVAGA36.M1		R45:R44, AR10
		SNOP		1
		SLDDW		*AR10, R45:R44
		SNOP		5
		SMVAGA36.M1		R45:R44, OR11
		SNOP		1
		SADDA.M1		R43:R42,OR11,OR11
		SNOP		1
		SMVAAGL.M1		OR11, R43:R42
		SNOP		1
		SMVAAGH.M1		OR11, R43:R42
		SNOP		1
		SMVAGA36.M1		R43:R42, AR10
		SNOP		1
		SLDW		*AR10, R43
		SNOP		5
		SMOVIL		-92, R44
		SMOVIL		-1, R45
		SADDA.M1		R45:R44,AR14,AR10
		SNOP		1
		SLDW		*AR10, R42
		SNOP		5
		SFMULS32.M1		R43, R42, R42
		SNOP		3
		SFSUBS32.M1		R42, R48, R42
		SNOP		2
		SMVAGA36.M1		R47:R46, AR10
		SNOP		1
		SSTW		R42, *AR10
	.loc 1 206 0 discriminator 2
		SMOVIL		-80, R44
		SMOVIL		-1, R45
		SADDA.M1		R45:R44,AR14,AR10
		SNOP		1
		SLDW		*AR10, R42
		SNOP		5
		SADD.M1		1,R42,R42
		SMOVIL		-80, R44
		SMOVIL		-1, R45
		SADDA.M1		R45:R44,AR14,AR10
		SNOP		1
		SSTW		R42, *AR10
.L54:
	.loc 1 206 0 is_stmt 0 discriminator 1
		SMOVIL		-124, R42
		SMOVIL		-1, R43
		SMOVIL		-64, R44
		SMOVIL		-1, R45
		SADDA.M1		R45:R44,AR14,OR11
		SNOP		1
		SADDA.M1		R43:R42,OR11,OR11
		SNOP		1
		SMVAAGL.M1		OR11, R43:R42
		SNOP		1
		SMVAAGH.M1		OR11, R43:R42
		SNOP		1
		SMOVIL		-80, R46
		SMOVIL		-1, R47
		SADDA.M1		R47:R46,AR14,AR10
		SNOP		1
		SLDW		*AR10, R44
		SNOP		5
		SMVAGA36.M1		R43:R42, AR10
		SNOP		1
		SLDW		*AR10, R42
		SNOP		5
		SLT		R44, R42, R42
		SMOV.M1		R42, R0
	[R0]	SBR		.L55
		SNOP		6
	.loc 1 198 0 is_stmt 1
		SMOVIL		-76, R44
		SMOVIL		-1, R45
		SADDA.M1		R45:R44,AR14,AR10
		SNOP		1
		SLDW		*AR10, R42
		SNOP		5
		SADD.M1		1,R42,R42
		SMOVIL		-76, R44
		SMOVIL		-1, R45
		SADDA.M1		R45:R44,AR14,AR10
		SNOP		1
		SSTW		R42, *AR10
.L51:
	.loc 1 198 0 is_stmt 0 discriminator 1
		SMOVIL		-124, R42
		SMOVIL		-1, R43
		SMOVIL		-64, R44
		SMOVIL		-1, R45
		SADDA.M1		R45:R44,AR14,OR11
		SNOP		1
		SADDA.M1		R43:R42,OR11,OR11
		SNOP		1
		SMVAAGL.M1		OR11, R43:R42
		SNOP		1
		SMVAAGH.M1		OR11, R43:R42
		SNOP		1
		SMOVIL		-76, R46
		SMOVIL		-1, R47
		SADDA.M1		R47:R46,AR14,AR10
		SNOP		1
		SLDW		*AR10, R44
		SNOP		5
		SMVAGA36.M1		R43:R42, AR10
		SNOP		1
		SLDW		*AR10, R42
		SNOP		5
		SLT		R44, R42, R42
		SMOV.M1		R42, R0
	[R0]	SBR		.L56
		SNOP		6
.L40:
.LBE3:
	.loc 1 115 0 is_stmt 1
		SMOVIL		-72, R44
		SMOVIL		-1, R45
		SADDA.M1		R45:R44,AR14,AR10
		SNOP		1
		SLDW		*AR10, R42
		SNOP		5
		SADD.M1		1,R42,R42
		SMOVIL		-72, R44
		SMOVIL		-1, R45
		SADDA.M1		R45:R44,AR14,AR10
		SNOP		1
		SSTW		R42, *AR10
.L37:
	.loc 1 115 0 is_stmt 0 discriminator 1
		SMOVIL		-72, R44
		SMOVIL		-1, R45
		SADDA.M1		R45:R44,AR14,AR10
		SNOP		1
		SLDW		*AR10, R43
		SNOP		5
		SMOVIL		-84, R44
		SMOVIL		-1, R45
		SADDA.M1		R45:R44,AR14,AR10
		SNOP		1
		SLDW		*AR10, R42
		SNOP		5
		SLT		R42, R43, R42
		SMOV.M1		R42, R0
	[!R0]	SBR		.L57
		SNOP		6
	.loc 1 216 0 is_stmt 1
		SMOVIL		0, R42
	.loc 1 217 0
		SMOV.M1		R42, R10
		SMOVIL		128, R6
		SMOVIL		0, R7
		SADDA.M1		R7:R6,AR7,AR7
		SNOP		2
		SLDDW		*+AR15[43], R31:R30
		SNOP		5
		SLDDW		*+AR15[44], R33:R32
		SNOP		5
		SLDDW		*+AR15[45], R35:R34
		SNOP		5
		SLDDW		*+AR15[46], R37:R36
		SNOP		5
		SLDDW		*+AR15[47], R39:R38
		SNOP		5
		SLDDW		*+AR15[48], R41:R40
		SNOP		5
		SLDDW		*+AR15[49], R63:R62
		SNOP		5
		SADDA.M1		-16,AR14,AR15
		SNOP		1
		SLDDW		*++AR15[2], R7:R6
		SNOP		5
		SMVAGA36.M1		R7:R6, AR14
		SNOP		1
		SMVCGC.L		R63, BRReg
		SNOP		1
		SBR		R62
		SNOP		6
	.cfi_endproc
.LFE1:
	.size	vector_qr, .-vector_qr
	.section	.text.trival_qr_solver,"ax",@progbits
	.align	2
	.global	trival_qr_solver
	.type	trival_qr_solver, @function
trival_qr_solver:
.LFB2:
	.loc 1 220 0
	.cfi_startproc
		SMVAAGL.M1		AR14, R7:R6
		SNOP		1
		SMVAAGH.M1		AR14, R7:R6
		SNOP		1
		SSTDW		R7:R6, *AR15--[2]
.LCFI4:
	.cfi_def_cfa_offset 16
	.cfi_offset 14, 0
		SADDA.M1		16,AR15,AR14
.LCFI5:
	.cfi_def_cfa 14, 0
		SNOP		1
		SMOVIL		-112, R6
		SMOVIL		-1, R7
		SADDA.M1		R7:R6,AR15,AR15
		SNOP		1
		SSTDW		R63:R62, *+AR15[14]
		SSTDW		R39:R38, *+AR15[13]
		SSTDW		R37:R36, *+AR15[12]
		SSTDW		R35:R34, *+AR15[11]
		SSTDW		R33:R32, *+AR15[10]
		SSTDW		R31:R30, *+AR15[9]
	.cfi_offset 78, -16
	.cfi_offset 79, -12
	.cfi_offset 54, -24
	.cfi_offset 55, -20
	.cfi_offset 52, -32
	.cfi_offset 53, -28
	.cfi_offset 50, -40
	.cfi_offset 51, -36
	.cfi_offset 48, -48
	.cfi_offset 49, -44
	.cfi_offset 46, -56
	.cfi_offset 47, -52
		SMOVIL		-76, R42
		SMOVIL		-1, R43
		SADDA.M1		R43:R42,AR14,AR10
		SNOP		1
		SSTW		R10, *AR10
		SMOVIL		-80, R42
		SMOVIL		-1, R43
		SADDA.M1		R43:R42,AR14,AR10
		SNOP		1
		SSTW		R12, *AR10
		SSTDW		R15:R14, *-AR14[11]
		SSTDW		R17:R16, *-AR14[12]
		SSTDW		R19:R18, *-AR14[13]
		SSTDW		R21:R20, *-AR14[14]
		SSTDW		R23:R22, *-AR14[15]
	.loc 1 226 0
		SMOVIL		0, R42
		SMOVIL		-58, R52
		SMOVIL		-1, R53
		SADDA.M1		R53:R52,AR14,AR10
		SNOP		1
		SSTH		R42, *AR10
		SBR		.L66
		SNOP		6
.L69:
	.loc 1 228 0
		SMOVIL		0, R42
		SMOVIH		0, R42
		SMOVIL		-68, R52
		SMOVIL		-1, R53
		SADDA.M1		R53:R52,AR14,AR10
		SNOP		1
		SSTW		R42, *AR10
	.loc 1 229 0
		SMOVIL		0, R42
		SMOVIL		-60, R52
		SMOVIL		-1, R53
		SADDA.M1		R53:R52,AR14,AR10
		SNOP		1
		SSTH		R42, *AR10
		SBR		.L67
		SNOP		6
.L68:
	.loc 1 231 0 discriminator 2
		SMOVIL		-58, R46
		SMOVIL		-1, R47
		SADDA.M1		R47:R46,AR14,AR10
		SNOP		1
		SLDH		*AR10, R42
		SNOP		5
		SSHFLL		16, R42, R42
		SSHFAR		16, R42, R42
		SMOVIL		-60, R46
		SMOVIL		-1, R47
		SADDA.M1		R47:R46,AR14,AR10
		SNOP		1
		SLDH		*AR10, R43
		SNOP		5
		SSHFLL		16, R43, R43
		SSHFAR		16, R43, R43
		SMOVIL		-76, R46
		SMOVIL		-1, R47
		SADDA.M1		R47:R46,AR14,AR10
		SNOP		1
		SLDW		*AR10, R52
		SNOP		5
		SMULIS.M1		R52,R43,R43
		SNOP		2
		SADD.M1		R43,R42,R42
		SMOV.M1		R42, R46
		SSHFAR		31, R42, R42
		SMOV.M1		R42, R47
		SADD.M1		R46,R46,R42
		SLTU		R42, R46, R52
		SADD.M1		R47,R47,R43
		SADD.M1		R43,R52,R52
		SMOV.M1		R52, R43
		SADD.M1		R42,R42,R52
		SLTU		R52, R42, R54
		SADD.M1		R43,R43,R53
		SADD.M1		R53,R54,R42
		SMOV.M1		R42, R53
		SMOV.M1		R52, R42
		SMOV.M1		R53, R43
	;no-op trunc di R43:R42 to pdi R43:R42
		SLDDW		*-AR14[11], R53:R52
		SNOP		5
		SMVAGA36.M1		R53:R52, OR11
		SNOP		1
		SADDA.M1		R43:R42,OR11,OR11
		SNOP		1
		SMVAAGL.M1		OR11, R43:R42
		SNOP		1
		SMVAAGH.M1		OR11, R43:R42
		SNOP		1
		SMVAGA36.M1		R43:R42, AR10
		SNOP		1
		SLDW		*AR10, R54
		SNOP		5
		SMOVIL		-60, R48
		SMOVIL		-1, R49
		SADDA.M1		R49:R48,AR14,AR10
		SNOP		1
		SLDH		*AR10, R42
		SNOP		5
		SSHFLL		16, R42, R42
		SSHFAR		16, R42, R42
		SMOV.M1		R42, R48
		SSHFAR		31, R42, R42
		SMOV.M1		R42, R49
		SADD.M1		R48,R48,R42
		SLTU		R42, R48, R52
		SADD.M1		R49,R49,R43
		SADD.M1		R43,R52,R52
		SMOV.M1		R52, R43
		SADD.M1		R42,R42,R52
		SLTU		R52, R42, R55
		SADD.M1		R43,R43,R53
		SADD.M1		R53,R55,R42
		SMOV.M1		R42, R53
		SMOV.M1		R52, R42
		SMOV.M1		R53, R43
	;no-op trunc di R43:R42 to pdi R43:R42
		SLDDW		*-AR14[13], R53:R52
		SNOP		5
		SMVAGA36.M1		R53:R52, OR11
		SNOP		1
		SADDA.M1		R43:R42,OR11,OR11
		SNOP		1
		SMVAAGL.M1		OR11, R43:R42
		SNOP		1
		SMVAAGH.M1		OR11, R43:R42
		SNOP		1
		SMVAGA36.M1		R43:R42, AR10
		SNOP		1
		SLDW		*AR10, R42
		SNOP		5
		SFMULS32.M1		R54, R42, R42
		SNOP		3
		SMOVIL		-68, R52
		SMOVIL		-1, R53
		SADDA.M1		R53:R52,AR14,AR10
		SNOP		1
		SLDW		*AR10, R43
		SNOP		5
		SFADDS32.M1		R43, R42, R42
		SNOP		2
		SMOVIL		-68, R52
		SMOVIL		-1, R53
		SADDA.M1		R53:R52,AR14,AR10
		SNOP		1
		SSTW		R42, *AR10
	.loc 1 229 0 discriminator 2
		SMOVIL		-60, R52
		SMOVIL		-1, R53
		SADDA.M1		R53:R52,AR14,AR10
		SNOP		1
		SLDH		*AR10, R42
		SNOP		5
		SADD.M1		1,R42,R42
		SMOVIL		-60, R52
		SMOVIL		-1, R53
		SADDA.M1		R53:R52,AR14,AR10
		SNOP		1
		SSTH		R42, *AR10
.L67:
	.loc 1 229 0 is_stmt 0 discriminator 1
		SMOVIL		-60, R52
		SMOVIL		-1, R53
		SADDA.M1		R53:R52,AR14,AR10
		SNOP		1
		SLDH		*AR10, R42
		SNOP		5
		SSHFLL		16, R42, R42
		SSHFAR		16, R42, R42
		SMOVIL		-76, R52
		SMOVIL		-1, R53
		SADDA.M1		R53:R52,AR14,AR10
		SNOP		1
		SLDW		*AR10, R43
		SNOP		5
		SLT		R42, R43, R42
		SMOV.M1		R42, R0
	[R0]	SBR		.L68
		SNOP		6
	.loc 1 233 0 is_stmt 1
		SMOVIL		-58, R50
		SMOVIL		-1, R51
		SADDA.M1		R51:R50,AR14,AR10
		SNOP		1
		SLDH		*AR10, R42
		SNOP		5
		SSHFLL		16, R42, R42
		SSHFAR		16, R42, R42
		SMOV.M1		R42, R50
		SSHFAR		31, R42, R42
		SMOV.M1		R42, R51
		SADD.M1		R50,R50,R42
		SLTU		R42, R50, R52
		SADD.M1		R51,R51,R43
		SADD.M1		R43,R52,R52
		SMOV.M1		R52, R43
		SADD.M1		R42,R42,R52
		SLTU		R52, R42, R54
		SADD.M1		R43,R43,R53
		SADD.M1		R53,R54,R42
		SMOV.M1		R42, R53
		SMOV.M1		R52, R42
		SMOV.M1		R53, R43
	;no-op trunc di R43:R42 to pdi R43:R42
		SLDDW		*-AR14[14], R53:R52
		SNOP		5
		SMVAGA36.M1		R53:R52, OR11
		SNOP		1
		SADDA.M1		R43:R42,OR11,OR11
		SNOP		1
		SMVAAGL.M1		OR11, R43:R42
		SNOP		1
		SMVAAGH.M1		OR11, R43:R42
		SNOP		1
		SMOVIL		-68, R54
		SMOVIL		-1, R55
		SADDA.M1		R55:R54,AR14,AR10
		SNOP		1
		SLDW		*AR10, R52
		SNOP		5
		SMVAGA36.M1		R43:R42, AR10
		SNOP		1
		SSTW		R52, *AR10
	.loc 1 226 0
		SMOVIL		-58, R52
		SMOVIL		-1, R53
		SADDA.M1		R53:R52,AR14,AR10
		SNOP		1
		SLDH		*AR10, R42
		SNOP		5
		SADD.M1		1,R42,R42
		SMOVIL		-58, R52
		SMOVIL		-1, R53
		SADDA.M1		R53:R52,AR14,AR10
		SNOP		1
		SSTH		R42, *AR10
.L66:
	.loc 1 226 0 is_stmt 0 discriminator 1
		SMOVIL		-58, R52
		SMOVIL		-1, R53
		SADDA.M1		R53:R52,AR14,AR10
		SNOP		1
		SLDH		*AR10, R42
		SNOP		5
		SSHFLL		16, R42, R42
		SSHFAR		16, R42, R42
		SMOVIL		-76, R52
		SMOVIL		-1, R53
		SADDA.M1		R53:R52,AR14,AR10
		SNOP		1
		SLDW		*AR10, R43
		SNOP		5
		SLT		R42, R43, R42
		SMOV.M1		R42, R0
	[R0]	SBR		.L69
		SNOP		6
	.loc 1 237 0 is_stmt 1
		SMOVIL		-76, R46
		SMOVIL		-1, R47
		SADDA.M1		R47:R46,AR14,AR10
		SNOP		1
		SLDW		*AR10, R43
		SNOP		5
		SMOVIL		-80, R46
		SMOVIL		-1, R47
		SADDA.M1		R47:R46,AR14,AR10
		SNOP		1
		SLDW		*AR10, R42
		SNOP		5
		SLT		R43, R42, R42
		SMOV.M1		R42, R0
	[R0]	SBR		.L70
		SNOP		6
	.loc 1 238 0
		SMOVIL		-80, R46
		SMOVIL		-1, R47
		SADDA.M1		R47:R46,AR14,AR10
		SNOP		1
		SLDW		*AR10, R42
		SNOP		5
		SMOVIL		-62, R46
		SMOVIL		-1, R47
		SADDA.M1		R47:R46,AR14,AR10
		SNOP		1
		SSTH		R42, *AR10
		SBR		.L71
		SNOP		6
.L70:
	.loc 1 240 0
		SMOVIL		-76, R46
		SMOVIL		-1, R47
		SADDA.M1		R47:R46,AR14,AR10
		SNOP		1
		SLDW		*AR10, R42
		SNOP		5
		SMOVIL		-62, R46
		SMOVIL		-1, R47
		SADDA.M1		R47:R46,AR14,AR10
		SNOP		1
		SSTH		R42, *AR10
.L71:
	.loc 1 241 0
		SMOVIL		-80, R42
		SMOVIL		-1, R43
		SADDA.M1		R43:R42,AR14,AR10
		SNOP		1
		SLDW		*AR10, R44
		SNOP		5
		SMOVIL		-80, R46
		SMOVIL		-1, R47
		SADDA.M1		R47:R46,AR14,AR10
		SNOP		1
		SLDW		*AR10, R42
		SNOP		5
		SSHFAR		31, R42, R42
		SMOV.M1		R42, R45
		SADD.M1		R44,R44,R42
		SLTU		R42, R44, R46
		SADD.M1		R45,R45,R43
		SADD.M1		R43,R46,R44
		SMOV.M1		R44, R43
		SADD.M1		R42,R42,R44
		SLTU		R44, R42, R46
		SADD.M1		R43,R43,R45
		SADD.M1		R45,R46,R42
		SMOV.M1		R42, R45
		SMOV.M1		R44, R42
		SMOV.M1		R45, R43
		SLDDW		*-AR14[15], R11:R10
		SNOP		5
		SMOVIL		0, R12
		SMOV.M1		R42, R14
		SMOV.M1		R43, R15
		SBR		memset
		SMOVIL		.L77, R62
		SMOVIH		.L77, R62
		SMOVIH4.L		.L77, R63
		SNOP		4
.L77:
	.loc 1 242 0
		SMOVIL		-62, R44
		SMOVIL		-1, R45
		SADDA.M1		R45:R44,AR14,AR10
		SNOP		1
		SLDH		*AR10, R42
		SNOP		5
		SADD.M1		-1,R42,R42
		SMOVIL		-58, R44
		SMOVIL		-1, R45
		SADDA.M1		R45:R44,AR14,AR10
		SNOP		1
		SSTH		R42, *AR10
		SBR		.L72
		SNOP		6
.L75:
	.loc 1 244 0
		SMOVIL		0, R42
		SMOVIH		0, R42
		SMOVIL		-68, R44
		SMOVIL		-1, R45
		SADDA.M1		R45:R44,AR14,AR10
		SNOP		1
		SSTW		R42, *AR10
	.loc 1 245 0
		SMOVIL		-58, R44
		SMOVIL		-1, R45
		SADDA.M1		R45:R44,AR14,AR10
		SNOP		1
		SLDH		*AR10, R42
		SNOP		5
		SADD.M1		1,R42,R42
		SMOVIL		-60, R44
		SMOVIL		-1, R45
		SADDA.M1		R45:R44,AR14,AR10
		SNOP		1
		SSTH		R42, *AR10
		SBR		.L73
		SNOP		6
.L74:
	.loc 1 247 0 discriminator 2
		SMOVIL		-60, R44
		SMOVIL		-1, R45
		SADDA.M1		R45:R44,AR14,AR10
		SNOP		1
		SLDH		*AR10, R42
		SNOP		5
		SSHFLL		16, R42, R42
		SSHFAR		16, R42, R42
		SMOVIL		-58, R44
		SMOVIL		-1, R45
		SADDA.M1		R45:R44,AR14,AR10
		SNOP		1
		SLDH		*AR10, R43
		SNOP		5
		SSHFLL		16, R43, R43
		SSHFAR		16, R43, R43
		SMOVIL		-80, R46
		SMOVIL		-1, R47
		SADDA.M1		R47:R46,AR14,AR10
		SNOP		1
		SLDW		*AR10, R44
		SNOP		5
		SMULIS.M1		R44,R43,R43
		SNOP		2
		SADD.M1		R43,R42,R42
		SMOV.M1		R42, R30
		SSHFAR		31, R42, R42
		SMOV.M1		R42, R31
		SADD.M1		R30,R30,R42
		SLTU		R42, R30, R44
		SADD.M1		R31,R31,R43
		SADD.M1		R43,R44,R44
		SMOV.M1		R44, R43
		SADD.M1		R42,R42,R44
		SLTU		R44, R42, R46
		SADD.M1		R43,R43,R45
		SADD.M1		R45,R46,R42
		SMOV.M1		R42, R45
		SMOV.M1		R44, R42
		SMOV.M1		R45, R43
	;no-op trunc di R43:R42 to pdi R43:R42
		SLDDW		*-AR14[12], R45:R44
		SNOP		5
		SMVAGA36.M1		R45:R44, OR11
		SNOP		1
		SADDA.M1		R43:R42,OR11,OR11
		SNOP		1
		SMVAAGL.M1		OR11, R43:R42
		SNOP		1
		SMVAAGH.M1		OR11, R43:R42
		SNOP		1
		SMVAGA36.M1		R43:R42, AR10
		SNOP		1
		SLDW		*AR10, R46
		SNOP		5
		SMOVIL		-60, R44
		SMOVIL		-1, R45
		SADDA.M1		R45:R44,AR14,AR10
		SNOP		1
		SLDH		*AR10, R42
		SNOP		5
		SSHFLL		16, R42, R42
		SSHFAR		16, R42, R42
		SMOV.M1		R42, R32
		SSHFAR		31, R42, R42
		SMOV.M1		R42, R33
		SADD.M1		R32,R32,R42
		SLTU		R42, R32, R44
		SADD.M1		R33,R33,R43
		SADD.M1		R43,R44,R44
		SMOV.M1		R44, R43
		SADD.M1		R42,R42,R44
		SLTU		R44, R42, R47
		SADD.M1		R43,R43,R45
		SADD.M1		R45,R47,R42
		SMOV.M1		R42, R45
		SMOV.M1		R44, R42
		SMOV.M1		R45, R43
	;no-op trunc di R43:R42 to pdi R43:R42
		SLDDW		*-AR14[15], R45:R44
		SNOP		5
		SMVAGA36.M1		R45:R44, OR11
		SNOP		1
		SADDA.M1		R43:R42,OR11,OR11
		SNOP		1
		SMVAAGL.M1		OR11, R43:R42
		SNOP		1
		SMVAAGH.M1		OR11, R43:R42
		SNOP		1
		SMVAGA36.M1		R43:R42, AR10
		SNOP		1
		SLDW		*AR10, R42
		SNOP		5
		SFMULS32.M1		R46, R42, R42
		SNOP		3
		SMOVIL		-68, R44
		SMOVIL		-1, R45
		SADDA.M1		R45:R44,AR14,AR10
		SNOP		1
		SLDW		*AR10, R43
		SNOP		5
		SFADDS32.M1		R43, R42, R42
		SNOP		2
		SMOVIL		-68, R44
		SMOVIL		-1, R45
		SADDA.M1		R45:R44,AR14,AR10
		SNOP		1
		SSTW		R42, *AR10
	.loc 1 245 0 discriminator 2
		SMOVIL		-60, R44
		SMOVIL		-1, R45
		SADDA.M1		R45:R44,AR14,AR10
		SNOP		1
		SLDH		*AR10, R42
		SNOP		5
		SADD.M1		1,R42,R42
		SMOVIL		-60, R44
		SMOVIL		-1, R45
		SADDA.M1		R45:R44,AR14,AR10
		SNOP		1
		SSTH		R42, *AR10
.L73:
	.loc 1 245 0 is_stmt 0 discriminator 1
		SMOVIL		-60, R44
		SMOVIL		-1, R45
		SADDA.M1		R45:R44,AR14,AR10
		SNOP		1
		SLDH		*AR10, R42
		SNOP		5
		SSHFLL		16, R42, R43
		SSHFAR		16, R43, R43
		SMOVIL		-62, R44
		SMOVIL		-1, R45
		SADDA.M1		R45:R44,AR14,AR10
		SNOP		1
		SLDH		*AR10, R42
		SNOP		5
		SSHFLL		16, R42, R42
		SSHFAR		16, R42, R42
		SLT		R43, R42, R42
		SMOV.M1		R42, R0
	[R0]	SBR		.L74
		SNOP		6
	.loc 1 249 0 is_stmt 1
		SMOVIL		-58, R44
		SMOVIL		-1, R45
		SADDA.M1		R45:R44,AR14,AR10
		SNOP		1
		SLDH		*AR10, R42
		SNOP		5
		SSHFLL		16, R42, R42
		SSHFAR		16, R42, R42
		SMOV.M1		R42, R34
		SSHFAR		31, R42, R42
		SMOV.M1		R42, R35
		SADD.M1		R34,R34,R42
		SLTU		R42, R34, R44
		SADD.M1		R35,R35,R43
		SADD.M1		R43,R44,R44
		SMOV.M1		R44, R43
		SADD.M1		R42,R42,R44
		SLTU		R44, R42, R46
		SADD.M1		R43,R43,R45
		SADD.M1		R45,R46,R42
		SMOV.M1		R42, R45
		SMOV.M1		R44, R42
		SMOV.M1		R45, R43
	;no-op trunc di R43:R42 to pdi R43:R42
		SLDDW		*-AR14[15], R45:R44
		SNOP		5
		SMVAGA36.M1		R45:R44, OR11
		SNOP		1
		SADDA.M1		R43:R42,OR11,OR11
		SNOP		1
		SMVAAGL.M1		OR11, R47:R46
		SNOP		1
		SMVAAGH.M1		OR11, R47:R46
		SNOP		1
		SMOVIL		-58, R44
		SMOVIL		-1, R45
		SADDA.M1		R45:R44,AR14,AR10
		SNOP		1
		SLDH		*AR10, R42
		SNOP		5
		SSHFLL		16, R42, R42
		SSHFAR		16, R42, R42
		SMOV.M1		R42, R36
		SSHFAR		31, R42, R42
		SMOV.M1		R42, R37
		SADD.M1		R36,R36,R42
		SLTU		R42, R36, R44
		SADD.M1		R37,R37,R43
		SADD.M1		R43,R44,R44
		SMOV.M1		R44, R43
		SADD.M1		R42,R42,R44
		SLTU		R44, R42, R48
		SADD.M1		R43,R43,R45
		SADD.M1		R45,R48,R42
		SMOV.M1		R42, R45
		SMOV.M1		R44, R42
		SMOV.M1		R45, R43
	;no-op trunc di R43:R42 to pdi R43:R42
		SLDDW		*-AR14[14], R45:R44
		SNOP		5
		SMVAGA36.M1		R45:R44, OR11
		SNOP		1
		SADDA.M1		R43:R42,OR11,OR11
		SNOP		1
		SMVAAGL.M1		OR11, R43:R42
		SNOP		1
		SMVAAGH.M1		OR11, R43:R42
		SNOP		1
		SMVAGA36.M1		R43:R42, AR10
		SNOP		1
		SLDW		*AR10, R43
		SNOP		5
		SMOVIL		-68, R44
		SMOVIL		-1, R45
		SADDA.M1		R45:R44,AR14,AR10
		SNOP		1
		SLDW		*AR10, R42
		SNOP		5
		SFSUBS32.M1		R42, R43, R48
		SNOP		2
		SMOVIL		-80, R44
		SMOVIL		-1, R45
		SADDA.M1		R45:R44,AR14,AR10
		SNOP		1
		SLDW		*AR10, R42
		SNOP		5
		SADD.M1		1,R42,R43
		SMOVIL		-58, R44
		SMOVIL		-1, R45
		SADDA.M1		R45:R44,AR14,AR10
		SNOP		1
		SLDH		*AR10, R42
		SNOP		5
		SSHFLL		16, R42, R42
		SSHFAR		16, R42, R42
		SMULIS.M1		R42,R43,R42
		SNOP		2
		SMOV.M1		R42, R38
		SSHFAR		31, R42, R42
		SMOV.M1		R42, R39
		SADD.M1		R38,R38,R42
		SLTU		R42, R38, R44
		SADD.M1		R39,R39,R43
		SADD.M1		R43,R44,R44
		SMOV.M1		R44, R43
		SADD.M1		R42,R42,R44
		SLTU		R44, R42, R49
		SADD.M1		R43,R43,R45
		SADD.M1		R45,R49,R42
		SMOV.M1		R42, R45
		SMOV.M1		R44, R42
		SMOV.M1		R45, R43
	;no-op trunc di R43:R42 to pdi R43:R42
		SLDDW		*-AR14[12], R45:R44
		SNOP		5
		SMVAGA36.M1		R45:R44, OR11
		SNOP		1
		SADDA.M1		R43:R42,OR11,OR11
		SNOP		1
		SMVAAGL.M1		OR11, R43:R42
		SNOP		1
		SMVAAGH.M1		OR11, R43:R42
		SNOP		1
		SMVAGA36.M1		R43:R42, AR10
		SNOP		1
		SLDW		*AR10, R43
		SNOP		5
		SMOVIL		1073741824, R45
		SMOVIH		1073741824, R45
		SFRCPS32.M1		R43, R42
		SFMULS32.M1		R43, R42, R44
		SNOP		3
		SFSUBS32.M1		R44, R45, R44
		SNOP		2
		SFMULS32.M1		R42, R44, R42
		SNOP		3
		SFMULS32.M1		R43, R42, R44
		SNOP		3
		SFSUBS32.M1		R44, R45, R44
		SNOP		2
		SFMULS32.M1		R42, R44, R42
		SNOP		3
		SFMULS32.M1		R48, R42, R42
		SNOP		3
		SMVAGA36.M1		R47:R46, AR10
		SNOP		1
		SSTW		R42, *AR10
	.loc 1 242 0
		SMOVIL		-58, R44
		SMOVIL		-1, R45
		SADDA.M1		R45:R44,AR14,AR10
		SNOP		1
		SLDH		*AR10, R42
		SNOP		5
		SADD.M1		-1,R42,R42
		SMOVIL		-58, R44
		SMOVIL		-1, R45
		SADDA.M1		R45:R44,AR14,AR10
		SNOP		1
		SSTH		R42, *AR10
.L72:
	.loc 1 242 0 is_stmt 0 discriminator 1
		SMOVIL		-58, R44
		SMOVIL		-1, R45
		SADDA.M1		R45:R44,AR14,AR10
		SNOP		1
		SLDH		*AR10, R42
		SNOP		5
		SSHFLL		16, R42, R42
		SSHFAR		16, R42, R42
		SMOVIL		0, R0
		SLT		R42, R0, R42
		SMOV.M1		R42, R0
	[!R0]	SBR		.L75
		SNOP		6
	.loc 1 252 0 is_stmt 1
		SMOVIL		0, R42
	.loc 1 253 0
		SMOV.M1		R42, R10
		SLDDW		*+AR15[9], R31:R30
		SNOP		5
		SLDDW		*+AR15[10], R33:R32
		SNOP		5
		SLDDW		*+AR15[11], R35:R34
		SNOP		5
		SLDDW		*+AR15[12], R37:R36
		SNOP		5
		SLDDW		*+AR15[13], R39:R38
		SNOP		5
		SLDDW		*+AR15[14], R63:R62
		SNOP		5
		SADDA.M1		-16,AR14,AR15
		SNOP		1
		SLDDW		*++AR15[2], R7:R6
		SNOP		5
		SMVAGA36.M1		R7:R6, AR14
		SNOP		1
		SMVCGC.L		R63, BRReg
		SNOP		1
		SBR		R62
		SNOP		6
	.cfi_endproc
.LFE2:
	.size	trival_qr_solver, .-trival_qr_solver
	.section	.text.trival_inverse,"ax",@progbits
	.align	2
	.global	trival_inverse
	.type	trival_inverse, @function
trival_inverse:
.LFB3:
	.loc 1 256 0
	.cfi_startproc
		SMVAAGL.M1		AR14, R7:R6
		SNOP		1
		SMVAAGH.M1		AR14, R7:R6
		SNOP		1
		SSTDW		R7:R6, *AR15--[2]
.LCFI6:
	.cfi_def_cfa_offset 16
	.cfi_offset 14, 0
		SADDA.M1		16,AR15,AR14
.LCFI7:
	.cfi_def_cfa 14, 0
		SNOP		1
		SMOVIL		-96, R6
		SMOVIL		-1, R7
		SADDA.M1		R7:R6,AR15,AR15
		SNOP		1
		SSTDW		R39:R38, *+AR15[12]
		SSTDW		R37:R36, *+AR15[11]
		SSTDW		R35:R34, *+AR15[10]
		SSTDW		R33:R32, *+AR15[9]
		SSTDW		R31:R30, *+AR15[8]
	.cfi_offset 54, -16
	.cfi_offset 55, -12
	.cfi_offset 52, -24
	.cfi_offset 53, -20
	.cfi_offset 50, -32
	.cfi_offset 51, -28
	.cfi_offset 48, -40
	.cfi_offset 49, -36
	.cfi_offset 46, -48
	.cfi_offset 47, -44
		SMOVIL		-76, R42
		SMOVIL		-1, R43
		SADDA.M1		R43:R42,AR14,AR10
		SNOP		1
		SSTW		R10, *AR10
		SMOVIL		-80, R42
		SMOVIL		-1, R43
		SADDA.M1		R43:R42,AR14,AR10
		SNOP		1
		SSTW		R12, *AR10
		SSTDW		R15:R14, *-AR14[11]
		SSTDW		R17:R16, *-AR14[12]
		SSTDW		R19:R18, *-AR14[13]
	.loc 1 262 0
		SMOVIL		0, R42
		SSTW		R42, *-AR14[13]
		SBR		.L79
		SNOP		6
.L84:
	.loc 1 264 0
		SMOVIL		0, R42
		SSTW		R42, *-AR14[14]
		SBR		.L80
		SNOP		6
.L83:
	.loc 1 266 0
		SLDW		*-AR14[13], R43
		SNOP		5
		SLDW		*-AR14[14], R42
		SNOP		5
		SEQ		R42, R43, R42
		SMOV.M1		R42, R0
	[!R0]	SBR		.L81
		SNOP		6
	.loc 1 267 0
		SLDW		*-AR14[13], R43
		SNOP		5
		SMOVIL		-80, R10
		SMOVIL		-1, R11
		SADDA.M1		R11:R10,AR14,AR10
		SNOP		1
		SLDW		*AR10, R42
		SNOP		5
		SMULIS.M1		R42,R43,R43
		SNOP		2
		SLDW		*-AR14[14], R42
		SNOP		5
		SADD.M1		R42,R43,R42
		SMOV.M1		R42, R36
		SSHFAR		31, R42, R42
		SMOV.M1		R42, R37
		SADD.M1		R36,R36,R42
		SLTU		R42, R36, R10
		SADD.M1		R37,R37,R43
		SADD.M1		R43,R10,R10
		SMOV.M1		R10, R43
		SADD.M1		R42,R42,R10
		SLTU		R10, R42, R12
		SADD.M1		R43,R43,R11
		SADD.M1		R11,R12,R42
		SMOV.M1		R42, R11
		SMOV.M1		R10, R42
		SMOV.M1		R11, R43
	;no-op trunc di R43:R42 to pdi R43:R42
		SLDDW		*-AR14[13], R11:R10
		SNOP		5
		SMVAGA36.M1		R11:R10, OR11
		SNOP		1
		SADDA.M1		R43:R42,OR11,OR11
		SNOP		1
		SMVAAGL.M1		OR11, R43:R42
		SNOP		1
		SMVAAGH.M1		OR11, R43:R42
		SNOP		1
		SMOVIL		1065353216, R10
		SMOVIH		1065353216, R10
		SMVAGA36.M1		R43:R42, AR10
		SNOP		1
		SSTW		R10, *AR10
		SBR		.L82
		SNOP		6
.L81:
	.loc 1 269 0
		SLDW		*-AR14[13], R43
		SNOP		5
		SMOVIL		-80, R10
		SMOVIL		-1, R11
		SADDA.M1		R11:R10,AR14,AR10
		SNOP		1
		SLDW		*AR10, R42
		SNOP		5
		SMULIS.M1		R42,R43,R43
		SNOP		2
		SLDW		*-AR14[14], R42
		SNOP		5
		SADD.M1		R42,R43,R42
		SMOV.M1		R42, R38
		SSHFAR		31, R42, R42
		SMOV.M1		R42, R39
		SADD.M1		R38,R38,R42
		SLTU		R42, R38, R10
		SADD.M1		R39,R39,R43
		SADD.M1		R43,R10,R10
		SMOV.M1		R10, R43
		SADD.M1		R42,R42,R10
		SLTU		R10, R42, R12
		SADD.M1		R43,R43,R11
		SADD.M1		R11,R12,R42
		SMOV.M1		R42, R11
		SMOV.M1		R10, R42
		SMOV.M1		R11, R43
	;no-op trunc di R43:R42 to pdi R43:R42
		SLDDW		*-AR14[13], R11:R10
		SNOP		5
		SMVAGA36.M1		R11:R10, OR11
		SNOP		1
		SADDA.M1		R43:R42,OR11,OR11
		SNOP		1
		SMVAAGL.M1		OR11, R43:R42
		SNOP		1
		SMVAAGH.M1		OR11, R43:R42
		SNOP		1
		SMOVIL		0, R10
		SMOVIH		0, R10
		SMVAGA36.M1		R43:R42, AR10
		SNOP		1
		SSTW		R10, *AR10
.L82:
	.loc 1 264 0
		SLDW		*-AR14[14], R42
		SNOP		5
		SADD.M1		1,R42,R42
		SSTW		R42, *-AR14[14]
.L80:
	.loc 1 264 0 is_stmt 0 discriminator 1
		SLDW		*-AR14[14], R43
		SNOP		5
		SMOVIL		-80, R10
		SMOVIL		-1, R11
		SADDA.M1		R11:R10,AR14,AR10
		SNOP		1
		SLDW		*AR10, R42
		SNOP		5
		SLT		R43, R42, R42
		SMOV.M1		R42, R0
	[R0]	SBR		.L83
		SNOP		6
	.loc 1 262 0 is_stmt 1
		SLDW		*-AR14[13], R42
		SNOP		5
		SADD.M1		1,R42,R42
		SSTW		R42, *-AR14[13]
.L79:
	.loc 1 262 0 is_stmt 0 discriminator 1
		SLDW		*-AR14[13], R43
		SNOP		5
		SMOVIL		-76, R10
		SMOVIL		-1, R11
		SADDA.M1		R11:R10,AR14,AR10
		SNOP		1
		SLDW		*AR10, R42
		SNOP		5
		SLT		R43, R42, R42
		SMOV.M1		R42, R0
	[R0]	SBR		.L84
		SNOP		6
	.loc 1 274 0 is_stmt 1
		SMOVIL		-80, R10
		SMOVIL		-1, R11
		SADDA.M1		R11:R10,AR14,AR10
		SNOP		1
		SLDW		*AR10, R42
		SNOP		5
		SADD.M1		-1,R42,R42
		SSTW		R42, *-AR14[14]
		SBR		.L85
		SNOP		6
.L90:
	.loc 1 276 0
		SLDW		*-AR14[14], R42
		SNOP		5
		SADD.M1		-1,R42,R42
		SSTW		R42, *-AR14[13]
		SBR		.L86
		SNOP		6
.L89:
	.loc 1 278 0
		SLDW		*-AR14[13], R43
		SNOP		5
		SMOVIL		-80, R10
		SMOVIL		-1, R11
		SADDA.M1		R11:R10,AR14,AR10
		SNOP		1
		SLDW		*AR10, R42
		SNOP		5
		SMULIS.M1		R42,R43,R43
		SNOP		2
		SLDW		*-AR14[14], R42
		SNOP		5
		SADD.M1		R42,R43,R42
		SMOV.M1		R42, R22
		SSHFAR		31, R42, R42
		SMOV.M1		R42, R23
		SADD.M1		R22,R22,R42
		SLTU		R42, R22, R10
		SADD.M1		R23,R23,R43
		SADD.M1		R43,R10,R10
		SMOV.M1		R10, R43
		SADD.M1		R42,R42,R10
		SLTU		R10, R42, R12
		SADD.M1		R43,R43,R11
		SADD.M1		R11,R12,R42
		SMOV.M1		R42, R11
		SMOV.M1		R10, R42
		SMOV.M1		R11, R43
	;no-op trunc di R43:R42 to pdi R43:R42
		SLDDW		*-AR14[12], R11:R10
		SNOP		5
		SMVAGA36.M1		R11:R10, OR11
		SNOP		1
		SADDA.M1		R43:R42,OR11,OR11
		SNOP		1
		SMVAAGL.M1		OR11, R43:R42
		SNOP		1
		SMVAAGH.M1		OR11, R43:R42
		SNOP		1
		SMVAGA36.M1		R43:R42, AR10
		SNOP		1
		SLDW		*AR10, R12
		SNOP		5
		SMOVIL		-80, R10
		SMOVIL		-1, R11
		SADDA.M1		R11:R10,AR14,AR10
		SNOP		1
		SLDW		*AR10, R42
		SNOP		5
		SADD.M1		1,R42,R43
		SLDW		*-AR14[14], R42
		SNOP		5
		SMULIS.M1		R42,R43,R42
		SNOP		2
		SMOV.M1		R42, R24
		SSHFAR		31, R42, R42
		SMOV.M1		R42, R25
		SADD.M1		R24,R24,R42
		SLTU		R42, R24, R10
		SADD.M1		R25,R25,R43
		SADD.M1		R43,R10,R10
		SMOV.M1		R10, R43
		SADD.M1		R42,R42,R10
		SLTU		R10, R42, R13
		SADD.M1		R43,R43,R11
		SADD.M1		R11,R13,R42
		SMOV.M1		R42, R11
		SMOV.M1		R10, R42
		SMOV.M1		R11, R43
	;no-op trunc di R43:R42 to pdi R43:R42
		SLDDW		*-AR14[12], R11:R10
		SNOP		5
		SMVAGA36.M1		R11:R10, OR11
		SNOP		1
		SADDA.M1		R43:R42,OR11,OR11
		SNOP		1
		SMVAAGL.M1		OR11, R43:R42
		SNOP		1
		SMVAAGH.M1		OR11, R43:R42
		SNOP		1
		SMVAGA36.M1		R43:R42, AR10
		SNOP		1
		SLDW		*AR10, R43
		SNOP		5
		SMOVIL		1073741824, R11
		SMOVIH		1073741824, R11
		SFRCPS32.M1		R43, R42
		SFMULS32.M1		R43, R42, R10
		SNOP		3
		SFSUBS32.M1		R10, R11, R10
		SNOP		2
		SFMULS32.M1		R42, R10, R42
		SNOP		3
		SFMULS32.M1		R43, R42, R10
		SNOP		3
		SFSUBS32.M1		R10, R11, R10
		SNOP		2
		SFMULS32.M1		R42, R10, R42
		SNOP		3
		SFMULS32.M1		R12, R42, R42
		SNOP		3
		SMOVIL		-68, R10
		SMOVIL		-1, R11
		SADDA.M1		R11:R10,AR14,AR10
		SNOP		1
		SSTW		R42, *AR10
	.loc 1 279 0
		SMOVIL		0, R42
		SSTW		R42, *-AR14[15]
		SBR		.L87
		SNOP		6
.L88:
	.loc 1 281 0 discriminator 2
		SLDW		*-AR14[13], R43
		SNOP		5
		SMOVIL		-80, R10
		SMOVIL		-1, R11
		SADDA.M1		R11:R10,AR14,AR10
		SNOP		1
		SLDW		*AR10, R42
		SNOP		5
		SMULIS.M1		R42,R43,R43
		SNOP		2
		SLDW		*-AR14[15], R42
		SNOP		5
		SADD.M1		R42,R43,R42
		SMOV.M1		R42, R26
		SSHFAR		31, R42, R42
		SMOV.M1		R42, R27
		SADD.M1		R26,R26,R42
		SLTU		R42, R26, R10
		SADD.M1		R27,R27,R43
		SADD.M1		R43,R10,R10
		SMOV.M1		R10, R43
		SADD.M1		R42,R42,R10
		SLTU		R10, R42, R12
		SADD.M1		R43,R43,R11
		SADD.M1		R11,R12,R42
		SMOV.M1		R42, R11
		SMOV.M1		R10, R42
		SMOV.M1		R11, R43
	;no-op trunc di R43:R42 to pdi R43:R42
		SLDDW		*-AR14[13], R11:R10
		SNOP		5
		SMVAGA36.M1		R11:R10, OR11
		SNOP		1
		SADDA.M1		R43:R42,OR11,OR11
		SNOP		1
		SMVAAGL.M1		OR11, R13:R12
		SNOP		1
		SMVAAGH.M1		OR11, R13:R12
		SNOP		1
		SLDW		*-AR14[13], R43
		SNOP		5
		SMOVIL		-80, R10
		SMOVIL		-1, R11
		SADDA.M1		R11:R10,AR14,AR10
		SNOP		1
		SLDW		*AR10, R42
		SNOP		5
		SMULIS.M1		R42,R43,R43
		SNOP		2
		SLDW		*-AR14[15], R42
		SNOP		5
		SADD.M1		R42,R43,R42
		SMOV.M1		R42, R28
		SSHFAR		31, R42, R42
		SMOV.M1		R42, R29
		SADD.M1		R28,R28,R42
		SLTU		R42, R28, R10
		SADD.M1		R29,R29,R43
		SADD.M1		R43,R10,R10
		SMOV.M1		R10, R43
		SADD.M1		R42,R42,R10
		SLTU		R10, R42, R14
		SADD.M1		R43,R43,R11
		SADD.M1		R11,R14,R42
		SMOV.M1		R42, R11
		SMOV.M1		R10, R42
		SMOV.M1		R11, R43
	;no-op trunc di R43:R42 to pdi R43:R42
		SLDDW		*-AR14[13], R11:R10
		SNOP		5
		SMVAGA36.M1		R11:R10, OR11
		SNOP		1
		SADDA.M1		R43:R42,OR11,OR11
		SNOP		1
		SMVAAGL.M1		OR11, R43:R42
		SNOP		1
		SMVAAGH.M1		OR11, R43:R42
		SNOP		1
		SMVAGA36.M1		R43:R42, AR10
		SNOP		1
		SLDW		*AR10, R14
		SNOP		5
		SLDW		*-AR14[14], R43
		SNOP		5
		SMOVIL		-80, R10
		SMOVIL		-1, R11
		SADDA.M1		R11:R10,AR14,AR10
		SNOP		1
		SLDW		*AR10, R42
		SNOP		5
		SMULIS.M1		R42,R43,R43
		SNOP		2
		SLDW		*-AR14[15], R42
		SNOP		5
		SADD.M1		R42,R43,R42
		SMOV.M1		R42, R8
		SSHFAR		31, R42, R42
		SMOV.M1		R42, R9
		SADD.M1		R8,R8,R42
		SLTU		R42, R8, R10
		SADD.M1		R9,R9,R43
		SADD.M1		R43,R10,R10
		SMOV.M1		R10, R43
		SADD.M1		R42,R42,R10
		SLTU		R10, R42, R15
		SADD.M1		R43,R43,R11
		SADD.M1		R11,R15,R42
		SMOV.M1		R42, R11
		SMOV.M1		R10, R42
		SMOV.M1		R11, R43
	;no-op trunc di R43:R42 to pdi R43:R42
		SLDDW		*-AR14[13], R11:R10
		SNOP		5
		SMVAGA36.M1		R11:R10, OR11
		SNOP		1
		SADDA.M1		R43:R42,OR11,OR11
		SNOP		1
		SMVAAGL.M1		OR11, R43:R42
		SNOP		1
		SMVAAGH.M1		OR11, R43:R42
		SNOP		1
		SMVAGA36.M1		R43:R42, AR10
		SNOP		1
		SLDW		*AR10, R43
		SNOP		5
		SMOVIL		-68, R10
		SMOVIL		-1, R11
		SADDA.M1		R11:R10,AR14,AR10
		SNOP		1
		SLDW		*AR10, R42
		SNOP		5
		SFMULS32.M1		R43, R42, R42
		SNOP		3
		SFSUBS32.M1		R42, R14, R42
		SNOP		2
		SMVAGA36.M1		R13:R12, AR10
		SNOP		1
		SSTW		R42, *AR10
	.loc 1 282 0 discriminator 2
		SLDW		*-AR14[13], R43
		SNOP		5
		SMOVIL		-80, R10
		SMOVIL		-1, R11
		SADDA.M1		R11:R10,AR14,AR10
		SNOP		1
		SLDW		*AR10, R42
		SNOP		5
		SMULIS.M1		R42,R43,R43
		SNOP		2
		SLDW		*-AR14[15], R42
		SNOP		5
		SADD.M1		R42,R43,R42
		SMOV.M1		R42, R30
		SSHFAR		31, R42, R42
		SMOV.M1		R42, R31
		SADD.M1		R30,R30,R42
		SLTU		R42, R30, R10
		SADD.M1		R31,R31,R43
		SADD.M1		R43,R10,R10
		SMOV.M1		R10, R43
		SADD.M1		R42,R42,R10
		SLTU		R10, R42, R12
		SADD.M1		R43,R43,R11
		SADD.M1		R11,R12,R42
		SMOV.M1		R42, R11
		SMOV.M1		R10, R42
		SMOV.M1		R11, R43
	;no-op trunc di R43:R42 to pdi R43:R42
		SLDDW		*-AR14[12], R11:R10
		SNOP		5
		SMVAGA36.M1		R11:R10, OR11
		SNOP		1
		SADDA.M1		R43:R42,OR11,OR11
		SNOP		1
		SMVAAGL.M1		OR11, R13:R12
		SNOP		1
		SMVAAGH.M1		OR11, R13:R12
		SNOP		1
		SLDW		*-AR14[13], R43
		SNOP		5
		SMOVIL		-80, R10
		SMOVIL		-1, R11
		SADDA.M1		R11:R10,AR14,AR10
		SNOP		1
		SLDW		*AR10, R42
		SNOP		5
		SMULIS.M1		R42,R43,R43
		SNOP		2
		SLDW		*-AR14[15], R42
		SNOP		5
		SADD.M1		R42,R43,R42
		SMOV.M1		R42, R32
		SSHFAR		31, R42, R42
		SMOV.M1		R42, R33
		SADD.M1		R32,R32,R42
		SLTU		R42, R32, R10
		SADD.M1		R33,R33,R43
		SADD.M1		R43,R10,R10
		SMOV.M1		R10, R43
		SADD.M1		R42,R42,R10
		SLTU		R10, R42, R14
		SADD.M1		R43,R43,R11
		SADD.M1		R11,R14,R42
		SMOV.M1		R42, R11
		SMOV.M1		R10, R42
		SMOV.M1		R11, R43
	;no-op trunc di R43:R42 to pdi R43:R42
		SLDDW		*-AR14[12], R11:R10
		SNOP		5
		SMVAGA36.M1		R11:R10, OR11
		SNOP		1
		SADDA.M1		R43:R42,OR11,OR11
		SNOP		1
		SMVAAGL.M1		OR11, R43:R42
		SNOP		1
		SMVAAGH.M1		OR11, R43:R42
		SNOP		1
		SMVAGA36.M1		R43:R42, AR10
		SNOP		1
		SLDW		*AR10, R14
		SNOP		5
		SLDW		*-AR14[14], R43
		SNOP		5
		SMOVIL		-80, R10
		SMOVIL		-1, R11
		SADDA.M1		R11:R10,AR14,AR10
		SNOP		1
		SLDW		*AR10, R42
		SNOP		5
		SMULIS.M1		R42,R43,R43
		SNOP		2
		SLDW		*-AR14[15], R42
		SNOP		5
		SADD.M1		R42,R43,R42
		SMOV.M1		R42, R34
		SSHFAR		31, R42, R42
		SMOV.M1		R42, R35
		SADD.M1		R34,R34,R42
		SLTU		R42, R34, R10
		SADD.M1		R35,R35,R43
		SADD.M1		R43,R10,R10
		SMOV.M1		R10, R43
		SADD.M1		R42,R42,R10
		SLTU		R10, R42, R15
		SADD.M1		R43,R43,R11
		SADD.M1		R11,R15,R42
		SMOV.M1		R42, R11
		SMOV.M1		R10, R42
		SMOV.M1		R11, R43
	;no-op trunc di R43:R42 to pdi R43:R42
		SLDDW		*-AR14[12], R11:R10
		SNOP		5
		SMVAGA36.M1		R11:R10, OR11
		SNOP		1
		SADDA.M1		R43:R42,OR11,OR11
		SNOP		1
		SMVAAGL.M1		OR11, R43:R42
		SNOP		1
		SMVAAGH.M1		OR11, R43:R42
		SNOP		1
		SMVAGA36.M1		R43:R42, AR10
		SNOP		1
		SLDW		*AR10, R43
		SNOP		5
		SMOVIL		-68, R10
		SMOVIL		-1, R11
		SADDA.M1		R11:R10,AR14,AR10
		SNOP		1
		SLDW		*AR10, R42
		SNOP		5
		SFMULS32.M1		R43, R42, R42
		SNOP		3
		SFSUBS32.M1		R42, R14, R42
		SNOP		2
		SMVAGA36.M1		R13:R12, AR10
		SNOP		1
		SSTW		R42, *AR10
	.loc 1 279 0 discriminator 2
		SLDW		*-AR14[15], R42
		SNOP		5
		SADD.M1		1,R42,R42
		SSTW		R42, *-AR14[15]
.L87:
	.loc 1 279 0 is_stmt 0 discriminator 1
		SLDW		*-AR14[15], R43
		SNOP		5
		SMOVIL		-80, R10
		SMOVIL		-1, R11
		SADDA.M1		R11:R10,AR14,AR10
		SNOP		1
		SLDW		*AR10, R42
		SNOP		5
		SLT		R43, R42, R42
		SMOV.M1		R42, R0
	[R0]	SBR		.L88
		SNOP		6
	.loc 1 276 0 is_stmt 1
		SLDW		*-AR14[13], R42
		SNOP		5
		SADD.M1		-1,R42,R42
		SSTW		R42, *-AR14[13]
.L86:
	.loc 1 276 0 is_stmt 0 discriminator 1
		SLDW		*-AR14[13], R42
		SNOP		5
		SMOVIL		0, R10
		SLT		R42, R10, R42
		SMOV.M1		R42, R0
	[!R0]	SBR		.L89
		SNOP		6
	.loc 1 274 0 is_stmt 1
		SLDW		*-AR14[14], R42
		SNOP		5
		SADD.M1		-1,R42,R42
		SSTW		R42, *-AR14[14]
.L85:
	.loc 1 274 0 is_stmt 0 discriminator 1
		SLDW		*-AR14[14], R42
		SNOP		5
		SMOVIL		0, R10
		SLT		R10, R42, R42
		SMOV.M1		R42, R0
	[R0]	SBR		.L90
		SNOP		6
	.loc 1 288 0 is_stmt 1
		SMOVIL		-76, R10
		SMOVIL		-1, R11
		SADDA.M1		R11:R10,AR14,AR10
		SNOP		1
		SLDW		*AR10, R42
		SNOP		5
		SADD.M1		-1,R42,R42
		SSTW		R42, *-AR14[13]
		SBR		.L91
		SNOP		6
.L94:
	.loc 1 290 0
		SMOVIL		-80, R54
		SMOVIL		-1, R55
		SADDA.M1		R55:R54,AR14,AR10
		SNOP		1
		SLDW		*AR10, R42
		SNOP		5
		SADD.M1		1,R42,R43
		SLDW		*-AR14[13], R42
		SNOP		5
		SMULIS.M1		R42,R43,R42
		SNOP		2
		SMOV.M1		R42, R54
		SSHFAR		31, R42, R42
		SMOV.M1		R42, R55
		SADD.M1		R54,R54,R42
		SLTU		R42, R54, R10
		SADD.M1		R55,R55,R43
		SADD.M1		R43,R10,R10
		SMOV.M1		R10, R43
		SADD.M1		R42,R42,R10
		SLTU		R10, R42, R12
		SADD.M1		R43,R43,R11
		SADD.M1		R11,R12,R42
		SMOV.M1		R42, R11
		SMOV.M1		R10, R42
		SMOV.M1		R11, R43
	;no-op trunc di R43:R42 to pdi R43:R42
		SLDDW		*-AR14[12], R11:R10
		SNOP		5
		SMVAGA36.M1		R11:R10, OR11
		SNOP		1
		SADDA.M1		R43:R42,OR11,OR11
		SNOP		1
		SMVAAGL.M1		OR11, R43:R42
		SNOP		1
		SMVAAGH.M1		OR11, R43:R42
		SNOP		1
		SMVAGA36.M1		R43:R42, AR10
		SNOP		1
		SLDW		*AR10, R42
		SNOP		5
		SMOVIL		-68, R10
		SMOVIL		-1, R11
		SADDA.M1		R11:R10,AR14,AR10
		SNOP		1
		SSTW		R42, *AR10
	.loc 1 291 0
		SMOVIL		0, R42
		SSTW		R42, *-AR14[14]
		SBR		.L92
		SNOP		6
.L93:
	.loc 1 293 0 discriminator 2
		SLDW		*-AR14[13], R43
		SNOP		5
		SMOVIL		-80, R56
		SMOVIL		-1, R57
		SADDA.M1		R57:R56,AR14,AR10
		SNOP		1
		SLDW		*AR10, R42
		SNOP		5
		SMULIS.M1		R42,R43,R43
		SNOP		2
		SLDW		*-AR14[14], R42
		SNOP		5
		SADD.M1		R42,R43,R42
		SMOV.M1		R42, R56
		SSHFAR		31, R42, R42
		SMOV.M1		R42, R57
		SADD.M1		R56,R56,R42
		SLTU		R42, R56, R10
		SADD.M1		R57,R57,R43
		SADD.M1		R43,R10,R10
		SMOV.M1		R10, R43
		SADD.M1		R42,R42,R10
		SLTU		R10, R42, R12
		SADD.M1		R43,R43,R11
		SADD.M1		R11,R12,R42
		SMOV.M1		R42, R11
		SMOV.M1		R10, R42
		SMOV.M1		R11, R43
	;no-op trunc di R43:R42 to pdi R43:R42
		SLDDW		*-AR14[13], R11:R10
		SNOP		5
		SMVAGA36.M1		R11:R10, OR11
		SNOP		1
		SADDA.M1		R43:R42,OR11,OR11
		SNOP		1
		SMVAAGL.M1		OR11, R13:R12
		SNOP		1
		SMVAAGH.M1		OR11, R13:R12
		SNOP		1
		SLDW		*-AR14[13], R43
		SNOP		5
		SMOVIL		-80, R58
		SMOVIL		-1, R59
		SADDA.M1		R59:R58,AR14,AR10
		SNOP		1
		SLDW		*AR10, R42
		SNOP		5
		SMULIS.M1		R42,R43,R43
		SNOP		2
		SLDW		*-AR14[14], R42
		SNOP		5
		SADD.M1		R42,R43,R42
		SMOV.M1		R42, R58
		SSHFAR		31, R42, R42
		SMOV.M1		R42, R59
		SADD.M1		R58,R58,R42
		SLTU		R42, R58, R10
		SADD.M1		R59,R59,R43
		SADD.M1		R43,R10,R10
		SMOV.M1		R10, R43
		SADD.M1		R42,R42,R10
		SLTU		R10, R42, R14
		SADD.M1		R43,R43,R11
		SADD.M1		R11,R14,R42
		SMOV.M1		R42, R11
		SMOV.M1		R10, R42
		SMOV.M1		R11, R43
	;no-op trunc di R43:R42 to pdi R43:R42
		SLDDW		*-AR14[13], R11:R10
		SNOP		5
		SMVAGA36.M1		R11:R10, OR11
		SNOP		1
		SADDA.M1		R43:R42,OR11,OR11
		SNOP		1
		SMVAAGL.M1		OR11, R43:R42
		SNOP		1
		SMVAAGH.M1		OR11, R43:R42
		SNOP		1
		SMVAGA36.M1		R43:R42, AR10
		SNOP		1
		SLDW		*AR10, R14
		SNOP		5
		SMOVIL		-68, R60
		SMOVIL		-1, R61
		SADDA.M1		R61:R60,AR14,AR10
		SNOP		1
		SLDW		*AR10, R43
		SNOP		5
		SMOVIL		1073741824, R11
		SMOVIH		1073741824, R11
		SFRCPS32.M1		R43, R42
		SFMULS32.M1		R43, R42, R10
		SNOP		3
		SFSUBS32.M1		R10, R11, R10
		SNOP		2
		SFMULS32.M1		R42, R10, R42
		SNOP		3
		SFMULS32.M1		R43, R42, R10
		SNOP		3
		SFSUBS32.M1		R10, R11, R10
		SNOP		2
		SFMULS32.M1		R42, R10, R42
		SNOP		3
		SFMULS32.M1		R14, R42, R42
		SNOP		3
		SMVAGA36.M1		R13:R12, AR10
		SNOP		1
		SSTW		R42, *AR10
	.loc 1 294 0 discriminator 2
		SLDW		*-AR14[13], R43
		SNOP		5
		SMOVIL		-80, R60
		SMOVIL		-1, R61
		SADDA.M1		R61:R60,AR14,AR10
		SNOP		1
		SLDW		*AR10, R42
		SNOP		5
		SMULIS.M1		R42,R43,R43
		SNOP		2
		SLDW		*-AR14[14], R42
		SNOP		5
		SADD.M1		R42,R43,R42
		SMOV.M1		R42, R60
		SSHFAR		31, R42, R42
		SMOV.M1		R42, R61
		SADD.M1		R60,R60,R42
		SLTU		R42, R60, R10
		SADD.M1		R61,R61,R43
		SADD.M1		R43,R10,R10
		SMOV.M1		R10, R43
		SADD.M1		R42,R42,R10
		SLTU		R10, R42, R12
		SADD.M1		R43,R43,R11
		SADD.M1		R11,R12,R42
		SMOV.M1		R42, R11
		SMOV.M1		R10, R42
		SMOV.M1		R11, R43
	;no-op trunc di R43:R42 to pdi R43:R42
		SLDDW		*-AR14[12], R11:R10
		SNOP		5
		SMVAGA36.M1		R11:R10, OR11
		SNOP		1
		SADDA.M1		R43:R42,OR11,OR11
		SNOP		1
		SMVAAGL.M1		OR11, R13:R12
		SNOP		1
		SMVAAGH.M1		OR11, R13:R12
		SNOP		1
		SLDW		*-AR14[13], R43
		SNOP		5
		SMOVIL		-80, R10
		SMOVIL		-1, R11
		SADDA.M1		R11:R10,AR14,AR10
		SNOP		1
		SLDW		*AR10, R42
		SNOP		5
		SMULIS.M1		R42,R43,R43
		SNOP		2
		SLDW		*-AR14[14], R42
		SNOP		5
		SADD.M1		R42,R43,R42
		SMOV.M1		R42, R20
		SSHFAR		31, R42, R42
		SMOV.M1		R42, R21
		SADD.M1		R20,R20,R42
		SLTU		R42, R20, R10
		SADD.M1		R21,R21,R43
		SADD.M1		R43,R10,R10
		SMOV.M1		R10, R43
		SADD.M1		R42,R42,R10
		SLTU		R10, R42, R14
		SADD.M1		R43,R43,R11
		SADD.M1		R11,R14,R42
		SMOV.M1		R42, R11
		SMOV.M1		R10, R42
		SMOV.M1		R11, R43
	;no-op trunc di R43:R42 to pdi R43:R42
		SLDDW		*-AR14[12], R11:R10
		SNOP		5
		SMVAGA36.M1		R11:R10, OR11
		SNOP		1
		SADDA.M1		R43:R42,OR11,OR11
		SNOP		1
		SMVAAGL.M1		OR11, R43:R42
		SNOP		1
		SMVAAGH.M1		OR11, R43:R42
		SNOP		1
		SMVAGA36.M1		R43:R42, AR10
		SNOP		1
		SLDW		*AR10, R14
		SNOP		5
		SMOVIL		-68, R10
		SMOVIL		-1, R11
		SADDA.M1		R11:R10,AR14,AR10
		SNOP		1
		SLDW		*AR10, R43
		SNOP		5
		SMOVIL		1073741824, R11
		SMOVIH		1073741824, R11
		SFRCPS32.M1		R43, R42
		SFMULS32.M1		R43, R42, R10
		SNOP		3
		SFSUBS32.M1		R10, R11, R10
		SNOP		2
		SFMULS32.M1		R42, R10, R42
		SNOP		3
		SFMULS32.M1		R43, R42, R10
		SNOP		3
		SFSUBS32.M1		R10, R11, R10
		SNOP		2
		SFMULS32.M1		R42, R10, R42
		SNOP		3
		SFMULS32.M1		R14, R42, R42
		SNOP		3
		SMVAGA36.M1		R13:R12, AR10
		SNOP		1
		SSTW		R42, *AR10
	.loc 1 291 0 discriminator 2
		SLDW		*-AR14[14], R42
		SNOP		5
		SADD.M1		1,R42,R42
		SSTW		R42, *-AR14[14]
.L92:
	.loc 1 291 0 is_stmt 0 discriminator 1
		SLDW		*-AR14[14], R43
		SNOP		5
		SMOVIL		-80, R10
		SMOVIL		-1, R11
		SADDA.M1		R11:R10,AR14,AR10
		SNOP		1
		SLDW		*AR10, R42
		SNOP		5
		SLT		R43, R42, R42
		SMOV.M1		R42, R0
	[R0]	SBR		.L93
		SNOP		6
	.loc 1 288 0 is_stmt 1
		SLDW		*-AR14[13], R42
		SNOP		5
		SADD.M1		-1,R42,R42
		SSTW		R42, *-AR14[13]
.L91:
	.loc 1 288 0 is_stmt 0 discriminator 1
		SLDW		*-AR14[13], R42
		SNOP		5
		SMOVIL		0, R10
		SLT		R42, R10, R42
		SMOV.M1		R42, R0
	[!R0]	SBR		.L94
		SNOP		6
	.loc 1 299 0 is_stmt 1
		SMOVIL		0, R42
		SSTW		R42, *-AR14[13]
		SBR		.L95
		SNOP		6
.L102:
	.loc 1 301 0
		SMOVIL		0, R42
		SSTW		R42, *-AR14[14]
		SBR		.L96
		SNOP		6
.L99:
	.loc 1 303 0
		SMOVIL		0, R42
		SMOVIH		0, R42
		SMOVIL		-64, R54
		SMOVIL		-1, R55
		SADDA.M1		R55:R54,AR14,AR10
		SNOP		1
		SSTW		R42, *AR10
	.loc 1 304 0
		SMOVIL		0, R42
		SSTW		R42, *-AR14[15]
		SBR		.L97
		SNOP		6
.L98:
	.loc 1 306 0 discriminator 2
		SLDW		*-AR14[13], R43
		SNOP		5
		SMOVIL		-80, R44
		SMOVIL		-1, R45
		SADDA.M1		R45:R44,AR14,AR10
		SNOP		1
		SLDW		*AR10, R42
		SNOP		5
		SMULIS.M1		R42,R43,R43
		SNOP		2
		SLDW		*-AR14[15], R42
		SNOP		5
		SADD.M1		R42,R43,R42
		SMOV.M1		R42, R44
		SSHFAR		31, R42, R42
		SMOV.M1		R42, R45
		SADD.M1		R44,R44,R42
		SLTU		R42, R44, R54
		SADD.M1		R45,R45,R43
		SADD.M1		R43,R54,R54
		SMOV.M1		R54, R43
		SADD.M1		R42,R42,R54
		SLTU		R54, R42, R56
		SADD.M1		R43,R43,R55
		SADD.M1		R55,R56,R42
		SMOV.M1		R42, R55
		SMOV.M1		R54, R42
		SMOV.M1		R55, R43
	;no-op trunc di R43:R42 to pdi R43:R42
		SLDDW		*-AR14[13], R55:R54
		SNOP		5
		SMVAGA36.M1		R55:R54, OR11
		SNOP		1
		SADDA.M1		R43:R42,OR11,OR11
		SNOP		1
		SMVAAGL.M1		OR11, R43:R42
		SNOP		1
		SMVAAGH.M1		OR11, R43:R42
		SNOP		1
		SMVAGA36.M1		R43:R42, AR10
		SNOP		1
		SLDW		*AR10, R56
		SNOP		5
		SLDW		*-AR14[14], R43
		SNOP		5
		SMOVIL		-80, R46
		SMOVIL		-1, R47
		SADDA.M1		R47:R46,AR14,AR10
		SNOP		1
		SLDW		*AR10, R42
		SNOP		5
		SMULIS.M1		R42,R43,R43
		SNOP		2
		SLDW		*-AR14[15], R42
		SNOP		5
		SADD.M1		R42,R43,R42
		SMOV.M1		R42, R46
		SSHFAR		31, R42, R42
		SMOV.M1		R42, R47
		SADD.M1		R46,R46,R42
		SLTU		R42, R46, R54
		SADD.M1		R47,R47,R43
		SADD.M1		R43,R54,R54
		SMOV.M1		R54, R43
		SADD.M1		R42,R42,R54
		SLTU		R54, R42, R57
		SADD.M1		R43,R43,R55
		SADD.M1		R55,R57,R42
		SMOV.M1		R42, R55
		SMOV.M1		R54, R42
		SMOV.M1		R55, R43
	;no-op trunc di R43:R42 to pdi R43:R42
		SLDDW		*-AR14[11], R55:R54
		SNOP		5
		SMVAGA36.M1		R55:R54, OR11
		SNOP		1
		SADDA.M1		R43:R42,OR11,OR11
		SNOP		1
		SMVAAGL.M1		OR11, R43:R42
		SNOP		1
		SMVAAGH.M1		OR11, R43:R42
		SNOP		1
		SMVAGA36.M1		R43:R42, AR10
		SNOP		1
		SLDW		*AR10, R42
		SNOP		5
		SFMULS32.M1		R56, R42, R42
		SNOP		3
		SMOVIL		-64, R54
		SMOVIL		-1, R55
		SADDA.M1		R55:R54,AR14,AR10
		SNOP		1
		SLDW		*AR10, R43
		SNOP		5
		SFADDS32.M1		R43, R42, R42
		SNOP		2
		SMOVIL		-64, R54
		SMOVIL		-1, R55
		SADDA.M1		R55:R54,AR14,AR10
		SNOP		1
		SSTW		R42, *AR10
	.loc 1 304 0 discriminator 2
		SLDW		*-AR14[15], R42
		SNOP		5
		SADD.M1		1,R42,R42
		SSTW		R42, *-AR14[15]
.L97:
	.loc 1 304 0 is_stmt 0 discriminator 1
		SLDW		*-AR14[15], R43
		SNOP		5
		SMOVIL		-80, R54
		SMOVIL		-1, R55
		SADDA.M1		R55:R54,AR14,AR10
		SNOP		1
		SLDW		*AR10, R42
		SNOP		5
		SLT		R43, R42, R42
		SMOV.M1		R42, R0
	[R0]	SBR		.L98
		SNOP		6
	.loc 1 308 0 is_stmt 1
		SLDW		*-AR14[14], R48
		SNOP		5
		SLDW		*-AR14[14], R42
		SNOP		5
		SSHFAR		31, R42, R42
		SMOV.M1		R42, R49
		SADD.M1		R48,R48,R42
		SLTU		R42, R48, R54
		SADD.M1		R49,R49,R43
		SADD.M1		R43,R54,R54
		SMOV.M1		R54, R43
		SADD.M1		R42,R42,R54
		SLTU		R54, R42, R56
		SADD.M1		R43,R43,R55
		SADD.M1		R55,R56,R42
		SMOV.M1		R42, R55
		SMOV.M1		R54, R42
		SMOV.M1		R55, R43
	;no-op trunc di R43:R42 to pdi R43:R42
		SLDDW		*-AR14[12], R55:R54
		SNOP		5
		SMVAGA36.M1		R55:R54, OR11
		SNOP		1
		SADDA.M1		R43:R42,OR11,OR11
		SNOP		1
		SMVAAGL.M1		OR11, R43:R42
		SNOP		1
		SMVAAGH.M1		OR11, R43:R42
		SNOP		1
		SMOVIL		-64, R56
		SMOVIL		-1, R57
		SADDA.M1		R57:R56,AR14,AR10
		SNOP		1
		SLDW		*AR10, R54
		SNOP		5
		SMVAGA36.M1		R43:R42, AR10
		SNOP		1
		SSTW		R54, *AR10
	.loc 1 301 0
		SLDW		*-AR14[14], R42
		SNOP		5
		SADD.M1		1,R42,R42
		SSTW		R42, *-AR14[14]
.L96:
	.loc 1 301 0 is_stmt 0 discriminator 1
		SLDW		*-AR14[14], R43
		SNOP		5
		SMOVIL		-80, R54
		SMOVIL		-1, R55
		SADDA.M1		R55:R54,AR14,AR10
		SNOP		1
		SLDW		*AR10, R42
		SNOP		5
		SLT		R43, R42, R42
		SMOV.M1		R42, R0
	[R0]	SBR		.L99
		SNOP		6
	.loc 1 310 0 is_stmt 1
		SMOVIL		0, R42
		SSTW		R42, *-AR14[14]
		SBR		.L100
		SNOP		6
.L101:
	.loc 1 312 0 discriminator 2
		SLDW		*-AR14[13], R43
		SNOP		5
		SMOVIL		-80, R50
		SMOVIL		-1, R51
		SADDA.M1		R51:R50,AR14,AR10
		SNOP		1
		SLDW		*AR10, R42
		SNOP		5
		SMULIS.M1		R42,R43,R43
		SNOP		2
		SLDW		*-AR14[14], R42
		SNOP		5
		SADD.M1		R42,R43,R42
		SMOV.M1		R42, R50
		SSHFAR		31, R42, R42
		SMOV.M1		R42, R51
		SADD.M1		R50,R50,R42
		SLTU		R42, R50, R54
		SADD.M1		R51,R51,R43
		SADD.M1		R43,R54,R54
		SMOV.M1		R54, R43
		SADD.M1		R42,R42,R54
		SLTU		R54, R42, R56
		SADD.M1		R43,R43,R55
		SADD.M1		R55,R56,R42
		SMOV.M1		R42, R55
		SMOV.M1		R54, R42
		SMOV.M1		R55, R43
	;no-op trunc di R43:R42 to pdi R43:R42
		SLDDW		*-AR14[13], R55:R54
		SNOP		5
		SMVAGA36.M1		R55:R54, OR11
		SNOP		1
		SADDA.M1		R43:R42,OR11,OR11
		SNOP		1
		SMVAAGL.M1		OR11, R57:R56
		SNOP		1
		SMVAAGH.M1		OR11, R57:R56
		SNOP		1
		SLDW		*-AR14[14], R52
		SNOP		5
		SLDW		*-AR14[14], R42
		SNOP		5
		SSHFAR		31, R42, R42
		SMOV.M1		R42, R53
		SADD.M1		R52,R52,R42
		SLTU		R42, R52, R54
		SADD.M1		R53,R53,R43
		SADD.M1		R43,R54,R54
		SMOV.M1		R54, R43
		SADD.M1		R42,R42,R54
		SLTU		R54, R42, R58
		SADD.M1		R43,R43,R55
		SADD.M1		R55,R58,R42
		SMOV.M1		R42, R55
		SMOV.M1		R54, R42
		SMOV.M1		R55, R43
	;no-op trunc di R43:R42 to pdi R43:R42
		SLDDW		*-AR14[12], R55:R54
		SNOP		5
		SMVAGA36.M1		R55:R54, OR11
		SNOP		1
		SADDA.M1		R43:R42,OR11,OR11
		SNOP		1
		SMVAAGL.M1		OR11, R43:R42
		SNOP		1
		SMVAAGH.M1		OR11, R43:R42
		SNOP		1
		SMVAGA36.M1		R43:R42, AR10
		SNOP		1
		SLDW		*AR10, R42
		SNOP		5
		SMVAGA36.M1		R57:R56, AR10
		SNOP		1
		SSTW		R42, *AR10
	.loc 1 310 0 discriminator 2
		SLDW		*-AR14[14], R42
		SNOP		5
		SADD.M1		1,R42,R42
		SSTW		R42, *-AR14[14]
.L100:
	.loc 1 310 0 is_stmt 0 discriminator 1
		SLDW		*-AR14[14], R43
		SNOP		5
		SMOVIL		-80, R54
		SMOVIL		-1, R55
		SADDA.M1		R55:R54,AR14,AR10
		SNOP		1
		SLDW		*AR10, R42
		SNOP		5
		SLT		R43, R42, R42
		SMOV.M1		R42, R0
	[R0]	SBR		.L101
		SNOP		6
	.loc 1 299 0 is_stmt 1
		SLDW		*-AR14[13], R42
		SNOP		5
		SADD.M1		1,R42,R42
		SSTW		R42, *-AR14[13]
.L95:
	.loc 1 299 0 is_stmt 0 discriminator 1
		SLDW		*-AR14[13], R43
		SNOP		5
		SMOVIL		-76, R54
		SMOVIL		-1, R55
		SADDA.M1		R55:R54,AR14,AR10
		SNOP		1
		SLDW		*AR10, R42
		SNOP		5
		SLT		R43, R42, R42
		SMOV.M1		R42, R0
	[R0]	SBR		.L102
		SNOP		6
	.loc 1 316 0 is_stmt 1
		SMOVIL		0, R42
	.loc 1 317 0
		SMOV.M1		R42, R10
		SLDDW		*+AR15[8], R31:R30
		SNOP		5
		SLDDW		*+AR15[9], R33:R32
		SNOP		5
		SLDDW		*+AR15[10], R35:R34
		SNOP		5
		SLDDW		*+AR15[11], R37:R36
		SNOP		5
		SLDDW		*+AR15[12], R39:R38
		SNOP		5
		SADDA.M1		-16,AR14,AR15
		SNOP		1
		SLDDW		*++AR15[2], R7:R6
		SNOP		5
		SMVAGA36.M1		R7:R6, AR14
		SNOP		1
		SMVCGC.L		R63, BRReg
		SNOP		1
		SBR		R62
		SNOP		6
	.cfi_endproc
.LFE3:
	.size	trival_inverse, .-trival_inverse
.text;
.Letext0:
	.file 2 "<built-in>"