	.file	"main.c"
.text;
.Ltext0:
	.cfi_sections	.debug_frame
	.section	.text.get_time_cn,"ax",@progbits
	.align	2
	.global	get_time_cn
	.type	get_time_cn, @function
get_time_cn:
.LFB4:
	.file 1 "../main.c"
	.loc 1 110 0
	.cfi_startproc
.LVL0:
		SMOVIL		-56, R6
		SMOVIL		-1, R7
		SADDA.M2		R7:R6,AR15,AR15
.LCFI0:
	.cfi_def_cfa_offset 56
		SMVAAGL.M1		AR14, R7:R6
		SSTDW		R63:R62, *+AR15[5]
	.cfi_offset 78, -16
	.cfi_offset 79, -12
	.cfi_offset 48, -36
		SMVAAGH.M1		AR14, R7:R6
	|	SMVAGA36.M2		R13:R12, AR14
	|	SSTW		R32, *+AR15[5]
		SNOP		1
		SMOV.M2		R16, R32
		SSTDW		R7:R6, *+AR15[6]
	.cfi_offset 14, -8
	.cfi_offset 47, -40
		SMVAAGL.M2		OR8, R7:R6
	|	SSTW		R31, *+AR15[4]
		SMOV.M1		R18, R31
		SMVAAGH.M1		OR8, R7:R6
	|	SMVAGA36.M2		R11:R10, OR8
	|	SMOVIL		0, R10
.LVL1:
	.cfi_offset 46, -44
	.loc 1 112 0
		SBR		GetTimerCount
	|	SSTW		R30, *+AR15[3]
	.loc 1 110 0
		SSTDW		R7:R6, *+AR15[4]
	|	SMOVIL		.L2, R62
	.cfi_offset 88, -24
		SMVAAGL.M2		AR8, R7:R6
	|	SMOVIH		.L2, R62
		SMOVIH4.L		.L2, R63
		SMVAAGH.M1		AR8, R7:R6
	|	SMVAGA36.M2		R15:R14, AR8
		SNOP		1
	.cfi_offset 8, -32
	.loc 1 112 0
	;; call to GetTimerCount occurs, with return value
		SSTDW		R7:R6, *+AR15[3]
.LVL2:
.L2:
	.loc 1 113 0
		SBR		DSP_fir_gen_cn
	|	SMOV.M2		R32, R16
	|	SMOV.M1		R31, R18
	.loc 1 112 0
		SMOV.M1		R10, R30
	|	SMVAAGL.M2		AR14, R13:R12
	|	SMOVIL		.L3, R62
.LVL3:
	.loc 1 113 0
		SMVAAGL.M1		OR8, R11:R10
	|	SMVAAGL.M2		AR8, R15:R14
	|	SMOVIH		.L3, R62
.LVL4:
		SMVAAGH.M1		AR14, R13:R12
	|	SMOVIH4.L		.L3, R63
		SMVAAGH.M1		OR8, R11:R10
	|	SMVAAGH.M2		AR8, R15:R14
	;; call to DSP_fir_gen_cn occurs
		SNOP		2
.LVL5:
.L3:
	.loc 1 114 0
		SBR		GetTimerCount
	|	SMOVIL		0, R10
		SMOVIL		.L4, R62
		SMOVIH		.L4, R62
		SMOVIH4.L		.L4, R63
	;; call to GetTimerCount occurs, with return value
		SNOP		3
.LVL6:
	.loc 1 116 0
.L4:
		SLDDW		*+AR15[3], R7:R6
	|	SSUB.M2		R30, R10, R10
.LVL7:
		SLDDW		*+AR15[5], R63:R62
		SLDW		*+AR15[3], R30
.LVL8:
		SLDW		*+AR15[4], R31
.LVL9:
		SLDW		*+AR15[5], R32
		SNOP		1
.LVL10:
		SMVAGA36.M2		R7:R6, AR8
.LVL11:
		SMVCGC.L		R63, BRReg
		SNOP		2
		SLDDW		*+AR15[4], R7:R6
		SNOP		5
		SMVAGA36.M2		R7:R6, OR8
	|	SLDDW		*+AR15[6], R7:R6
.LVL12:
		SNOP		2
		SBR		R62
		SNOP		2
		SMVAGA36.M2		R7:R6, AR14
	|	SMOVIL		56, R6
.LVL13:
		SMOVIL		0, R7
		SADDA.M2		R7:R6,AR15,AR15
		SNOP		1
	;; return occurs
	.cfi_endproc
.LFE4:
	.size	get_time_cn, .-get_time_cn
	.section	.text.get_time_vc,"ax",@progbits
	.align	2
	.global	get_time_vc
	.type	get_time_vc, @function
get_time_vc:
.LFB5:
	.loc 1 119 0
	.cfi_startproc
.LVL14:
		SMOVIL		-56, R6
		SMOVIL		-1, R7
		SADDA.M2		R7:R6,AR15,AR15
.LCFI1:
	.cfi_def_cfa_offset 56
		SMVAAGL.M1		AR14, R7:R6
		SSTDW		R63:R62, *+AR15[5]
	.cfi_offset 78, -16
	.cfi_offset 79, -12
	.cfi_offset 48, -36
		SMVAAGH.M1		AR14, R7:R6
	|	SMVAGA36.M2		R13:R12, AR14
	|	SSTW		R32, *+AR15[5]
		SNOP		1
		SMOV.M2		R16, R32
		SSTDW		R7:R6, *+AR15[6]
	.cfi_offset 14, -8
	.cfi_offset 47, -40
		SMVAAGL.M2		OR8, R7:R6
	|	SSTW		R31, *+AR15[4]
		SMOV.M1		R18, R31
		SMVAAGH.M1		OR8, R7:R6
	|	SMVAGA36.M2		R11:R10, OR8
	|	SMOVIL		0, R10
.LVL15:
	.cfi_offset 46, -44
	.loc 1 121 0
		SBR		GetTimerCount
	|	SSTW		R30, *+AR15[3]
	.loc 1 119 0
		SSTDW		R7:R6, *+AR15[4]
	|	SMOVIL		.L6, R62
	.cfi_offset 88, -24
		SMVAAGL.M2		AR8, R7:R6
	|	SMOVIH		.L6, R62
		SMOVIH4.L		.L6, R63
		SMVAAGH.M1		AR8, R7:R6
	|	SMVAGA36.M2		R15:R14, AR8
		SNOP		1
	.cfi_offset 8, -32
	.loc 1 121 0
	;; call to GetTimerCount occurs, with return value
		SSTDW		R7:R6, *+AR15[3]
.LVL16:
.L6:
	.loc 1 122 0
		SBR		DSP_fir_gen_asm
	|	SMOV.M2		R32, R16
	|	SMOV.M1		R31, R18
	.loc 1 121 0
		SMOV.M1		R10, R30
	|	SMVAAGL.M2		AR14, R13:R12
	|	SMOVIL		.L7, R62
.LVL17:
	.loc 1 122 0
		SMVAAGL.M1		OR8, R11:R10
	|	SMVAAGL.M2		AR8, R15:R14
	|	SMOVIH		.L7, R62
.LVL18:
		SMVAAGH.M1		AR14, R13:R12
	|	SMOVIH4.L		.L7, R63
		SMVAAGH.M1		OR8, R11:R10
	|	SMVAAGH.M2		AR8, R15:R14
	;; call to DSP_fir_gen_asm occurs
		SNOP		2
.LVL19:
.L7:
	.loc 1 123 0
		SBR		GetTimerCount
	|	SMOVIL		0, R10
		SMOVIL		.L8, R62
		SMOVIH		.L8, R62
		SMOVIH4.L		.L8, R63
	;; call to GetTimerCount occurs, with return value
		SNOP		3
.LVL20:
	.loc 1 125 0
.L8:
		SLDDW		*+AR15[3], R7:R6
	|	SSUB.M2		R30, R10, R10
.LVL21:
		SLDDW		*+AR15[5], R63:R62
		SLDW		*+AR15[3], R30
.LVL22:
		SLDW		*+AR15[4], R31
.LVL23:
		SLDW		*+AR15[5], R32
		SNOP		1
.LVL24:
		SMVAGA36.M2		R7:R6, AR8
.LVL25:
		SMVCGC.L		R63, BRReg
		SNOP		2
		SLDDW		*+AR15[4], R7:R6
		SNOP		5
		SMVAGA36.M2		R7:R6, OR8
	|	SLDDW		*+AR15[6], R7:R6
.LVL26:
		SNOP		2
		SBR		R62
		SNOP		2
		SMVAGA36.M2		R7:R6, AR14
	|	SMOVIL		56, R6
.LVL27:
		SMOVIL		0, R7
		SADDA.M2		R7:R6,AR15,AR15
		SNOP		1
	;; return occurs
	.cfi_endproc
.LFE5:
	.size	get_time_vc, .-get_time_vc
	.section	.const.str1.1,"aMS",@progbits,1
.LC0:
	.string	"Result Failure (r_i)  "
.LC1:
	.string	"Result Successful (r_i)  "
.LC2:
	.string	"\tNR = %d\t  NH = %d\t cn_time:%d\t  vc_cycle:%d\t\n"
	.section	.text.startup.main,"ax",@progbits
	.align	2
	.global	main
	.type	main, @function
main:
.LFB3:
	.loc 1 53 0
	.cfi_startproc
.LVL28:
		SMOVIL		-136, R6
		SMOVIL		-1, R7
		SADDA.M2		R7:R6,AR15,AR15
.LCFI2:
	.cfi_def_cfa_offset 136
		SMVAAGL.M1		AR14, R7:R6
	|	SMOVIL		1075052548, R46
	.cfi_offset 78, -16
	.cfi_offset 79, -12
	.loc 1 57 0
		SMOVIH		1075052548, R46
	|	SSTDW		R63:R62, *+AR15[15]
	.cfi_offset 56, -56
	.cfi_offset 57, -52
	.loc 1 53 0
		SMVAAGH.M2		AR14, R7:R6
	|	SMOVIL		0, R47
	|	SSTDW		R41:R40, *+AR15[10]
	.loc 1 57 0
		SMVAGA36.M1		R47:R46, AR10
	|	SMOVIL		1075052544, R42
		SMOVIL		1, R44
	.loc 1 53 0
		SSTDW		R7:R6, *+AR15[16]
	.cfi_offset 14, -8
	.cfi_offset 54, -64
	.cfi_offset 55, -60
		SMVAAGL.M2		OR9, R7:R6
	|	SSTDW		R39:R38, *+AR15[9]
	.loc 1 58 0
		SMOVIH		1075052544, R42
	.loc 1 53 0
		SMVAAGH.M2		OR9, R7:R6
	|	SMOVIL		0, R43
		SSTDW		R37:R36, *+AR15[8]
		SSTDW		R7:R6, *+AR15[14]
		SMVAAGL.M2		OR8, R7:R6
		SNOP		1
	.cfi_offset 52, -72
	.cfi_offset 53, -68
	.cfi_offset 89, -24
	.cfi_offset 50, -80
	.cfi_offset 51, -76
		SMVAAGH.M2		OR8, R7:R6
	|	SSTDW		R35:R34, *+AR15[7]
		SSTDW		R33:R32, *+AR15[6]
		SNOP		2
		SSTDW		R7:R6, *+AR15[13]
	.cfi_offset 48, -88
	.cfi_offset 49, -84
	.cfi_offset 88, -32
	.cfi_offset 46, -96
	.cfi_offset 47, -92
		SMVAAGL.M2		AR9, R7:R6
	|	SSTDW		R31:R30, *+AR15[5]
		SNOP		1
		SMVAAGH.M2		AR9, R7:R6
		SNOP		1
		SSTDW		R7:R6, *+AR15[12]
		SMVAAGL.M2		AR8, R7:R6
		SNOP		1
		SMVAAGH.M2		AR8, R7:R6
		SNOP		1
		SSTDW		R7:R6, *+AR15[11]
	.cfi_offset 9, -40
	.cfi_offset 8, -48
	.loc 1 57 0
		SSTW		R44, *AR10
	|	SMVAGA36.M2		R43:R42, AR10
	.loc 1 58 0
		SNOP		2
		SSTW		R44, *AR10
	|	SMVAGA36.M2		R43:R42, AR10
	.loc 1 59 0
		SSTW		R44, *+AR15[9]
		SNOP		2
.LVL29:
	.loc 1 60 0
		SLDW		*+AR15[9], R0
		SNOP		5
	[!R0]	SBR		.L12
		SNOP		6
	;; condjump to .L12 occurs
.L17:
	.loc 1 61 0
		SLDW		*AR10, R42
		SNOP		5
.LVL30:
		SSTW		R42, *+AR15[9]
		SNOP		2
.LVL31:
	.loc 1 60 0
		SLDW		*+AR15[9], R1
		SNOP		5
	[R1]	SBR		.L17
		SNOP		6
	;; condjump to .L17 occurs
.L12:
	.loc 1 65 0
		SBR		SetTimerPeriod
	|	SMOVIL		-1, R12
		SMOVIL		.L23, R62
		SMOVIH		.L23, R62
		SMOVIH4.L		.L23, R63
		SMOVIL		0, R10
		SMOVIL.L		.LC2, R32
	;; call to SetTimerPeriod occurs, with return value
		SMOVIL		8, R30
.LVL32:
.L23:
		SMOVIL.L		xAddr_DDR, R42
		SMOVIL.L		hAddr_DDR, R46
		SMOVIH.L		hAddr_DDR, R46
		SMOVIH4.L		hAddr_DDR, R47
	.loc 1 66 0
		SBR		TimerStart
	|	SMOVIH.L		xAddr_DDR, R42
	|	SMVAGA36.M2		R47:R46, AR14
		SMOVIL		.L24, R62
		SMOVIH		.L24, R62
		SMOVIH4.L		.L24, R63
		SMOVIH4.L		xAddr_DDR, R43
		SMVAGA36.M2		R43:R42, AR9
	|	SMOVIL		0, R10
	;; call to TimerStart occurs, with return value
		SMOVIL		0, R31
.LVL33:
.L24:
.LBB2:
	.loc 1 98 0
		SMOVIH4.L		.LC0, R43
		SMOVIL.L		.LC0, R42
.LBE2:
	.loc 1 69 0
		SBR		GetTimerCount
	|	SMOVIH.L		.LC0, R42
.LBB3:
	.loc 1 98 0
		SMVAGA36.M2		R43:R42, OR9
	|	SMOVIL		.L25, R62
		SMOVIH		.L25, R62
		SMOVIH4.L		.L25, R63
.LBE3:
	.loc 1 69 0
		SMOVIL		0, R10
	.loc 1 72 0
		SMOVIL		4, R35
	.loc 1 69 0
	;; call to GetTimerCount occurs, with return value
		SMOVIH.L		.LC2, R32
.LVL34:
.L25:
		SBR		GetTimerCount
	|	SMOVIL		0, R10
		SMOVIL		.L26, R62
		SMOVIH		.L26, R62
		SMOVIH4.L		.L26, R63
		SMOVIH4.L		.LC2, R33
	;; call to GetTimerCount occurs, with return value
		SNOP		2
.LVL35:
.L26:
.L11:
	.loc 1 53 0 discriminator 1
		SADD.M2		15,R35,R36
	|	SSHFLL		1, R35, R41
	|	SADD.M1		14,R35,R40
		SSHFAR		4, R36, R2
		SSHFLL		1, R2, R3
		SSHFAR		31, R3, R39
		SSHFLR		27, R3, R8
		SSHFLL		5, R39, R9
		SOR		R9, R8, R39
		SSHFLL		6, R2, R36
		SMOVIL		4, R34
.LVL36:
.L15:
.LBB4:
	.loc 1 53 0 is_stmt 0
		SADD.M2		R34,R40,R43
	.loc 1 74 0 is_stmt 1
		SSHFAR		4, R43, R10
.LVL37:
	.loc 1 77 0
		SSHFAR		31, R43, R11
		SSHFLL		5, R11, R13
		SBR		vmalloc
	|	SSHFLR		27, R10, R12
		SMOVIL		.L27, R62
		SMOVIH		.L27, R62
		SMOVIH4.L		.L27, R63
		SOR		R13, R12, R11
		SSHFLL		5, R10, R37
	;; call to vmalloc occurs, with return value
		SMOV.M2		R37, R10
.LVL38:
.L27:
	.loc 1 82 0
		SBR		vmalloc
	|	SMVAGA36.M2		R11:R10, AR8
	|	SMOV.M1		R36, R10
.LVL39:
		SMOV.M1		R39, R11
	|	SMOVIL		.L28, R62
		SMOVIH		.L28, R62
		SMOVIH4.L		.L28, R63
	;; call to vmalloc occurs, with return value
		SNOP		3
.LVL40:
.L28:
		SMVAGA36.M2		R11:R10, OR8
	|	SMOVIL.L		rAddr_DDR_cn, R10
.LVL41:
	.loc 1 85 0
		SMOVIL		0, R12
		SBR		memset
	|	SMOVIL		192, R14
		SMOVIL		.L29, R62
		SMOVIH		.L29, R62
		SMOVIH4.L		.L29, R63
		SMOVIL		0, R15
		SMOVIH.L		rAddr_DDR_cn, R10
	;; call to memset occurs, with return value
		SMOVIH4.L		rAddr_DDR_cn, R11
.LVL42:
.L29:
	.loc 1 86 0
		SMOVIL		0, R15
		SMOVIL.L		rAddr_DDR_vc, R10
		SBR		memset
	|	SMOVIL		1024, R14
		SMOVIL		.L30, R62
		SMOVIH		.L30, R62
		SMOVIH4.L		.L30, R63
		SMOVIL		0, R12
		SMOVIH.L		rAddr_DDR_vc, R10
	;; call to memset occurs, with return value
		SMOVIH4.L		rAddr_DDR_vc, R11
.LVL43:
.L30:
	.loc 1 88 0
		SBR		M7002_datatrans
	|	SLDDW		*AR9, R11:R10
	|	SMOV.M1		R37, R14
	|	SMVAAGL.M2		AR8, R13:R12
		SMOVIL		.L31, R62
		SMVAAGH.M2		AR8, R13:R12
	|	SMOVIH		.L31, R62
		SMOVIH4.L		.L31, R63
	;; call to M7002_datatrans occurs
		SNOP		3
.LVL44:
.L31:
	.loc 1 89 0
		SBR		M7002_datatrans
	|	SMOV.M1		R36, R14
	|	SMOVIH4.L		rAddr_DDR_vc+32, R11
	|	SMVAAGL.M2		OR8, R13:R12
		SMOVIL		.L32, R62
		SMVAAGH.M2		OR8, R13:R12
	|	SMOVIH		.L32, R62
		SMOVIH4.L		.L32, R63
		SMOVIL.L		rAddr_DDR_vc+32, R10
		SMOVIH.L		rAddr_DDR_vc+32, R10
	;; call to M7002_datatrans occurs
		SNOP		1
.LVL45:
.L32:
	.loc 1 90 0
		SBR		M7002_datatrans
	|	SLDDW		*AR14, R11:R10
	|	SMOVIL		0, R13
		SMOVIL		.L33, R62
		SMOVIH		.L33, R62
		SMOVIH4.L		.L33, R63
		SMOVIL		32, R14
		SMOVIL		1074790400, R12
	;; call to M7002_datatrans occurs
		SMOVIH		1074790400, R12
.LVL46:
.L33:
	.loc 1 92 0
		SBR		get_time_cn
	|	SLDDW		*AR9, R11:R10
	|	SMOV.M2		R34, R16
	|	SMOV.M1		R35, R18
	|	SMOVIH4.L		rAddr_DDR_cn+32, R15
		SLDDW		*AR14, R13:R12
	|	SMOVIL		.L34, R62
		SMOVIH		.L34, R62
		SMOVIH4.L		.L34, R63
		SMOVIL.L		rAddr_DDR_cn+32, R14
		SMOVIH.L		rAddr_DDR_cn+32, R14
	;; call to get_time_cn occurs, with return value
		SNOP		1
.LVL47:
.L34:
	.loc 1 93 0
		SBR		get_time_vc
	|	SMOV.M2		R34, R16
	|	SMOV.M1		R35, R18
	|	SMOVIL		0, R13
	.loc 1 92 0
		SMOV.M1		R10, R38
	|	SMVAAGL.M2		OR8, R15:R14
	|	SMOVIL		.L35, R62
.LVL48:
	.loc 1 93 0
		SMVAAGL.M1		AR8, R11:R10
	|	SMOVIH		.L35, R62
.LVL49:
		SMVAAGH.M1		OR8, R15:R14
	|	SMOVIH4.L		.L35, R63
		SMVAAGH.M1		AR8, R11:R10
	|	SMOVIL		1074790400, R12
		SMOVIH		1074790400, R12
	;; call to get_time_vc occurs, with return value
		SNOP		1
.LVL50:
.L35:
	.loc 1 95 0
		SBR		M7002_datatrans
	|	SMOV.M2		R41, R14
	|	SMOVIH4.L		rAddr_DDR_vc+32, R13
	|	SMOV.M1		R10, R37
.LVL51:
		SMVAAGL.M2		OR8, R11:R10
	|	SMOVIL		.L36, R62
.LVL52:
		SMOVIH		.L36, R62
		SMVAAGH.M2		OR8, R11:R10
	|	SMOVIH4.L		.L36, R63
		SMOVIL.L		rAddr_DDR_vc+32, R12
		SMOVIH.L		rAddr_DDR_vc+32, R12
	;; call to M7002_datatrans occurs
		SNOP		1
.LVL53:
.L36:
	.loc 1 97 0
		SMOVIL.L		rAddr_DDR_cn+32, R12
	|	SMOV.M2		R30, R14
	|	SMOV.M1		R31, R15
		SMOVIL.L		rAddr_DDR_vc+32, R10
		SBR		memcmp
	|	SMOVIH.L		rAddr_DDR_cn+32, R12
		SMOVIL		.L37, R62
		SMOVIH		.L37, R62
		SMOVIH4.L		.L37, R63
		SMOVIH4.L		rAddr_DDR_cn+32, R13
		SMOVIH.L		rAddr_DDR_vc+32, R10
	;; call to memcmp occurs, with return value
		SMOVIH4.L		rAddr_DDR_vc+32, R11
.LVL54:
.L37:
		SMOV.M2		R10, R0
	[!R0]	SBR		.L13
		SNOP		6
	;; condjump to .L13 occurs
	.loc 1 98 0
		SBR		printf
	|	SMVAAGL.M2		OR9, R15:R14
		SMOVIL		.L38, R62
		SMVAAGH.M2		OR9, R15:R14
	|	SMOVIH		.L38, R62
		SMOVIH4.L		.L38, R63
		SSTDW		R15:R14, *+AR15[1]
	;; call to printf occurs, with return value
		SNOP		2
.LVL55:
.L38:
	.loc 1 102 0
		SSTW		R34, *+AR15[5]
	|	SADD.M2		4,R34,R34
.LVL56:
		SSTDW		R33:R32, *+AR15[1]
		SNOP		2
		SBR		printf
	|	SSTW		R35, *+AR15[4]
		SSTW		R38, *+AR15[6]
	|	SMOVIL		.L39, R62
		SMOVIH		.L39, R62
		SMOVIH4.L		.L39, R63
		SSTW		R37, *+AR15[7]
	;; call to printf occurs, with return value
		SNOP		2
.LVL57:
.L39:
	.loc 1 103 0
		SBR		vfree
	|	SMVAAGL.M2		AR8, R11:R10
		SMOVIL		.L40, R62
		SMVAAGH.M2		AR8, R11:R10
	|	SMOVIH		.L40, R62
		SMOVIH4.L		.L40, R63
	;; call to vfree occurs
		SNOP		3
.LVL58:
.L40:
	.loc 1 104 0
		SBR		vfree
	|	SMVAAGL.M2		OR8, R11:R10
		SMOVIL		.L41, R62
		SMVAAGH.M2		OR8, R11:R10
	|	SMOVIH		.L41, R62
		SMOVIH4.L		.L41, R63
	;; call to vfree occurs
		SNOP		3
.LVL59:
.L41:
.LBE4:
	.loc 1 73 0
		SMOVIL		20, R47
		SEQ		R47, R34, R1
	[!R1]	SBR		.L15
		SNOP		6
	;; condjump to .L15 occurs
.LVL60:
.L21:
	.loc 1 72 0
		SADD.M2		4,R35,R35
	|	SMOVIL		68, R18
	|	SADD.M1		8,R30,R15
.LVL61:
		SEQ		R18, R35, R2
	[!R2]	SBR		.L11
	|	SLTU		R15, R30, R16
	|	SMOV.M2		R15, R30
		SADD.M2		R31,R16,R31
		SNOP		5
	;; condjump to .L11 occurs
	.loc 1 107 0
		SLDDW		*+AR15[11], R7:R6
		SLDDW		*+AR15[15], R63:R62
		SLDDW		*+AR15[5], R31:R30
		SLDDW		*+AR15[6], R33:R32
		SLDDW		*+AR15[7], R35:R34
		SNOP		1
.LVL62:
		SMVAGA36.M2		R7:R6, AR8
.LVL63:
		SMVCGC.L		R63, BRReg
		SNOP		2
		SLDDW		*+AR15[12], R7:R6
		SLDDW		*+AR15[8], R37:R36
		SLDDW		*+AR15[9], R39:R38
.LVL64:
		SLDDW		*+AR15[10], R41:R40
		SNOP		2
		SMVAGA36.M2		R7:R6, AR9
		SNOP		2
		SLDDW		*+AR15[13], R7:R6
		SNOP		5
		SMVAGA36.M2		R7:R6, OR8
	|	SLDDW		*+AR15[14], R7:R6
.LVL65:
		SNOP		5
		SMVAGA36.M2		R7:R6, OR9
	|	SLDDW		*+AR15[16], R7:R6
		SNOP		2
		SBR		R62
		SNOP		2
		SMVAGA36.M2		R7:R6, AR14
	|	SMOVIL		136, R6
		SMOVIL		0, R7
		SADDA.M2		R7:R6,AR15,AR15
		SNOP		1
	;; return occurs
.LVL66:
.L13:
.LBB5:
	.loc 1 101 0
		SMOVIL.L		.LC1, R46
		SMOVIH4.L		.LC1, R47
		SBR		printf
	|	SMOVIH.L		.LC1, R46
		SSTDW		R47:R46, *+AR15[1]
	|	SMOVIL		.L42, R62
		SMOVIH		.L42, R62
		SMOVIH4.L		.L42, R63
	;; call to printf occurs, with return value
		SNOP		3
.LVL67:
.L42:
	.loc 1 102 0
		SSTW		R34, *+AR15[5]
	|	SADD.M2		4,R34,R34
.LVL68:
		SSTDW		R33:R32, *+AR15[1]
		SNOP		2
		SBR		printf
	|	SSTW		R35, *+AR15[4]
		SSTW		R38, *+AR15[6]
	|	SMOVIL		.L43, R62
		SMOVIH		.L43, R62
		SMOVIH4.L		.L43, R63
		SSTW		R37, *+AR15[7]
	;; call to printf occurs, with return value
		SNOP		2
.LVL69:
.L43:
	.loc 1 103 0
		SBR		vfree
	|	SMVAAGL.M2		AR8, R11:R10
		SMOVIL		.L44, R62
		SMVAAGH.M2		AR8, R11:R10
	|	SMOVIH		.L44, R62
		SMOVIH4.L		.L44, R63
	;; call to vfree occurs
		SNOP		3
.LVL70:
.L44:
	.loc 1 104 0
		SBR		vfree
	|	SMVAAGL.M2		OR8, R11:R10
		SMOVIL		.L45, R62
		SMVAAGH.M2		OR8, R11:R10
	|	SMOVIH		.L45, R62
		SMOVIH4.L		.L45, R63
	;; call to vfree occurs
		SNOP		3
.LVL71:
.L45:
.LBE5:
	.loc 1 73 0
		SMOVIL		20, R47
		SEQ		R47, R34, R1
	[!R1]	SBR		.L15
		SNOP		6
	;; condjump to .L15 occurs
		SBR		.L21
		SNOP		6
	;; jump to .L21 occurs
	.cfi_endproc
.LFE3:
	.size	main, .-main
	.global	ptr_r_vc
	.section	.rodata,"a",@progbits
	.align	3
	.type	ptr_r_vc, @object
	.size	ptr_r_vc, 8
ptr_r_vc:
	.llong	rAddr_DDR_vc+32
	.global	ptr_r_cn
	.align	3
	.type	ptr_r_cn, @object
	.size	ptr_r_cn, 8
ptr_r_cn:
	.llong	rAddr_DDR_cn+32
	.global	hAddr_DDR
	.section	.neardata,"aw",@progbits
	.align	3
	.type	hAddr_DDR, @object
	.size	hAddr_DDR, 8
hAddr_DDR:
	.llong	h+32
	.global	xAddr_DDR
	.align	3
	.type	xAddr_DDR, @object
	.size	xAddr_DDR, 8
xAddr_DDR:
	.llong	x+32
	.common	rAddr_DDR_vc,1024,8
	.common	rAddr_DDR_cn,192,8
	.global	h
	.section	.const,"a",@progbits
	.align	3
	.type	h, @object
	.size	h, 96
h:
	.short	-25126
	.short	20121
	.short	21164
	.short	-12847
	.short	-19698
	.short	13566
	.short	-9904
	.short	20780
	.short	-31972
	.short	23024
	.short	-16695
	.short	-31934
	.short	-32587
	.short	-21617
	.short	-6789
	.short	-3896
	.short	-7
	.short	42
	.short	-6
	.short	39
	.short	-22
	.short	30
	.short	71
	.short	91
	.short	100
	.short	-23
	.short	-31
	.short	57
	.short	-21
	.short	-99
	.short	-9
	.short	-22
	.short	-99
	.short	-9
	.short	-22
	.short	21067
	.short	-29109
	.short	23662
	.short	19602
	.short	24832
	.short	20179
	.short	29252
	.short	-21908
	.short	-4808
	.short	-28552
	.short	28379
	.short	12932
	.short	-13989
	.global	x
	.align	3
	.type	x, @object
	.size	x, 224
x:
	.short	812
	.short	-21581
	.short	-27293
	.short	2500
	.short	21030
	.short	27269
	.short	28382
	.short	5219
	.short	-5514
	.short	30140
	.short	29703
	.short	5643
	.short	-3606
	.short	-16258
	.short	24429
	.short	-22139
	.short	17726
	.short	-12829
	.short	11707
	.short	30663
	.short	-22457
	.short	-19165
	.short	4279
	.short	-4415
	.short	-6802
	.short	31911
	.short	18964
	.short	29085
	.short	15969
	.short	6232
	.short	-3404
	.short	15764
	.short	-12984
	.short	-5298
	.short	7018
	.short	31261
	.short	3419
	.short	7468
	.short	21976
	.short	-21593
	.short	20528
	.short	-23741
	.short	384
	.short	1435
	.short	19863
	.short	18915
	.short	26788
	.short	-13865
	.short	-31397
	.short	-22574
	.short	7429
	.short	14949
	.short	-18228
	.short	15723
	.short	-27875
	.short	19097
	.short	7508
	.short	-20660
	.short	25333
	.short	-30119
	.short	-27386
	.short	23846
	.short	15386
	.short	-31037
	.short	-25747
	.short	17026
	.short	-32
	.short	7136
	.short	6783
	.short	25115
	.short	-7302
	.short	-9550
	.short	-4859
	.short	-20059
	.short	13321
	.short	8766
	.short	14422
	.short	-16761
	.short	-24777
	.short	-4140
	.short	24246
	.short	-2427
	.short	31342
	.short	5200
	.short	-16845
	.short	-4922
	.short	856
	.short	-9847
	.short	-2976
	.short	26418
	.short	6565
	.short	-18785
	.short	-7751
	.short	-26199
	.short	22470
	.short	7792
	.short	-460
	.short	-8077
	.short	-13729
	.short	17194
	.short	-13766
	.short	-3599
	.short	-32751
	.short	15627
	.short	15627
	.short	11111
	.short	-31687
	.short	18645
	.short	-8163
	.short	2778
	.short	20226
	.short	-27103
.text;
.Letext0: